
ch57x_ble_uart_mrs_app_only_test.elf:     file format elf32-littlearm
ch57x_ble_uart_mrs_app_only_test.elf
architecture: armv6s-m, flags 0x00000112:
EXEC_P, HAS_SYMS, D_PAGED
start address 0x000038dd

Program Header:
    LOAD off    0x00010000 vaddr 0x00000000 paddr 0x00000000 align 2**16
         filesz 0x00005474 memsz 0x00005474 flags r-x
    LOAD off    0x00024000 vaddr 0x20004000 paddr 0x00005474 align 2**16
         filesz 0x00000080 memsz 0x00001678 flags rw-
    LOAD off    0x00005678 vaddr 0x20005678 paddr 0x000054f4 align 2**16
         filesz 0x00000000 memsz 0x00000800 flags rw-
private flags = 5000200: [Version5 EABI] [soft-float ABI]

Sections:
Idx Name              Size      VMA       LMA       File off  Algn  Flags
  0 .isr_vector       00000090  00000000  00000000  00010000  2**0  CONTENTS, ALLOC, LOAD, READONLY, DATA
  1 .text             000049b8  00000090  00000090  00010090  2**2  CONTENTS, ALLOC, LOAD, READONLY, CODE
  2 .rodata           00000a2c  00004a48  00004a48  00014a48  2**2  CONTENTS, ALLOC, LOAD, READONLY, DATA
  3 .data             00000080  20004000  00005474  00024000  2**2  CONTENTS, ALLOC, LOAD, DATA
  4 .bss              000015f8  20004080  000054f4  00024080  2**2  ALLOC
  5 ._user_heap_stack 00000800  20005678  000054f4  00025678  2**0  ALLOC
  6 .ARM.attributes   0000002a  00000000  00000000  00024080  2**0  CONTENTS, READONLY
  7 .debug_info       00011d9b  00000000  00000000  000240aa  2**0  CONTENTS, READONLY, DEBUGGING, OCTETS
  8 .debug_abbrev     000029cb  00000000  00000000  00035e45  2**0  CONTENTS, READONLY, DEBUGGING, OCTETS
  9 .debug_loc        0000a76d  00000000  00000000  00038810  2**0  CONTENTS, READONLY, DEBUGGING, OCTETS
 10 .debug_aranges    00000710  00000000  00000000  00042f80  2**3  CONTENTS, READONLY, DEBUGGING, OCTETS
 11 .debug_ranges     00000cb8  00000000  00000000  00043690  2**3  CONTENTS, READONLY, DEBUGGING, OCTETS
 12 .debug_line       0000b0d4  00000000  00000000  00044348  2**0  CONTENTS, READONLY, DEBUGGING, OCTETS
 13 .debug_str        00002586  00000000  00000000  0004f41c  2**0  CONTENTS, READONLY, DEBUGGING, OCTETS
 14 .comment          0000004c  00000000  00000000  000519a2  2**0  CONTENTS, READONLY
 15 .debug_frame      00001c28  00000000  00000000  000519f0  2**2  CONTENTS, READONLY, DEBUGGING, OCTETS
 16 .stab             00000084  00000000  00000000  00053618  2**2  CONTENTS, READONLY, DEBUGGING
 17 .stabstr          00000117  00000000  00000000  0005369c  2**0  CONTENTS, READONLY, DEBUGGING
SYMBOL TABLE:
00000000 l    d  .isr_vector	00000000 .isr_vector
00000090 l    d  .text	00000000 .text
00004a48 l    d  .rodata	00000000 .rodata
20004000 l    d  .data	00000000 .data
20004080 l    d  .bss	00000000 .bss
20005678 l    d  ._user_heap_stack	00000000 ._user_heap_stack
00000000 l    d  .ARM.attributes	00000000 .ARM.attributes
00000000 l    d  .debug_info	00000000 .debug_info
00000000 l    d  .debug_abbrev	00000000 .debug_abbrev
00000000 l    d  .debug_loc	00000000 .debug_loc
00000000 l    d  .debug_aranges	00000000 .debug_aranges
00000000 l    d  .debug_ranges	00000000 .debug_ranges
00000000 l    d  .debug_line	00000000 .debug_line
00000000 l    d  .debug_str	00000000 .debug_str
00000000 l    d  .comment	00000000 .comment
00000000 l    d  .debug_frame	00000000 .debug_frame
00000000 l    d  .stab	00000000 .stab
00000000 l    d  .stabstr	00000000 .stabstr
00000000 l    df *ABS*	00000000 ./Startup/startup_ch579.o
000038f8 l       .text	00000000 ApplicationStart
00003904 l       .text	00000000 LoopCopyDataInit
000038fc l       .text	00000000 CopyDataInit
00003918 l       .text	00000000 LoopFillZerobss
00003912 l       .text	00000000 FillZerobss
00003926 l       .text	00000000 LoopForever
00003958 l       .text	00000000 Infinite_Loop
00000000 l    df *ABS*	00000000 _thumb1_case_sqi.o
00000000 l    df *ABS*	00000000 _thumb1_case_uqi.o
00000000 l    df *ABS*	00000000 _thumb1_case_shi.o
00000000 l    df *ABS*	00000000 _udivsi3.o
000000cc l       .text	00000000 .udivsi3_skip_div0_test
00000000 l    df *ABS*	00000000 _divsi3.o
000001e0 l       .text	00000000 .divsi3_skip_div0_test
00000000 l    df *ABS*	00000000 _dvmd_tls.o
00000000 l    df *ABS*	00000000 ch57x_usb_device_msc.c
0000042c l     F .text	00000034 UFI_modeSense.part.0
0000042c l     F .text	00000034 UFI_modeSense5.part.0
00000000 l    df *ABS*	00000000 diskio.c
00000000 l    df *ABS*	00000000 ff.c
00000e60 l     F .text	00000016 ld_dword
00000e76 l     F .text	00000010 st_dword
00000e86 l     F .text	0000000c mem_set
00000e92 l     F .text	0000001a mem_cmp
00000eac l     F .text	00000018 clst2sect
00000ec4 l     F .text	0000001c sum_sfn
00000ee0 l     F .text	00000034 get_ldnumber
00000f14 l     F .text	0000003c validate
00000f50 l     F .text	00000010 mem_cpy.part.0
00000f60 l     F .text	0000001e ld_clust.isra.0
00000f7e l     F .text	00000018 st_clust.isra.0
00000f96 l     F .text	0000004a sync_window
00000fe0 l     F .text	00000034 move_window
00001014 l     F .text	00000080 check_fs
00001094 l     F .text	000002f8 find_volume
0000138c l     F .text	00000114 put_fat
000014a0 l     F .text	000000c4 get_fat.isra.0
00001564 l     F .text	0000008e dir_sdi
000015f2 l     F .text	000000ec create_chain
000016de l     F .text	00000072 remove_chain
00001750 l     F .text	000000ac dir_clear
000017fc l     F .text	000000ac dir_next
000018a8 l     F .text	00000170 dir_find
00001a18 l     F .text	00000258 dir_register
00001c70 l     F .text	000000b0 sync_fs
00001d20 l     F .text	000002e8 follow_path
00004c0a l     O .rodata	00000080 ExCvt
200041ec l     O .bss	00000004 FatFs
200041f0 l     O .bss	00000002 Fsid
00004c8a l     O .rodata	0000000d LfnOfs
00004c98 l     O .rodata	0000000e cst.4968
00004ca6 l     O .rodata	0000000e cst32.4969
00000000 l    df *ABS*	00000000 ffsystem.c
00000000 l    df *ABS*	00000000 ffunicode.c
00004f62 l     O .rodata	00000100 uc437
00004cb4 l     O .rodata	000001f2 cvt1.4378
00004ea6 l     O .rodata	000000bc cvt2.4379
00000000 l    df *ABS*	00000000 peripheral_main.c
00000000 l    df *ABS*	00000000 spi_flash.c
00000000 l    df *ABS*	00000000 CH57x_clk.c
00003114 l     F .text	00000010 SYS_IsClkXT32MPon
00000000 l    df *ABS*	00000000 CH57x_gpio.c
00000000 l    df *ABS*	00000000 CH57x_int.c
00000000 l    df *ABS*	00000000 CH57x_pwr.c
00000000 l    df *ABS*	00000000 CH57x_spi0.c
00000000 l    df *ABS*	00000000 CH57x_sys.c
00000000 l    df *ABS*	00000000 CH57x_uart0.c
00000000 l    df *ABS*	00000000 malloc.c
00000000 l    df *ABS*	00000000 memcpy-stub.c
00000000 l    df *ABS*	00000000 nano-mallocr.c
00000000 l    df *ABS*	00000000 nano-mallocr.c
00000000 l    df *ABS*	00000000 printf.c
00000000 l    df *ABS*	00000000 puts.c
00000000 l    df *ABS*	00000000 sbrkr.c
00000000 l    df *ABS*	00000000 wbuf.c
00000000 l    df *ABS*	00000000 wsetup.c
00000000 l    df *ABS*	00000000 fflush.c
00000000 l    df *ABS*	00000000 findfp.c
00003f6c l     F .text	00000048 std
00000000 l    df *ABS*	00000000 fwalk.c
00000000 l    df *ABS*	00000000 lock.c
00000000 l    df *ABS*	00000000 makebuf.c
00000000 l    df *ABS*	00000000 memset.c
00000000 l    df *ABS*	00000000 mlock.c
00000000 l    df *ABS*	00000000 nano-vfprintf.c
00004280 l     F .text	0000002a __sfputc_r
00000000 l    df *ABS*	00000000 nano-vfprintf_i.c
00000000 l    df *ABS*	00000000 stdio.c
00000000 l    df *ABS*	00000000 writer.c
00000000 l    df *ABS*	00000000 closer.c
00000000 l    df *ABS*	00000000 fstatr.c
00000000 l    df *ABS*	00000000 isattyr.c
00000000 l    df *ABS*	00000000 lseekr.c
00000000 l    df *ABS*	00000000 memchr-stub.c
00000000 l    df *ABS*	00000000 readr.c
00000000 l    df *ABS*	00000000 close.c
00000000 l    df *ABS*	00000000 fstat.c
00000000 l    df *ABS*	00000000 isatty.c
00000000 l    df *ABS*	00000000 lseek.c
00000000 l    df *ABS*	00000000 read.c
00000000 l    df *ABS*	00000000 sbrk.c
20005664 l     O .bss	00000004 heap_end.4144
00000000 l    df *ABS*	00000000 impure.c
20004020 l     O .data	00000060 impure_data
00000000 l    df *ABS*	00000000 CH57x_usbdev.c
00000000 l    df *ABS*	00000000 reent.c
00002ec4 g     F .text	00000028 WriteExternalFlashEnable_SPI
00003958  w    F .text	00000002 GPIO_IRQHandler
00004950 g     F .text	00000024 _isatty_r
20004154 g     O .bss	00000040 MassPara
00003b1c g     F .text	000000e4 _puts_r
200041d8 g     O .bss	00000001 lastFSTALL
00004974 g     F .text	00000028 _lseek_r
00000984 g     F .text	00000368 USB_DevTransProcess
00000dd8 g     F .text	00000030 spi_disk_write
00003ae8 g     F .text	00000034 printf
20005668 g     O .bss	00000001 __lock___atexit_recursive_mutex
000006f4 g     F .text	000000a8 UFI_Hunding
000048a8 g     F .text	0000002c __sseek
00004030 g     F .text	00000070 __sinit
00003c38 g     F .text	000000ac __swbuf_r
000037e4 g     F .text	00000058 mDelayuS
00003958  w    F .text	00000002 HardFault_Handler
00003fc4 g     F .text	0000002c __sfmoreglue
00004270 g     F .text	00000010 __malloc_unlock
00003880 g     F .text	00000028 UART0_BaudRateCfg
00000400 g       *ABS*	00000000 _Min_Stack_Size
00003958  w    F .text	00000002 SysTick_Handler
20005669 g     O .bss	00000001 __lock___arc4random_mutex
0000081c g     F .text	00000088 mCH375UpCsw
00005474 g       *ABS*	00000000 _sidata
00003958  w    F .text	00000002 PendSV_Handler
00003570 g     F .text	00000088 NMI_Handler
00000460 g     F .text	0000003c UFI_readCapacity
00005474 g       .data	00000000 __exidx_end
00003958  w    F .text	00000002 UART1_IRQHandler
0000492c g     F .text	00000024 _fstat_r
00002eb4 g     F .text	0000000e WaitExternalFlashIfBusy
20005674 g     O .bss	00000004 errno
00004a48 g       .text	00000000 _etext
20004080 g       .bss	00000000 _sbss
00002c0c g     F .text	00000094 ff_wtoupper
20004620 g     O .bss	00001034 fs
20004084 g     O .bss	00000001 DevConfig
20004000 g     O .data	0000001a WriteBuffer
200041e4 g     O .bss	00000001 pBuf_ReSelect
200041f2 g     O .bss	00000400 ReadBuffer
00000534 g     F .text	00000050 UFI_modeSense
200041db g     O .bss	00000004 mdCBWTag
00003958  w    F .text	00000002 UART0_IRQHandler
00004a95 g     O .rodata	00000012 MyDevDescr
20004083 g     O .bss	00000001 CH375CSW
00003984 g     F .text	00000012 memcpy
200041e0 g     O .bss	00000004 pBuf
00003160 g     F .text	00000034 SYS_ClkXT32MPon
00003fb4 g     F .text	00000010 _cleanup_r
000032cc g     F .text	00000038 LClk32K_Select
00000d1c g     F .text	0000002c disk_initialize
20004196 g     O .bss	00000002 SetupReqLen
00003c00 g     F .text	00000014 puts
00000e08 g     F .text	00000024 spi_disk_erase
0000395c g     F .text	00000014 malloc
000000cc g     F .text	0000010a .hidden __udivsi3
000049ec g     F .text	00000010 _fstat
00003958  w    F .text	00000002 BB_IRQHandler
00000cf4 g     F .text	00000028 disk_status
20004080 g       .bss	00000000 __bss_start__
0000350c g     F .text	00000064 GPIOB_ModeCfg
20004194 g     O .bss	00000001 SetupReqCode
20004000 g       .data	00000000 _sdata
00003958  w    F .text	00000002 SPI1_IRQHandler
00003c14 g     F .text	00000024 _sbrk_r
00004aa7 g     O .rodata	00000004 MyLangDescr
00003958  w    F .text	00000002 TMR0_IRQHandler
000049b4 g     F .text	00000028 _read_r
00000d48 g     F .text	0000003c disk_ioctl
000000a4 g     F .text	00000012 .hidden __gnu_thumb1_case_uqi
20005654 g     O .bss	00000001 res_flash
00003774 g     F .text	0000002c SPI0_MasterRecvByte
0000383c g     F .text	0000001c mDelaymS
000031c0 g     F .text	00000038 SYS_PLLPon
00004a75 g     O .rodata	00000020 MyCfgDescr
000036ac g     F .text	00000030 SPI0_MasterDefInit
00005474 g       .data	00000000 __exidx_start
2000566a g     O .bss	00000001 __lock___env_recursive_mutex
000049fc g     F .text	00000010 _isatty
2000566b g     O .bss	00000001 __lock___sinit_recursive_mutex
0000543c g     O .rodata	00000004 _global_impure_ptr
0000323c g     F .text	00000090 LClk32k_Power
00004a2c g     F .text	0000001c _sbrk
00004aab g     O .rodata	0000000e MyManuInfo
00002bac g     F .text	00000038 ff_uni2oem
00003958  w    F .text	00000002 RTC_IRQHandler
20005678 g       .bss	00000000 _ebss
000038dc  w    F .text	0000004c Reset_Handler
00003958  w    F .text	00000002 LED_IRQHandler
0000049c g     F .text	0000003c UFI_inquiry
2000566c g     O .bss	00000001 __lock___malloc_recursive_mutex
00004ac5 g     O .rodata	00000010 mode5sense3F
200041e8 g     O .bss	00000004 pDescr
20004088 g     O .bss	00000040 EP0_Databuf
20004081 g     O .bss	00000001 CH375BULKDOWN
200045f4 g     O .bss	00000028 fnew
00004a74 g     O .rodata	00000001 MAX_LUN
000053dc g     O .rodata	00000020 __sf_fake_stderr
000036dc g     F .text	00000024 SPI0_CLKCfg
20005678 g       ._user_heap_stack	00000000 end
000001e0 g     F .text	00000000 .hidden __aeabi_idiv
00004174 g     F .text	00000002 __retarget_lock_release_recursive
00003958  w    F .text	00000002 UART2_IRQHandler
20004080 g     O .bss	00000001 BcswStatus
000042aa g     F .text	00000024 __sfputs_r
200040c8 g     O .bss	00000080 EP1_Databuf
00003ff0 g     F .text	00000010 __sfp_lock_acquire
0000499c g     F .text	00000016 memchr
20005678 g       .bss	00000000 __bss_end__
00003998 g     F .text	00000094 _free_r
000000b8 g     F .text	00000014 .hidden __gnu_thumb1_case_shi
00002f38 g     F .text	0000005c PageWriteExternalFlash_SPI
00000400 g       *ABS*	00000000 _Min_Heap_Size
00002556 g     F .text	0000001c f_close
00003958 g       .text	00000002 Default_Handler
00002ca0 g     F .text	0000001c DebugInit
00004a0c g     F .text	00000010 _lseek
20004148 g     O .bss	00000001 FSTALL
00000638 g     F .text	0000006c UFI_write
00002216 g     F .text	00000146 f_read
20004198 g     O .bss	00000040 buffer
00003958  w    F .text	00000002 ADC_IRQHandler
00000d84 g     F .text	00000028 spi_disk_read
00003958  w    F .text	00000002 TMR2_IRQHandler
0000092c g     F .text	00000058 mCH375BulkDownData
200041da g     O .bss	00000001 mSenseKey
000006a4 g     F .text	00000050 UFI_modeSense5
000038a8 g     F .text	00000034 UART0_DefInit
00004908 g     F .text	00000024 _close_r
00003958  w    F .text	00000002 SLAVE_IRQHandler
000008a4 g     F .text	00000088 CH375bulkUpData
00003304 g     F .text	000001a4 SetSysClock
00000cec g     F .text	00000008 USB_IRQHandler
0000061c g     F .text	0000001c UFI_perOrMed
00003ce4 g     F .text	000000f0 __swsetup_r
000003b4  w    F .text	00000002 .hidden __aeabi_ldiv0
000005f0 g     F .text	0000002c UFI_testUnit
000040a0 g     F .text	00000090 __sfp
00004020 g     F .text	00000010 __sinit_lock_release
00004848 g     F .text	00000028 __sread
200041d9 g     O .bss	00000001 mASC
00004260 g     F .text	00000010 __malloc_lock
00000584 g     F .text	0000006c UFI_requestSense
00003eec g     F .text	00000080 _fflush_r
20005658 g     O .bss	00000004 pEP0_RAM_Addr
000053fc g     O .rodata	00000020 __sf_fake_stdin
00004172 g     F .text	00000002 __retarget_lock_acquire_recursive
00004250 g     F .text	00000010 memset
00002cbc g     F .text	000001cc main
00004170 g     F .text	00000002 __retarget_lock_init_recursive
000024ec g     F .text	0000006a f_sync
00003958  w    F .text	00000002 WDT_IRQHandler
00003074 g     F .text	00000054 SPIFlash_ReadID
000000cc g     F .text	00000000 .hidden __aeabi_uidiv
00003958  w    F .text	00000002 SVC_Handler
000048d4 g     F .text	0000000c __sclose
000035f8 g     F .text	00000070 PWR_UnitModCfg
00003a2c g     F .text	000000bc _malloc_r
00002574 g     F .text	00000628 f_mkfs
00002008 g     F .text	0000004c f_mount
000001e0 g     F .text	000001cc .hidden __divsi3
00004ab9 g     O .rodata	0000000c MyProdInfo
00002be4 g     F .text	00000028 ff_oem2uni
00004a50 g     O .rodata	00000024 DBINQUITY
00003124 g     F .text	0000003c SystemInit
00003ae8 g     F .text	00000034 iprintf
00003958  w    F .text	00000002 LLE_IRQHandler
000048e0 g     F .text	00000028 _write_r
00003958  w    F .text	00000002 ETH_IRQHandler
00004544 g     F .text	000000de _printf_common
2000401c g     O .data	00000004 _impure_ptr
0000079c g     F .text	00000080 mCH375BulkOnly
00003dd4 g     F .text	00000118 __sflush_r
00003668 g     F .text	00000044 PowerMonitor
000004d8 g     F .text	0000005c UFI_read10
00002ba4 g     F .text	00000008 ff_memfree
00003958  w    F .text	00000002 TMR3_IRQHandler
20004150 g     O .bss	00000004 Locate_Addr
000034a8 g     F .text	00000064 GPIOA_ModeCfg
000003b8 g     F .text	00000074 BulkThirteen
00004178 g     F .text	00000050 __swhatbuf_r
20008000 g       *ABS*	00000000 _estack
000031f8 g     F .text	00000044 GetSysClock
000001d8 g     F .text	00000008 .hidden __aeabi_uidivmod
00003858 g     F .text	00000028 _write
00000090 g     F .text	00000012 .hidden __gnu_thumb1_case_sqi
20004080 g       .data	00000000 _edata
0000374c g     F .text	00000028 SPI0_MasterSendByte
00004a48 g     O .rodata	00000008 DBCAPACITY
00003958  w    F .text	00000002 SPI0_IRQHandler
00004ad5 g     O .rodata	0000000c modesense3F
2000566d g     O .bss	00000001 __lock___at_quick_exit_mutex
0000235c g     F .text	00000190 f_write
000030c8 g     F .text	0000004c spi_flash_init
00004870 g     F .text	00000038 __swrite
00002fd8 g     F .text	00000058 ReadExternalFlash_SPI
00002054 g     F .text	000001c2 f_open
00000e2c g     F .text	00000034 disk_write
000042d0 g     F .text	00000274 _vfiprintf_r
00000000 g     O .isr_vector	00000000 g_pfnVectors
00004130 g     F .text	00000040 _fwalk_reent
2000461c g     O .bss	00000004 fnum
00004000 g     F .text	00000010 __sfp_lock_release
0000541c g     O .rodata	00000020 __sf_fake_stdout
000037a0 g     F .text	00000044 SPI0_MasterRecv
00004a1c g     F .text	00000010 _read
000003b4  w    F .text	00000002 .hidden __aeabi_idiv0
2000414c g     O .bss	00000004 LEN
00002f94 g     F .text	00000042 BlukWriteExternalFlash_SPI
2000566e g     O .bss	00000001 __lock___dd_hash_mutex
000041c8 g     F .text	00000088 __smakebuf_r
2000566f g     O .bss	00000001 __lock___tz_mutex
00002eec g     F .text	0000004c EraseExternal4KFlash_SPI
00000dac g     F .text	0000002c disk_read
00004624 g     F .text	00000224 _printf_i
00003958  w    F .text	00000002 UART3_IRQHandler
20005660 g     O .bss	00000004 __malloc_sbrk_start
00003030 g     F .text	00000042 BlukReadExternalFlash_SPI
00003194 g     F .text	0000002c SYS_ClkINT32MPon
20004082 g     O .bss	00000001 CH375BULKUP
2000565c g     O .bss	00000004 __malloc_free_list
00002e88 g     F .text	0000002c ReadExternalFlashStatusReg_SPI
000042d0 g     F .text	00000274 _vfprintf_r
00003958  w    F .text	00000002 TMR1_IRQHandler
000003ac g     F .text	00000008 .hidden __aeabi_idivmod
00003700 g     F .text	0000004c SPI0_DataMode
20005670 g     O .bss	00000001 __lock___sfp_recursive_mutex
000049dc g     F .text	00000010 _close
00002b9c g     F .text	00000008 ff_memalloc
00003970 g     F .text	00000014 free
00004010 g     F .text	00000010 __sinit_lock_acquire



Disassembly of section .text:

00000090 <__gnu_thumb1_case_sqi>:
USB_DeviceInit():
C:/Users/alon/Desktop/github/iot-fan_at_cnblogs/CH577_CH578_CH579/AN/CH579EVT_USB_DISK_TEST/SRC/StdPeriphDriver/CH57x_usbdev.c:46
    R8_USB_CTRL = RB_UC_DEV_PU_EN | RB_UC_INT_BUSY | RB_UC_DMA_EN;  // ∆Ù∂ØUSB…Ë±∏º∞DMA£¨‘⁄÷–∂œ∆⁄º‰÷–∂œ±Í÷æŒ¥«Â≥˝«∞◊‘∂Ø∑µªÿNAK    
    R8_USB_INT_FG = 0xFF;                                           // «Â÷–∂œ±Í÷æ
    R16_PIN_ANALOG_IE |= RB_PIN_USB_IE;								// ∑¿÷πUSB∂Àø⁄∏°ø’
    R8_UDEV_CTRL = RB_UD_PD_DIS|RB_UD_PORT_EN; 						// ‘ –ÌUSB∂Àø⁄	
    R8_USB_INT_EN = RB_UIE_SUSPEND | RB_UIE_BUS_RST | RB_UIE_TRANSFER; 
}
      90:	b402      	push	{r1}
      92:	4671      	mov	r1, lr
      94:	0849      	lsrs	r1, r1, #1
      96:	0049      	lsls	r1, r1, #1
      98:	5609      	ldrsb	r1, [r1, r0]
      9a:	0049      	lsls	r1, r1, #1
      9c:	448e      	add	lr, r1
      9e:	bc02      	pop	{r1}
      a0:	4770      	bx	lr
      a2:	46c0      	nop			; (mov r8, r8)

000000a4 <__gnu_thumb1_case_uqi>:
      a4:	b402      	push	{r1}
      a6:	4671      	mov	r1, lr
      a8:	0849      	lsrs	r1, r1, #1
      aa:	0049      	lsls	r1, r1, #1
      ac:	5c09      	ldrb	r1, [r1, r0]
      ae:	0049      	lsls	r1, r1, #1
      b0:	448e      	add	lr, r1
      b2:	bc02      	pop	{r1}
      b4:	4770      	bx	lr
      b6:	46c0      	nop			; (mov r8, r8)

000000b8 <__gnu_thumb1_case_shi>:
      b8:	b403      	push	{r0, r1}
      ba:	4671      	mov	r1, lr
      bc:	0849      	lsrs	r1, r1, #1
      be:	0040      	lsls	r0, r0, #1
      c0:	0049      	lsls	r1, r1, #1
      c2:	5e09      	ldrsh	r1, [r1, r0]
      c4:	0049      	lsls	r1, r1, #1
      c6:	448e      	add	lr, r1
      c8:	bc03      	pop	{r0, r1}
      ca:	4770      	bx	lr

000000cc <__udivsi3>:
__udivsi3():
      cc:	2200      	movs	r2, #0
      ce:	0843      	lsrs	r3, r0, #1
      d0:	428b      	cmp	r3, r1
      d2:	d374      	bcc.n	1be <__udivsi3+0xf2>
      d4:	0903      	lsrs	r3, r0, #4
      d6:	428b      	cmp	r3, r1
      d8:	d35f      	bcc.n	19a <__udivsi3+0xce>
      da:	0a03      	lsrs	r3, r0, #8
      dc:	428b      	cmp	r3, r1
      de:	d344      	bcc.n	16a <__udivsi3+0x9e>
      e0:	0b03      	lsrs	r3, r0, #12
      e2:	428b      	cmp	r3, r1
      e4:	d328      	bcc.n	138 <__udivsi3+0x6c>
      e6:	0c03      	lsrs	r3, r0, #16
      e8:	428b      	cmp	r3, r1
      ea:	d30d      	bcc.n	108 <__udivsi3+0x3c>
      ec:	22ff      	movs	r2, #255	; 0xff
      ee:	0209      	lsls	r1, r1, #8
      f0:	ba12      	rev	r2, r2
      f2:	0c03      	lsrs	r3, r0, #16
      f4:	428b      	cmp	r3, r1
      f6:	d302      	bcc.n	fe <__udivsi3+0x32>
      f8:	1212      	asrs	r2, r2, #8
      fa:	0209      	lsls	r1, r1, #8
      fc:	d065      	beq.n	1ca <__udivsi3+0xfe>
      fe:	0b03      	lsrs	r3, r0, #12
     100:	428b      	cmp	r3, r1
     102:	d319      	bcc.n	138 <__udivsi3+0x6c>
     104:	e000      	b.n	108 <__udivsi3+0x3c>
     106:	0a09      	lsrs	r1, r1, #8
     108:	0bc3      	lsrs	r3, r0, #15
     10a:	428b      	cmp	r3, r1
     10c:	d301      	bcc.n	112 <__udivsi3+0x46>
     10e:	03cb      	lsls	r3, r1, #15
     110:	1ac0      	subs	r0, r0, r3
     112:	4152      	adcs	r2, r2
     114:	0b83      	lsrs	r3, r0, #14
     116:	428b      	cmp	r3, r1
     118:	d301      	bcc.n	11e <__udivsi3+0x52>
     11a:	038b      	lsls	r3, r1, #14
     11c:	1ac0      	subs	r0, r0, r3
     11e:	4152      	adcs	r2, r2
     120:	0b43      	lsrs	r3, r0, #13
     122:	428b      	cmp	r3, r1
     124:	d301      	bcc.n	12a <__udivsi3+0x5e>
     126:	034b      	lsls	r3, r1, #13
     128:	1ac0      	subs	r0, r0, r3
     12a:	4152      	adcs	r2, r2
     12c:	0b03      	lsrs	r3, r0, #12
     12e:	428b      	cmp	r3, r1
     130:	d301      	bcc.n	136 <__udivsi3+0x6a>
     132:	030b      	lsls	r3, r1, #12
     134:	1ac0      	subs	r0, r0, r3
     136:	4152      	adcs	r2, r2
     138:	0ac3      	lsrs	r3, r0, #11
     13a:	428b      	cmp	r3, r1
     13c:	d301      	bcc.n	142 <__udivsi3+0x76>
     13e:	02cb      	lsls	r3, r1, #11
     140:	1ac0      	subs	r0, r0, r3
     142:	4152      	adcs	r2, r2
     144:	0a83      	lsrs	r3, r0, #10
     146:	428b      	cmp	r3, r1
     148:	d301      	bcc.n	14e <__udivsi3+0x82>
     14a:	028b      	lsls	r3, r1, #10
     14c:	1ac0      	subs	r0, r0, r3
     14e:	4152      	adcs	r2, r2
     150:	0a43      	lsrs	r3, r0, #9
     152:	428b      	cmp	r3, r1
     154:	d301      	bcc.n	15a <__udivsi3+0x8e>
     156:	024b      	lsls	r3, r1, #9
     158:	1ac0      	subs	r0, r0, r3
     15a:	4152      	adcs	r2, r2
     15c:	0a03      	lsrs	r3, r0, #8
     15e:	428b      	cmp	r3, r1
     160:	d301      	bcc.n	166 <__udivsi3+0x9a>
     162:	020b      	lsls	r3, r1, #8
     164:	1ac0      	subs	r0, r0, r3
     166:	4152      	adcs	r2, r2
     168:	d2cd      	bcs.n	106 <__udivsi3+0x3a>
     16a:	09c3      	lsrs	r3, r0, #7
     16c:	428b      	cmp	r3, r1
     16e:	d301      	bcc.n	174 <__udivsi3+0xa8>
     170:	01cb      	lsls	r3, r1, #7
     172:	1ac0      	subs	r0, r0, r3
     174:	4152      	adcs	r2, r2
     176:	0983      	lsrs	r3, r0, #6
     178:	428b      	cmp	r3, r1
     17a:	d301      	bcc.n	180 <__udivsi3+0xb4>
     17c:	018b      	lsls	r3, r1, #6
     17e:	1ac0      	subs	r0, r0, r3
     180:	4152      	adcs	r2, r2
     182:	0943      	lsrs	r3, r0, #5
     184:	428b      	cmp	r3, r1
     186:	d301      	bcc.n	18c <__udivsi3+0xc0>
     188:	014b      	lsls	r3, r1, #5
     18a:	1ac0      	subs	r0, r0, r3
     18c:	4152      	adcs	r2, r2
     18e:	0903      	lsrs	r3, r0, #4
     190:	428b      	cmp	r3, r1
     192:	d301      	bcc.n	198 <__udivsi3+0xcc>
     194:	010b      	lsls	r3, r1, #4
     196:	1ac0      	subs	r0, r0, r3
     198:	4152      	adcs	r2, r2
     19a:	08c3      	lsrs	r3, r0, #3
     19c:	428b      	cmp	r3, r1
     19e:	d301      	bcc.n	1a4 <__udivsi3+0xd8>
     1a0:	00cb      	lsls	r3, r1, #3
     1a2:	1ac0      	subs	r0, r0, r3
     1a4:	4152      	adcs	r2, r2
     1a6:	0883      	lsrs	r3, r0, #2
     1a8:	428b      	cmp	r3, r1
     1aa:	d301      	bcc.n	1b0 <__udivsi3+0xe4>
     1ac:	008b      	lsls	r3, r1, #2
     1ae:	1ac0      	subs	r0, r0, r3
     1b0:	4152      	adcs	r2, r2
     1b2:	0843      	lsrs	r3, r0, #1
     1b4:	428b      	cmp	r3, r1
     1b6:	d301      	bcc.n	1bc <__udivsi3+0xf0>
     1b8:	004b      	lsls	r3, r1, #1
     1ba:	1ac0      	subs	r0, r0, r3
     1bc:	4152      	adcs	r2, r2
     1be:	1a41      	subs	r1, r0, r1
     1c0:	d200      	bcs.n	1c4 <__udivsi3+0xf8>
     1c2:	4601      	mov	r1, r0
     1c4:	4152      	adcs	r2, r2
     1c6:	4610      	mov	r0, r2
     1c8:	4770      	bx	lr
     1ca:	e7ff      	b.n	1cc <__udivsi3+0x100>
     1cc:	b501      	push	{r0, lr}
     1ce:	2000      	movs	r0, #0
     1d0:	f000 f8f0 	bl	3b4 <__aeabi_idiv0>
     1d4:	bd02      	pop	{r1, pc}
     1d6:	46c0      	nop			; (mov r8, r8)

000001d8 <__aeabi_uidivmod>:
__aeabi_uidivmod():
     1d8:	2900      	cmp	r1, #0
     1da:	d0f7      	beq.n	1cc <__udivsi3+0x100>
     1dc:	e776      	b.n	cc <__udivsi3>
     1de:	4770      	bx	lr

000001e0 <__divsi3>:
__divsi3():
     1e0:	4603      	mov	r3, r0
     1e2:	430b      	orrs	r3, r1
     1e4:	d47f      	bmi.n	2e6 <__divsi3+0x106>
     1e6:	2200      	movs	r2, #0
     1e8:	0843      	lsrs	r3, r0, #1
     1ea:	428b      	cmp	r3, r1
     1ec:	d374      	bcc.n	2d8 <__divsi3+0xf8>
     1ee:	0903      	lsrs	r3, r0, #4
     1f0:	428b      	cmp	r3, r1
     1f2:	d35f      	bcc.n	2b4 <__divsi3+0xd4>
     1f4:	0a03      	lsrs	r3, r0, #8
     1f6:	428b      	cmp	r3, r1
     1f8:	d344      	bcc.n	284 <__divsi3+0xa4>
     1fa:	0b03      	lsrs	r3, r0, #12
     1fc:	428b      	cmp	r3, r1
     1fe:	d328      	bcc.n	252 <__divsi3+0x72>
     200:	0c03      	lsrs	r3, r0, #16
     202:	428b      	cmp	r3, r1
     204:	d30d      	bcc.n	222 <__divsi3+0x42>
     206:	22ff      	movs	r2, #255	; 0xff
     208:	0209      	lsls	r1, r1, #8
     20a:	ba12      	rev	r2, r2
     20c:	0c03      	lsrs	r3, r0, #16
     20e:	428b      	cmp	r3, r1
     210:	d302      	bcc.n	218 <__divsi3+0x38>
     212:	1212      	asrs	r2, r2, #8
     214:	0209      	lsls	r1, r1, #8
     216:	d065      	beq.n	2e4 <__divsi3+0x104>
     218:	0b03      	lsrs	r3, r0, #12
     21a:	428b      	cmp	r3, r1
     21c:	d319      	bcc.n	252 <__divsi3+0x72>
     21e:	e000      	b.n	222 <__divsi3+0x42>
     220:	0a09      	lsrs	r1, r1, #8
     222:	0bc3      	lsrs	r3, r0, #15
     224:	428b      	cmp	r3, r1
     226:	d301      	bcc.n	22c <__divsi3+0x4c>
     228:	03cb      	lsls	r3, r1, #15
     22a:	1ac0      	subs	r0, r0, r3
     22c:	4152      	adcs	r2, r2
     22e:	0b83      	lsrs	r3, r0, #14
     230:	428b      	cmp	r3, r1
     232:	d301      	bcc.n	238 <__divsi3+0x58>
     234:	038b      	lsls	r3, r1, #14
     236:	1ac0      	subs	r0, r0, r3
     238:	4152      	adcs	r2, r2
     23a:	0b43      	lsrs	r3, r0, #13
     23c:	428b      	cmp	r3, r1
     23e:	d301      	bcc.n	244 <__divsi3+0x64>
     240:	034b      	lsls	r3, r1, #13
     242:	1ac0      	subs	r0, r0, r3
     244:	4152      	adcs	r2, r2
     246:	0b03      	lsrs	r3, r0, #12
     248:	428b      	cmp	r3, r1
     24a:	d301      	bcc.n	250 <__divsi3+0x70>
     24c:	030b      	lsls	r3, r1, #12
     24e:	1ac0      	subs	r0, r0, r3
     250:	4152      	adcs	r2, r2
     252:	0ac3      	lsrs	r3, r0, #11
     254:	428b      	cmp	r3, r1
     256:	d301      	bcc.n	25c <__divsi3+0x7c>
     258:	02cb      	lsls	r3, r1, #11
     25a:	1ac0      	subs	r0, r0, r3
     25c:	4152      	adcs	r2, r2
     25e:	0a83      	lsrs	r3, r0, #10
     260:	428b      	cmp	r3, r1
     262:	d301      	bcc.n	268 <__divsi3+0x88>
     264:	028b      	lsls	r3, r1, #10
     266:	1ac0      	subs	r0, r0, r3
     268:	4152      	adcs	r2, r2
     26a:	0a43      	lsrs	r3, r0, #9
     26c:	428b      	cmp	r3, r1
     26e:	d301      	bcc.n	274 <__divsi3+0x94>
     270:	024b      	lsls	r3, r1, #9
     272:	1ac0      	subs	r0, r0, r3
     274:	4152      	adcs	r2, r2
     276:	0a03      	lsrs	r3, r0, #8
     278:	428b      	cmp	r3, r1
     27a:	d301      	bcc.n	280 <__divsi3+0xa0>
     27c:	020b      	lsls	r3, r1, #8
     27e:	1ac0      	subs	r0, r0, r3
     280:	4152      	adcs	r2, r2
     282:	d2cd      	bcs.n	220 <__divsi3+0x40>
     284:	09c3      	lsrs	r3, r0, #7
     286:	428b      	cmp	r3, r1
     288:	d301      	bcc.n	28e <__divsi3+0xae>
     28a:	01cb      	lsls	r3, r1, #7
     28c:	1ac0      	subs	r0, r0, r3
     28e:	4152      	adcs	r2, r2
     290:	0983      	lsrs	r3, r0, #6
     292:	428b      	cmp	r3, r1
     294:	d301      	bcc.n	29a <__divsi3+0xba>
     296:	018b      	lsls	r3, r1, #6
     298:	1ac0      	subs	r0, r0, r3
     29a:	4152      	adcs	r2, r2
     29c:	0943      	lsrs	r3, r0, #5
     29e:	428b      	cmp	r3, r1
     2a0:	d301      	bcc.n	2a6 <__divsi3+0xc6>
     2a2:	014b      	lsls	r3, r1, #5
     2a4:	1ac0      	subs	r0, r0, r3
     2a6:	4152      	adcs	r2, r2
     2a8:	0903      	lsrs	r3, r0, #4
     2aa:	428b      	cmp	r3, r1
     2ac:	d301      	bcc.n	2b2 <__divsi3+0xd2>
     2ae:	010b      	lsls	r3, r1, #4
     2b0:	1ac0      	subs	r0, r0, r3
     2b2:	4152      	adcs	r2, r2
     2b4:	08c3      	lsrs	r3, r0, #3
     2b6:	428b      	cmp	r3, r1
     2b8:	d301      	bcc.n	2be <__divsi3+0xde>
     2ba:	00cb      	lsls	r3, r1, #3
     2bc:	1ac0      	subs	r0, r0, r3
     2be:	4152      	adcs	r2, r2
     2c0:	0883      	lsrs	r3, r0, #2
     2c2:	428b      	cmp	r3, r1
     2c4:	d301      	bcc.n	2ca <__divsi3+0xea>
     2c6:	008b      	lsls	r3, r1, #2
     2c8:	1ac0      	subs	r0, r0, r3
     2ca:	4152      	adcs	r2, r2
     2cc:	0843      	lsrs	r3, r0, #1
     2ce:	428b      	cmp	r3, r1
     2d0:	d301      	bcc.n	2d6 <__divsi3+0xf6>
     2d2:	004b      	lsls	r3, r1, #1
     2d4:	1ac0      	subs	r0, r0, r3
     2d6:	4152      	adcs	r2, r2
     2d8:	1a41      	subs	r1, r0, r1
     2da:	d200      	bcs.n	2de <__divsi3+0xfe>
     2dc:	4601      	mov	r1, r0
     2de:	4152      	adcs	r2, r2
     2e0:	4610      	mov	r0, r2
     2e2:	4770      	bx	lr
     2e4:	e05d      	b.n	3a2 <__divsi3+0x1c2>
     2e6:	0fca      	lsrs	r2, r1, #31
     2e8:	d000      	beq.n	2ec <__divsi3+0x10c>
     2ea:	4249      	negs	r1, r1
     2ec:	1003      	asrs	r3, r0, #32
     2ee:	d300      	bcc.n	2f2 <__divsi3+0x112>
     2f0:	4240      	negs	r0, r0
     2f2:	4053      	eors	r3, r2
     2f4:	2200      	movs	r2, #0
     2f6:	469c      	mov	ip, r3
     2f8:	0903      	lsrs	r3, r0, #4
     2fa:	428b      	cmp	r3, r1
     2fc:	d32d      	bcc.n	35a <__divsi3+0x17a>
     2fe:	0a03      	lsrs	r3, r0, #8
     300:	428b      	cmp	r3, r1
     302:	d312      	bcc.n	32a <__divsi3+0x14a>
     304:	22fc      	movs	r2, #252	; 0xfc
     306:	0189      	lsls	r1, r1, #6
     308:	ba12      	rev	r2, r2
     30a:	0a03      	lsrs	r3, r0, #8
     30c:	428b      	cmp	r3, r1
     30e:	d30c      	bcc.n	32a <__divsi3+0x14a>
     310:	0189      	lsls	r1, r1, #6
     312:	1192      	asrs	r2, r2, #6
     314:	428b      	cmp	r3, r1
     316:	d308      	bcc.n	32a <__divsi3+0x14a>
     318:	0189      	lsls	r1, r1, #6
     31a:	1192      	asrs	r2, r2, #6
     31c:	428b      	cmp	r3, r1
     31e:	d304      	bcc.n	32a <__divsi3+0x14a>
     320:	0189      	lsls	r1, r1, #6
     322:	d03a      	beq.n	39a <__divsi3+0x1ba>
     324:	1192      	asrs	r2, r2, #6
     326:	e000      	b.n	32a <__divsi3+0x14a>
     328:	0989      	lsrs	r1, r1, #6
     32a:	09c3      	lsrs	r3, r0, #7
     32c:	428b      	cmp	r3, r1
     32e:	d301      	bcc.n	334 <__divsi3+0x154>
     330:	01cb      	lsls	r3, r1, #7
     332:	1ac0      	subs	r0, r0, r3
     334:	4152      	adcs	r2, r2
     336:	0983      	lsrs	r3, r0, #6
     338:	428b      	cmp	r3, r1
     33a:	d301      	bcc.n	340 <__divsi3+0x160>
     33c:	018b      	lsls	r3, r1, #6
     33e:	1ac0      	subs	r0, r0, r3
     340:	4152      	adcs	r2, r2
     342:	0943      	lsrs	r3, r0, #5
     344:	428b      	cmp	r3, r1
     346:	d301      	bcc.n	34c <__divsi3+0x16c>
     348:	014b      	lsls	r3, r1, #5
     34a:	1ac0      	subs	r0, r0, r3
     34c:	4152      	adcs	r2, r2
     34e:	0903      	lsrs	r3, r0, #4
     350:	428b      	cmp	r3, r1
     352:	d301      	bcc.n	358 <__divsi3+0x178>
     354:	010b      	lsls	r3, r1, #4
     356:	1ac0      	subs	r0, r0, r3
     358:	4152      	adcs	r2, r2
     35a:	08c3      	lsrs	r3, r0, #3
     35c:	428b      	cmp	r3, r1
     35e:	d301      	bcc.n	364 <__divsi3+0x184>
     360:	00cb      	lsls	r3, r1, #3
     362:	1ac0      	subs	r0, r0, r3
     364:	4152      	adcs	r2, r2
     366:	0883      	lsrs	r3, r0, #2
     368:	428b      	cmp	r3, r1
     36a:	d301      	bcc.n	370 <__divsi3+0x190>
     36c:	008b      	lsls	r3, r1, #2
     36e:	1ac0      	subs	r0, r0, r3
     370:	4152      	adcs	r2, r2
     372:	d2d9      	bcs.n	328 <__divsi3+0x148>
     374:	0843      	lsrs	r3, r0, #1
     376:	428b      	cmp	r3, r1
     378:	d301      	bcc.n	37e <__divsi3+0x19e>
     37a:	004b      	lsls	r3, r1, #1
     37c:	1ac0      	subs	r0, r0, r3
     37e:	4152      	adcs	r2, r2
     380:	1a41      	subs	r1, r0, r1
     382:	d200      	bcs.n	386 <__divsi3+0x1a6>
     384:	4601      	mov	r1, r0
     386:	4663      	mov	r3, ip
     388:	4152      	adcs	r2, r2
     38a:	105b      	asrs	r3, r3, #1
     38c:	4610      	mov	r0, r2
     38e:	d301      	bcc.n	394 <__divsi3+0x1b4>
     390:	4240      	negs	r0, r0
     392:	2b00      	cmp	r3, #0
     394:	d500      	bpl.n	398 <__divsi3+0x1b8>
     396:	4249      	negs	r1, r1
     398:	4770      	bx	lr
     39a:	4663      	mov	r3, ip
     39c:	105b      	asrs	r3, r3, #1
     39e:	d300      	bcc.n	3a2 <__divsi3+0x1c2>
     3a0:	4240      	negs	r0, r0
     3a2:	b501      	push	{r0, lr}
     3a4:	2000      	movs	r0, #0
     3a6:	f000 f805 	bl	3b4 <__aeabi_idiv0>
     3aa:	bd02      	pop	{r1, pc}

000003ac <__aeabi_idivmod>:
__aeabi_idivmod():
     3ac:	2900      	cmp	r1, #0
     3ae:	d0f8      	beq.n	3a2 <__divsi3+0x1c2>
     3b0:	e716      	b.n	1e0 <__divsi3>
     3b2:	4770      	bx	lr

000003b4 <__aeabi_idiv0>:
__aeabi_ldiv0():
     3b4:	4770      	bx	lr
     3b6:	46c0      	nop			; (mov r8, r8)

000003b8 <BulkThirteen>:
BulkThirteen():
C:\Users\alon\Desktop\github\iot-fan_at_cnblogs\CH577_CH578_CH579\AN\CH579EVT_USB_DISK_TEST\BLE\ch57x_ble_uart_mrs_app_only_test\obj/../app/ch57x_usb_device_msc.c:255

/***************************************************************/
//BLOCK ONLY  The Thirteen Cases

void BulkThirteen(unsigned char Case)
{
     3b8:	b500      	push	{lr}
     3ba:	280f      	cmp	r0, #15
     3bc:	d80c      	bhi.n	3d8 <BulkThirteen+0x20>
     3be:	4b18      	ldr	r3, [pc, #96]	; (420 <_Min_Heap_Size+0x20>)
     3c0:	f7ff fe70 	bl	a4 <__gnu_thumb1_case_uqi>
     3c4:	0b0b0808 	.word	0x0b0b0808
     3c8:	0b082a2a 	.word	0x0b082a2a
     3cc:	151e150b 	.word	0x151e150b
     3d0:	2a1e1e08 	.word	0x2a1e1e08
C:\Users\alon\Desktop\github\iot-fan_at_cnblogs\CH577_CH578_CH579\AN\CH579EVT_USB_DISK_TEST\BLE\ch57x_ble_uart_mrs_app_only_test\obj/../app/ch57x_usb_device_msc.c:261
	switch(Case)
	{
		case CASEOK:
		case CASE1:     									/* Hn=Dn*/
		case CASE6:     									/* Hi=Di*/
			BcswStatus = 0;
     3d4:	2200      	movs	r2, #0
C:\Users\alon\Desktop\github\iot-fan_at_cnblogs\CH577_CH578_CH579\AN\CH579EVT_USB_DISK_TEST\BLE\ch57x_ble_uart_mrs_app_only_test\obj/../app/ch57x_usb_device_msc.c:315
			break;

		case CASECMDFAIL:
			R8_UEP1_CTRL = R8_UEP1_CTRL | MASK_UEP_T_RES ;
			FSTALL=1;                                       //ËøôÈáå‰∏ä‰º†Á´ØÁÇπËÆæÁΩÆ‰∏Ä‰∏™STALLÔºåÂæÖ‰∏ªÊú∫Ê∏ÖÊéâ
			BcswStatus= 1;
     3d6:	701a      	strb	r2, [r3, #0]
C:\Users\alon\Desktop\github\iot-fan_at_cnblogs\CH577_CH578_CH579\AN\CH579EVT_USB_DISK_TEST\BLE\ch57x_ble_uart_mrs_app_only_test\obj/../app/ch57x_usb_device_msc.c:321
			break;

		default:
			break;
	}
}
     3d8:	bd00      	pop	{pc}
C:\Users\alon\Desktop\github\iot-fan_at_cnblogs\CH577_CH578_CH579\AN\CH579EVT_USB_DISK_TEST\BLE\ch57x_ble_uart_mrs_app_only_test\obj/../app/ch57x_usb_device_msc.c:285
			R8_UEP1_CTRL = R8_UEP1_CTRL | MASK_UEP_T_RES ;
     3da:	2203      	movs	r2, #3
     3dc:	4911      	ldr	r1, [pc, #68]	; (424 <_Min_Heap_Size+0x24>)
     3de:	7808      	ldrb	r0, [r1, #0]
     3e0:	4302      	orrs	r2, r0
     3e2:	700a      	strb	r2, [r1, #0]
C:\Users\alon\Desktop\github\iot-fan_at_cnblogs\CH577_CH578_CH579\AN\CH579EVT_USB_DISK_TEST\BLE\ch57x_ble_uart_mrs_app_only_test\obj/../app/ch57x_usb_device_msc.c:286
			FSTALL=1;										//ËøôÈáå‰∏ä‰º†Á´ØÁÇπËÆæÁΩÆ‰∏Ä‰∏™STALLÔºåÂæÖ‰∏ªÊú∫Ê∏ÖÊéâ
     3e4:	2101      	movs	r1, #1
     3e6:	4a10      	ldr	r2, [pc, #64]	; (428 <_Min_Heap_Size+0x28>)
C:\Users\alon\Desktop\github\iot-fan_at_cnblogs\CH577_CH578_CH579\AN\CH579EVT_USB_DISK_TEST\BLE\ch57x_ble_uart_mrs_app_only_test\obj/../app/ch57x_usb_device_msc.c:308
			R8_UEP1_CTRL = R8_UEP1_CTRL | MASK_UEP_R_RES ;		//ËøôÈáåÁ´ØÁÇπËÆæÁΩÆ‰∏Ä‰∏™STALLÔºåÂæÖ‰∏ªÊú∫Ê∏ÖÊéâ
     3e8:	7011      	strb	r1, [r2, #0]
C:\Users\alon\Desktop\github\iot-fan_at_cnblogs\CH577_CH578_CH579\AN\CH579EVT_USB_DISK_TEST\BLE\ch57x_ble_uart_mrs_app_only_test\obj/../app/ch57x_usb_device_msc.c:309
			BcswStatus = 2;
     3ea:	2202      	movs	r2, #2
     3ec:	e7f3      	b.n	3d6 <BulkThirteen+0x1e>
C:\Users\alon\Desktop\github\iot-fan_at_cnblogs\CH577_CH578_CH579\AN\CH579EVT_USB_DISK_TEST\BLE\ch57x_ble_uart_mrs_app_only_test\obj/../app/ch57x_usb_device_msc.c:292
			R8_UEP1_CTRL = R8_UEP1_CTRL | MASK_UEP_R_RES ;
     3ee:	220c      	movs	r2, #12
     3f0:	490c      	ldr	r1, [pc, #48]	; (424 <_Min_Heap_Size+0x24>)
     3f2:	7808      	ldrb	r0, [r1, #0]
C:\Users\alon\Desktop\github\iot-fan_at_cnblogs\CH577_CH578_CH579\AN\CH579EVT_USB_DISK_TEST\BLE\ch57x_ble_uart_mrs_app_only_test\obj/../app/ch57x_usb_device_msc.c:313
			R8_UEP1_CTRL = R8_UEP1_CTRL | MASK_UEP_T_RES ;
     3f4:	4302      	orrs	r2, r0
     3f6:	700a      	strb	r2, [r1, #0]
C:\Users\alon\Desktop\github\iot-fan_at_cnblogs\CH577_CH578_CH579\AN\CH579EVT_USB_DISK_TEST\BLE\ch57x_ble_uart_mrs_app_only_test\obj/../app/ch57x_usb_device_msc.c:314
			FSTALL=1;                                       //ËøôÈáå‰∏ä‰º†Á´ØÁÇπËÆæÁΩÆ‰∏Ä‰∏™STALLÔºåÂæÖ‰∏ªÊú∫Ê∏ÖÊéâ
     3f8:	2201      	movs	r2, #1
     3fa:	490b      	ldr	r1, [pc, #44]	; (428 <_Min_Heap_Size+0x28>)
     3fc:	700a      	strb	r2, [r1, #0]
     3fe:	e7ea      	b.n	3d6 <BulkThirteen+0x1e>
C:\Users\alon\Desktop\github\iot-fan_at_cnblogs\CH577_CH578_CH579\AN\CH579EVT_USB_DISK_TEST\BLE\ch57x_ble_uart_mrs_app_only_test\obj/../app/ch57x_usb_device_msc.c:306
			R8_UEP1_CTRL = R8_UEP1_CTRL | MASK_UEP_T_RES ;
     400:	2103      	movs	r1, #3
     402:	4a08      	ldr	r2, [pc, #32]	; (424 <_Min_Heap_Size+0x24>)
     404:	7810      	ldrb	r0, [r2, #0]
     406:	4301      	orrs	r1, r0
C:\Users\alon\Desktop\github\iot-fan_at_cnblogs\CH577_CH578_CH579\AN\CH579EVT_USB_DISK_TEST\BLE\ch57x_ble_uart_mrs_app_only_test\obj/../app/ch57x_usb_device_msc.c:307
			FSTALL=1;
     408:	2001      	movs	r0, #1
C:\Users\alon\Desktop\github\iot-fan_at_cnblogs\CH577_CH578_CH579\AN\CH579EVT_USB_DISK_TEST\BLE\ch57x_ble_uart_mrs_app_only_test\obj/../app/ch57x_usb_device_msc.c:306
			R8_UEP1_CTRL = R8_UEP1_CTRL | MASK_UEP_T_RES ;
     40a:	7011      	strb	r1, [r2, #0]
C:\Users\alon\Desktop\github\iot-fan_at_cnblogs\CH577_CH578_CH579\AN\CH579EVT_USB_DISK_TEST\BLE\ch57x_ble_uart_mrs_app_only_test\obj/../app/ch57x_usb_device_msc.c:307
			FSTALL=1;
     40c:	4906      	ldr	r1, [pc, #24]	; (428 <_Min_Heap_Size+0x28>)
     40e:	7008      	strb	r0, [r1, #0]
C:\Users\alon\Desktop\github\iot-fan_at_cnblogs\CH577_CH578_CH579\AN\CH579EVT_USB_DISK_TEST\BLE\ch57x_ble_uart_mrs_app_only_test\obj/../app/ch57x_usb_device_msc.c:308
			R8_UEP1_CTRL = R8_UEP1_CTRL | MASK_UEP_R_RES ;		//ËøôÈáåÁ´ØÁÇπËÆæÁΩÆ‰∏Ä‰∏™STALLÔºåÂæÖ‰∏ªÊú∫Ê∏ÖÊéâ
     410:	210c      	movs	r1, #12
     412:	7810      	ldrb	r0, [r2, #0]
     414:	4301      	orrs	r1, r0
     416:	e7e7      	b.n	3e8 <BulkThirteen+0x30>
C:\Users\alon\Desktop\github\iot-fan_at_cnblogs\CH577_CH578_CH579\AN\CH579EVT_USB_DISK_TEST\BLE\ch57x_ble_uart_mrs_app_only_test\obj/../app/ch57x_usb_device_msc.c:313
			R8_UEP1_CTRL = R8_UEP1_CTRL | MASK_UEP_T_RES ;
     418:	4902      	ldr	r1, [pc, #8]	; (424 <_Min_Heap_Size+0x24>)
     41a:	2203      	movs	r2, #3
     41c:	7808      	ldrb	r0, [r1, #0]
     41e:	e7e9      	b.n	3f4 <BulkThirteen+0x3c>
     420:	20004080 	.word	0x20004080
     424:	40008026 	.word	0x40008026
     428:	20004148 	.word	0x20004148

0000042c <UFI_modeSense.part.0>:
UFI_modeSense():
C:\Users\alon\Desktop\github\iot-fan_at_cnblogs\CH577_CH578_CH579\AN\CH579EVT_USB_DISK_TEST\BLE\ch57x_ble_uart_mrs_app_only_test\obj/../app/ch57x_usb_device_msc.c:372
		mSenseKey=0;
		mASC=0;
	}
	else 
	{
		CH375BULKUP=0;
     42c:	2200      	movs	r2, #0
     42e:	4b08      	ldr	r3, [pc, #32]	; (450 <UFI_modeSense.part.0+0x24>)
C:\Users\alon\Desktop\github\iot-fan_at_cnblogs\CH577_CH578_CH579\AN\CH579EVT_USB_DISK_TEST\BLE\ch57x_ble_uart_mrs_app_only_test\obj/../app/ch57x_usb_device_msc.c:359
void UFI_modeSense(void )
     430:	b510      	push	{r4, lr}
C:\Users\alon\Desktop\github\iot-fan_at_cnblogs\CH577_CH578_CH579\AN\CH579EVT_USB_DISK_TEST\BLE\ch57x_ble_uart_mrs_app_only_test\obj/../app/ch57x_usb_device_msc.c:372
		CH375BULKUP=0;
     432:	701a      	strb	r2, [r3, #0]
C:\Users\alon\Desktop\github\iot-fan_at_cnblogs\CH577_CH578_CH579\AN\CH579EVT_USB_DISK_TEST\BLE\ch57x_ble_uart_mrs_app_only_test\obj/../app/ch57x_usb_device_msc.c:373
		mSenseKey=5;
     434:	4b07      	ldr	r3, [pc, #28]	; (454 <UFI_modeSense.part.0+0x28>)
     436:	3205      	adds	r2, #5
     438:	701a      	strb	r2, [r3, #0]
C:\Users\alon\Desktop\github\iot-fan_at_cnblogs\CH577_CH578_CH579\AN\CH579EVT_USB_DISK_TEST\BLE\ch57x_ble_uart_mrs_app_only_test\obj/../app/ch57x_usb_device_msc.c:374
		mASC=0x20;
     43a:	4b07      	ldr	r3, [pc, #28]	; (458 <UFI_modeSense.part.0+0x2c>)
     43c:	321b      	adds	r2, #27
     43e:	701a      	strb	r2, [r3, #0]
C:\Users\alon\Desktop\github\iot-fan_at_cnblogs\CH577_CH578_CH579\AN\CH579EVT_USB_DISK_TEST\BLE\ch57x_ble_uart_mrs_app_only_test\obj/../app/ch57x_usb_device_msc.c:376

		BcswStatus=1;
     440:	4b06      	ldr	r3, [pc, #24]	; (45c <UFI_modeSense.part.0+0x30>)
     442:	3a1f      	subs	r2, #31
C:\Users\alon\Desktop\github\iot-fan_at_cnblogs\CH577_CH578_CH579\AN\CH579EVT_USB_DISK_TEST\BLE\ch57x_ble_uart_mrs_app_only_test\obj/../app/ch57x_usb_device_msc.c:377
		BulkThirteen(CASECMDFAIL);
     444:	200f      	movs	r0, #15
C:\Users\alon\Desktop\github\iot-fan_at_cnblogs\CH577_CH578_CH579\AN\CH579EVT_USB_DISK_TEST\BLE\ch57x_ble_uart_mrs_app_only_test\obj/../app/ch57x_usb_device_msc.c:376
		BcswStatus=1;
     446:	701a      	strb	r2, [r3, #0]
C:\Users\alon\Desktop\github\iot-fan_at_cnblogs\CH577_CH578_CH579\AN\CH579EVT_USB_DISK_TEST\BLE\ch57x_ble_uart_mrs_app_only_test\obj/../app/ch57x_usb_device_msc.c:377
		BulkThirteen(CASECMDFAIL);
     448:	f7ff ffb6 	bl	3b8 <BulkThirteen>
C:\Users\alon\Desktop\github\iot-fan_at_cnblogs\CH577_CH578_CH579\AN\CH579EVT_USB_DISK_TEST\BLE\ch57x_ble_uart_mrs_app_only_test\obj/../app/ch57x_usb_device_msc.c:379
	}
}
     44c:	bd10      	pop	{r4, pc}
     44e:	46c0      	nop			; (mov r8, r8)
     450:	20004082 	.word	0x20004082
     454:	200041da 	.word	0x200041da
     458:	200041d9 	.word	0x200041d9
     45c:	20004080 	.word	0x20004080

00000460 <UFI_readCapacity>:
UFI_readCapacity():
C:\Users\alon\Desktop\github\iot-fan_at_cnblogs\CH577_CH578_CH579\AN\CH579EVT_USB_DISK_TEST\BLE\ch57x_ble_uart_mrs_app_only_test\obj/../app/ch57x_usb_device_msc.c:326
	if ( LEN.mDataLength > sizeof(DBCAPACITY) ) LEN.mDataLength = sizeof(DBCAPACITY);
     460:	4b08      	ldr	r3, [pc, #32]	; (484 <UFI_readCapacity+0x24>)
     462:	681a      	ldr	r2, [r3, #0]
     464:	2a08      	cmp	r2, #8
     466:	d901      	bls.n	46c <UFI_readCapacity+0xc>
C:\Users\alon\Desktop\github\iot-fan_at_cnblogs\CH577_CH578_CH579\AN\CH579EVT_USB_DISK_TEST\BLE\ch57x_ble_uart_mrs_app_only_test\obj/../app/ch57x_usb_device_msc.c:326 (discriminator 1)
     468:	2208      	movs	r2, #8
     46a:	601a      	str	r2, [r3, #0]
C:\Users\alon\Desktop\github\iot-fan_at_cnblogs\CH577_CH578_CH579\AN\CH579EVT_USB_DISK_TEST\BLE\ch57x_ble_uart_mrs_app_only_test\obj/../app/ch57x_usb_device_msc.c:327
	pBuf=(unsigned char*)DBCAPACITY;	
     46c:	4b06      	ldr	r3, [pc, #24]	; (488 <UFI_readCapacity+0x28>)
     46e:	4a07      	ldr	r2, [pc, #28]	; (48c <UFI_readCapacity+0x2c>)
     470:	601a      	str	r2, [r3, #0]
C:\Users\alon\Desktop\github\iot-fan_at_cnblogs\CH577_CH578_CH579\AN\CH579EVT_USB_DISK_TEST\BLE\ch57x_ble_uart_mrs_app_only_test\obj/../app/ch57x_usb_device_msc.c:328
	BcswStatus=0;
     472:	2300      	movs	r3, #0
     474:	4a06      	ldr	r2, [pc, #24]	; (490 <UFI_readCapacity+0x30>)
     476:	7013      	strb	r3, [r2, #0]
C:\Users\alon\Desktop\github\iot-fan_at_cnblogs\CH577_CH578_CH579\AN\CH579EVT_USB_DISK_TEST\BLE\ch57x_ble_uart_mrs_app_only_test\obj/../app/ch57x_usb_device_msc.c:329
	mSenseKey=0;
     478:	4a06      	ldr	r2, [pc, #24]	; (494 <UFI_readCapacity+0x34>)
     47a:	7013      	strb	r3, [r2, #0]
C:\Users\alon\Desktop\github\iot-fan_at_cnblogs\CH577_CH578_CH579\AN\CH579EVT_USB_DISK_TEST\BLE\ch57x_ble_uart_mrs_app_only_test\obj/../app/ch57x_usb_device_msc.c:330
	mASC=0;
     47c:	4a06      	ldr	r2, [pc, #24]	; (498 <UFI_readCapacity+0x38>)
     47e:	7013      	strb	r3, [r2, #0]
C:\Users\alon\Desktop\github\iot-fan_at_cnblogs\CH577_CH578_CH579\AN\CH579EVT_USB_DISK_TEST\BLE\ch57x_ble_uart_mrs_app_only_test\obj/../app/ch57x_usb_device_msc.c:331
}
     480:	4770      	bx	lr
     482:	46c0      	nop			; (mov r8, r8)
     484:	2000414c 	.word	0x2000414c
     488:	200041e0 	.word	0x200041e0
     48c:	00004a48 	.word	0x00004a48
     490:	20004080 	.word	0x20004080
     494:	200041da 	.word	0x200041da
     498:	200041d9 	.word	0x200041d9

0000049c <UFI_inquiry>:
UFI_inquiry():
C:\Users\alon\Desktop\github\iot-fan_at_cnblogs\CH577_CH578_CH579\AN\CH579EVT_USB_DISK_TEST\BLE\ch57x_ble_uart_mrs_app_only_test\obj/../app/ch57x_usb_device_msc.c:335
	pBuf = (unsigned char*)DBINQUITY;					////Êü•ËØ¢UÁõò‰ø°ÊÅØ
     49c:	4b08      	ldr	r3, [pc, #32]	; (4c0 <UFI_inquiry+0x24>)
     49e:	4a09      	ldr	r2, [pc, #36]	; (4c4 <UFI_inquiry+0x28>)
     4a0:	601a      	str	r2, [r3, #0]
C:\Users\alon\Desktop\github\iot-fan_at_cnblogs\CH577_CH578_CH579\AN\CH579EVT_USB_DISK_TEST\BLE\ch57x_ble_uart_mrs_app_only_test\obj/../app/ch57x_usb_device_msc.c:336
	if(LEN.mDataLength>36) LEN.mDataLength=36;
     4a2:	4b09      	ldr	r3, [pc, #36]	; (4c8 <UFI_inquiry+0x2c>)
     4a4:	681a      	ldr	r2, [r3, #0]
     4a6:	2a24      	cmp	r2, #36	; 0x24
     4a8:	d901      	bls.n	4ae <UFI_inquiry+0x12>
C:\Users\alon\Desktop\github\iot-fan_at_cnblogs\CH577_CH578_CH579\AN\CH579EVT_USB_DISK_TEST\BLE\ch57x_ble_uart_mrs_app_only_test\obj/../app/ch57x_usb_device_msc.c:336 (discriminator 1)
     4aa:	2224      	movs	r2, #36	; 0x24
     4ac:	601a      	str	r2, [r3, #0]
C:\Users\alon\Desktop\github\iot-fan_at_cnblogs\CH577_CH578_CH579\AN\CH579EVT_USB_DISK_TEST\BLE\ch57x_ble_uart_mrs_app_only_test\obj/../app/ch57x_usb_device_msc.c:337
	BcswStatus=0;
     4ae:	2300      	movs	r3, #0
     4b0:	4a06      	ldr	r2, [pc, #24]	; (4cc <UFI_inquiry+0x30>)
     4b2:	7013      	strb	r3, [r2, #0]
C:\Users\alon\Desktop\github\iot-fan_at_cnblogs\CH577_CH578_CH579\AN\CH579EVT_USB_DISK_TEST\BLE\ch57x_ble_uart_mrs_app_only_test\obj/../app/ch57x_usb_device_msc.c:338
	mSenseKey=0;
     4b4:	4a06      	ldr	r2, [pc, #24]	; (4d0 <UFI_inquiry+0x34>)
     4b6:	7013      	strb	r3, [r2, #0]
C:\Users\alon\Desktop\github\iot-fan_at_cnblogs\CH577_CH578_CH579\AN\CH579EVT_USB_DISK_TEST\BLE\ch57x_ble_uart_mrs_app_only_test\obj/../app/ch57x_usb_device_msc.c:339
	mASC=0;
     4b8:	4a06      	ldr	r2, [pc, #24]	; (4d4 <UFI_inquiry+0x38>)
     4ba:	7013      	strb	r3, [r2, #0]
C:\Users\alon\Desktop\github\iot-fan_at_cnblogs\CH577_CH578_CH579\AN\CH579EVT_USB_DISK_TEST\BLE\ch57x_ble_uart_mrs_app_only_test\obj/../app/ch57x_usb_device_msc.c:340
}
     4bc:	4770      	bx	lr
     4be:	46c0      	nop			; (mov r8, r8)
     4c0:	200041e0 	.word	0x200041e0
     4c4:	00004a50 	.word	0x00004a50
     4c8:	2000414c 	.word	0x2000414c
     4cc:	20004080 	.word	0x20004080
     4d0:	200041da 	.word	0x200041da
     4d4:	200041d9 	.word	0x200041d9

000004d8 <UFI_read10>:
UFI_read10():
C:\Users\alon\Desktop\github\iot-fan_at_cnblogs\CH577_CH578_CH579\AN\CH579EVT_USB_DISK_TEST\BLE\ch57x_ble_uart_mrs_app_only_test\obj/../app/ch57x_usb_device_msc.c:345
	LEN.mDataLength=(((UINT32)MassPara.cbw.cbwcb.buf1[7]<<8) | (UINT32)MassPara.cbw.cbwcb.buf1[8])*DISK_SEC_LEN;
     4d8:	490f      	ldr	r1, [pc, #60]	; (518 <UFI_read10+0x40>)
     4da:	4a10      	ldr	r2, [pc, #64]	; (51c <UFI_read10+0x44>)
     4dc:	8acb      	ldrh	r3, [r1, #22]
     4de:	ba5b      	rev16	r3, r3
     4e0:	b29b      	uxth	r3, r3
     4e2:	031b      	lsls	r3, r3, #12
     4e4:	6013      	str	r3, [r2, #0]
C:\Users\alon\Desktop\github\iot-fan_at_cnblogs\CH577_CH578_CH579\AN\CH579EVT_USB_DISK_TEST\BLE\ch57x_ble_uart_mrs_app_only_test\obj/../app/ch57x_usb_device_msc.c:346
	Locate_Addr = ((UINT32)MassPara.cbw.cbwcb.buf1[2]<<24) | ((UINT32)MassPara.cbw.cbwcb.buf1[3]<<16) | ((UINT32)MassPara.cbw.cbwcb.buf1[4]<<8) | (UINT32)MassPara.cbw.cbwcb.buf1[5];
     4e6:	7c8a      	ldrb	r2, [r1, #18]
     4e8:	7c4b      	ldrb	r3, [r1, #17]
     4ea:	0212      	lsls	r2, r2, #8
     4ec:	431a      	orrs	r2, r3
     4ee:	7ccb      	ldrb	r3, [r1, #19]
     4f0:	041b      	lsls	r3, r3, #16
     4f2:	431a      	orrs	r2, r3
     4f4:	7d0b      	ldrb	r3, [r1, #20]
     4f6:	061b      	lsls	r3, r3, #24
     4f8:	4313      	orrs	r3, r2
     4fa:	ba1b      	rev	r3, r3
C:\Users\alon\Desktop\github\iot-fan_at_cnblogs\CH577_CH578_CH579\AN\CH579EVT_USB_DISK_TEST\BLE\ch57x_ble_uart_mrs_app_only_test\obj/../app/ch57x_usb_device_msc.c:348
	Locate_Addr = Locate_Addr*DISK_SEC_LEN;
     4fc:	4a08      	ldr	r2, [pc, #32]	; (520 <UFI_read10+0x48>)
     4fe:	031b      	lsls	r3, r3, #12
     500:	6013      	str	r3, [r2, #0]
C:\Users\alon\Desktop\github\iot-fan_at_cnblogs\CH577_CH578_CH579\AN\CH579EVT_USB_DISK_TEST\BLE\ch57x_ble_uart_mrs_app_only_test\obj/../app/ch57x_usb_device_msc.c:352
	BcswStatus=0;
     502:	2300      	movs	r3, #0
     504:	4a07      	ldr	r2, [pc, #28]	; (524 <UFI_read10+0x4c>)
     506:	7013      	strb	r3, [r2, #0]
C:\Users\alon\Desktop\github\iot-fan_at_cnblogs\CH577_CH578_CH579\AN\CH579EVT_USB_DISK_TEST\BLE\ch57x_ble_uart_mrs_app_only_test\obj/../app/ch57x_usb_device_msc.c:353
	mSenseKey=0;
     508:	4a07      	ldr	r2, [pc, #28]	; (528 <UFI_read10+0x50>)
     50a:	7013      	strb	r3, [r2, #0]
C:\Users\alon\Desktop\github\iot-fan_at_cnblogs\CH577_CH578_CH579\AN\CH579EVT_USB_DISK_TEST\BLE\ch57x_ble_uart_mrs_app_only_test\obj/../app/ch57x_usb_device_msc.c:354
	mASC=0;
     50c:	4a07      	ldr	r2, [pc, #28]	; (52c <UFI_read10+0x54>)
     50e:	7013      	strb	r3, [r2, #0]
C:\Users\alon\Desktop\github\iot-fan_at_cnblogs\CH577_CH578_CH579\AN\CH579EVT_USB_DISK_TEST\BLE\ch57x_ble_uart_mrs_app_only_test\obj/../app/ch57x_usb_device_msc.c:356
	pBuf_ReSelect = 1;
     510:	2201      	movs	r2, #1
     512:	4b07      	ldr	r3, [pc, #28]	; (530 <UFI_read10+0x58>)
     514:	701a      	strb	r2, [r3, #0]
C:\Users\alon\Desktop\github\iot-fan_at_cnblogs\CH577_CH578_CH579\AN\CH579EVT_USB_DISK_TEST\BLE\ch57x_ble_uart_mrs_app_only_test\obj/../app/ch57x_usb_device_msc.c:357
}
     516:	4770      	bx	lr
     518:	20004154 	.word	0x20004154
     51c:	2000414c 	.word	0x2000414c
     520:	20004150 	.word	0x20004150
     524:	20004080 	.word	0x20004080
     528:	200041da 	.word	0x200041da
     52c:	200041d9 	.word	0x200041d9
     530:	200041e4 	.word	0x200041e4

00000534 <UFI_modeSense>:
UFI_modeSense():
C:\Users\alon\Desktop\github\iot-fan_at_cnblogs\CH577_CH578_CH579\AN\CH579EVT_USB_DISK_TEST\BLE\ch57x_ble_uart_mrs_app_only_test\obj/../app/ch57x_usb_device_msc.c:360
{
     534:	b510      	push	{r4, lr}
C:\Users\alon\Desktop\github\iot-fan_at_cnblogs\CH577_CH578_CH579\AN\CH579EVT_USB_DISK_TEST\BLE\ch57x_ble_uart_mrs_app_only_test\obj/../app/ch57x_usb_device_msc.c:362
	if(MassPara.cbw.cbwcb.buf1[2]==0x3F)
     536:	4b0c      	ldr	r3, [pc, #48]	; (568 <UFI_modeSense+0x34>)
     538:	7c5b      	ldrb	r3, [r3, #17]
     53a:	2b3f      	cmp	r3, #63	; 0x3f
     53c:	d110      	bne.n	560 <UFI_modeSense+0x2c>
C:\Users\alon\Desktop\github\iot-fan_at_cnblogs\CH577_CH578_CH579\AN\CH579EVT_USB_DISK_TEST\BLE\ch57x_ble_uart_mrs_app_only_test\obj/../app/ch57x_usb_device_msc.c:364
		if ( LEN.mDataLength > sizeof(modesense3F) ) LEN.mDataLength = sizeof(modesense3F);
     53e:	4b0b      	ldr	r3, [pc, #44]	; (56c <UFI_modeSense+0x38>)
     540:	681a      	ldr	r2, [r3, #0]
     542:	2a0c      	cmp	r2, #12
     544:	d901      	bls.n	54a <UFI_modeSense+0x16>
C:\Users\alon\Desktop\github\iot-fan_at_cnblogs\CH577_CH578_CH579\AN\CH579EVT_USB_DISK_TEST\BLE\ch57x_ble_uart_mrs_app_only_test\obj/../app/ch57x_usb_device_msc.c:364 (discriminator 1)
     546:	220c      	movs	r2, #12
     548:	601a      	str	r2, [r3, #0]
C:\Users\alon\Desktop\github\iot-fan_at_cnblogs\CH577_CH578_CH579\AN\CH579EVT_USB_DISK_TEST\BLE\ch57x_ble_uart_mrs_app_only_test\obj/../app/ch57x_usb_device_msc.c:365
		pBuf = (unsigned char*)modesense3F;
     54a:	4b09      	ldr	r3, [pc, #36]	; (570 <UFI_modeSense+0x3c>)
     54c:	4a09      	ldr	r2, [pc, #36]	; (574 <UFI_modeSense+0x40>)
     54e:	601a      	str	r2, [r3, #0]
C:\Users\alon\Desktop\github\iot-fan_at_cnblogs\CH577_CH578_CH579\AN\CH579EVT_USB_DISK_TEST\BLE\ch57x_ble_uart_mrs_app_only_test\obj/../app/ch57x_usb_device_msc.c:366
		BcswStatus=0;
     550:	2300      	movs	r3, #0
     552:	4a09      	ldr	r2, [pc, #36]	; (578 <UFI_modeSense+0x44>)
     554:	7013      	strb	r3, [r2, #0]
C:\Users\alon\Desktop\github\iot-fan_at_cnblogs\CH577_CH578_CH579\AN\CH579EVT_USB_DISK_TEST\BLE\ch57x_ble_uart_mrs_app_only_test\obj/../app/ch57x_usb_device_msc.c:367
		mSenseKey=0;
     556:	4a09      	ldr	r2, [pc, #36]	; (57c <UFI_modeSense+0x48>)
     558:	7013      	strb	r3, [r2, #0]
C:\Users\alon\Desktop\github\iot-fan_at_cnblogs\CH577_CH578_CH579\AN\CH579EVT_USB_DISK_TEST\BLE\ch57x_ble_uart_mrs_app_only_test\obj/../app/ch57x_usb_device_msc.c:368
		mASC=0;
     55a:	4a09      	ldr	r2, [pc, #36]	; (580 <UFI_modeSense+0x4c>)
     55c:	7013      	strb	r3, [r2, #0]
C:\Users\alon\Desktop\github\iot-fan_at_cnblogs\CH577_CH578_CH579\AN\CH579EVT_USB_DISK_TEST\BLE\ch57x_ble_uart_mrs_app_only_test\obj/../app/ch57x_usb_device_msc.c:379
}
     55e:	bd10      	pop	{r4, pc}
     560:	f7ff ff64 	bl	42c <UFI_modeSense.part.0>
     564:	e7fb      	b.n	55e <UFI_modeSense+0x2a>
     566:	46c0      	nop			; (mov r8, r8)
     568:	20004154 	.word	0x20004154
     56c:	2000414c 	.word	0x2000414c
     570:	200041e0 	.word	0x200041e0
     574:	00004ad5 	.word	0x00004ad5
     578:	20004080 	.word	0x20004080
     57c:	200041da 	.word	0x200041da
     580:	200041d9 	.word	0x200041d9

00000584 <UFI_requestSense>:
UFI_requestSense():
C:\Users\alon\Desktop\github\iot-fan_at_cnblogs\CH577_CH578_CH579\AN\CH579EVT_USB_DISK_TEST\BLE\ch57x_ble_uart_mrs_app_only_test\obj/../app/ch57x_usb_device_msc.c:382

void UFI_requestSense(void )
{
     584:	b570      	push	{r4, r5, r6, lr}
C:\Users\alon\Desktop\github\iot-fan_at_cnblogs\CH577_CH578_CH579\AN\CH579EVT_USB_DISK_TEST\BLE\ch57x_ble_uart_mrs_app_only_test\obj/../app/ch57x_usb_device_msc.c:384
	//ËØ∑Ê±ÇËÆ§ËØÜ
	if ( FSTALL | lastFSTALL ) 
     586:	4c13      	ldr	r4, [pc, #76]	; (5d4 <UFI_requestSense+0x50>)
     588:	4d13      	ldr	r5, [pc, #76]	; (5d8 <UFI_requestSense+0x54>)
     58a:	7826      	ldrb	r6, [r4, #0]
     58c:	782a      	ldrb	r2, [r5, #0]
     58e:	4b13      	ldr	r3, [pc, #76]	; (5dc <UFI_requestSense+0x58>)
     590:	4813      	ldr	r0, [pc, #76]	; (5e0 <UFI_requestSense+0x5c>)
     592:	4914      	ldr	r1, [pc, #80]	; (5e4 <UFI_requestSense+0x60>)
     594:	4332      	orrs	r2, r6
     596:	d015      	beq.n	5c4 <UFI_requestSense+0x40>
C:\Users\alon\Desktop\github\iot-fan_at_cnblogs\CH577_CH578_CH579\AN\CH579EVT_USB_DISK_TEST\BLE\ch57x_ble_uart_mrs_app_only_test\obj/../app/ch57x_usb_device_msc.c:387
	{
		lastFSTALL=FSTALL;
		FSTALL=0;
     598:	2200      	movs	r2, #0
     59a:	7022      	strb	r2, [r4, #0]
C:\Users\alon\Desktop\github\iot-fan_at_cnblogs\CH577_CH578_CH579\AN\CH579EVT_USB_DISK_TEST\BLE\ch57x_ble_uart_mrs_app_only_test\obj/../app/ch57x_usb_device_msc.c:388
		MassPara.Sense.ErrorCode=0x70;
     59c:	2470      	movs	r4, #112	; 0x70
     59e:	801c      	strh	r4, [r3, #0]
C:\Users\alon\Desktop\github\iot-fan_at_cnblogs\CH577_CH578_CH579\AN\CH579EVT_USB_DISK_TEST\BLE\ch57x_ble_uart_mrs_app_only_test\obj/../app/ch57x_usb_device_msc.c:390
		MassPara.Sense.Reserved1=0;
		MassPara.Sense.SenseKey=mSenseKey;
     5a0:	4c11      	ldr	r4, [pc, #68]	; (5e8 <UFI_requestSense+0x64>)
C:\Users\alon\Desktop\github\iot-fan_at_cnblogs\CH577_CH578_CH579\AN\CH579EVT_USB_DISK_TEST\BLE\ch57x_ble_uart_mrs_app_only_test\obj/../app/ch57x_usb_device_msc.c:386
		lastFSTALL=FSTALL;
     5a2:	702e      	strb	r6, [r5, #0]
C:\Users\alon\Desktop\github\iot-fan_at_cnblogs\CH577_CH578_CH579\AN\CH579EVT_USB_DISK_TEST\BLE\ch57x_ble_uart_mrs_app_only_test\obj/../app/ch57x_usb_device_msc.c:390
		MassPara.Sense.SenseKey=mSenseKey;
     5a4:	7824      	ldrb	r4, [r4, #0]
C:\Users\alon\Desktop\github\iot-fan_at_cnblogs\CH577_CH578_CH579\AN\CH579EVT_USB_DISK_TEST\BLE\ch57x_ble_uart_mrs_app_only_test\obj/../app/ch57x_usb_device_msc.c:391
		MassPara.Sense.Information[0]=0;
     5a6:	70da      	strb	r2, [r3, #3]
C:\Users\alon\Desktop\github\iot-fan_at_cnblogs\CH577_CH578_CH579\AN\CH579EVT_USB_DISK_TEST\BLE\ch57x_ble_uart_mrs_app_only_test\obj/../app/ch57x_usb_device_msc.c:390
		MassPara.Sense.SenseKey=mSenseKey;
     5a8:	709c      	strb	r4, [r3, #2]
C:\Users\alon\Desktop\github\iot-fan_at_cnblogs\CH577_CH578_CH579\AN\CH579EVT_USB_DISK_TEST\BLE\ch57x_ble_uart_mrs_app_only_test\obj/../app/ch57x_usb_device_msc.c:392
		MassPara.Sense.Information[1]=0;
     5aa:	24a0      	movs	r4, #160	; 0xa0
     5ac:	0524      	lsls	r4, r4, #20
     5ae:	605c      	str	r4, [r3, #4]
C:\Users\alon\Desktop\github\iot-fan_at_cnblogs\CH577_CH578_CH579\AN\CH579EVT_USB_DISK_TEST\BLE\ch57x_ble_uart_mrs_app_only_test\obj/../app/ch57x_usb_device_msc.c:400
		MassPara.Sense.AddSenseLength=0x0a;
		MassPara.Sense.Reserved2[0]=0;
		MassPara.Sense.Reserved2[1]=0;
		MassPara.Sense.Reserved2[2]=0;
		MassPara.Sense.Reserved2[3]=0;
		MassPara.Sense.AddSenseCode=mASC;
     5b0:	4c0e      	ldr	r4, [pc, #56]	; (5ec <UFI_requestSense+0x68>)
C:\Users\alon\Desktop\github\iot-fan_at_cnblogs\CH577_CH578_CH579\AN\CH579EVT_USB_DISK_TEST\BLE\ch57x_ble_uart_mrs_app_only_test\obj/../app/ch57x_usb_device_msc.c:396
		MassPara.Sense.Reserved2[0]=0;
     5b2:	609a      	str	r2, [r3, #8]
C:\Users\alon\Desktop\github\iot-fan_at_cnblogs\CH577_CH578_CH579\AN\CH579EVT_USB_DISK_TEST\BLE\ch57x_ble_uart_mrs_app_only_test\obj/../app/ch57x_usb_device_msc.c:400
		MassPara.Sense.AddSenseCode=mASC;
     5b4:	7824      	ldrb	r4, [r4, #0]
C:\Users\alon\Desktop\github\iot-fan_at_cnblogs\CH577_CH578_CH579\AN\CH579EVT_USB_DISK_TEST\BLE\ch57x_ble_uart_mrs_app_only_test\obj/../app/ch57x_usb_device_msc.c:401
		MassPara.Sense.AddSenseCodeQua=00;
     5b6:	735a      	strb	r2, [r3, #13]
C:\Users\alon\Desktop\github\iot-fan_at_cnblogs\CH577_CH578_CH579\AN\CH579EVT_USB_DISK_TEST\BLE\ch57x_ble_uart_mrs_app_only_test\obj/../app/ch57x_usb_device_msc.c:400
		MassPara.Sense.AddSenseCode=mASC;
     5b8:	731c      	strb	r4, [r3, #12]
C:\Users\alon\Desktop\github\iot-fan_at_cnblogs\CH577_CH578_CH579\AN\CH579EVT_USB_DISK_TEST\BLE\ch57x_ble_uart_mrs_app_only_test\obj/../app/ch57x_usb_device_msc.c:402
		MassPara.Sense.Reserved3[0]=0;
     5ba:	81da      	strh	r2, [r3, #14]
C:\Users\alon\Desktop\github\iot-fan_at_cnblogs\CH577_CH578_CH579\AN\CH579EVT_USB_DISK_TEST\BLE\ch57x_ble_uart_mrs_app_only_test\obj/../app/ch57x_usb_device_msc.c:429
		MassPara.Sense.Reserved2[3]=0;
		MassPara.Sense.AddSenseCode=0x00;
		MassPara.Sense.AddSenseCodeQua=00;
		MassPara.Sense.Reserved3[0]=0;
		MassPara.Sense.Reserved3[1]=0;
		MassPara.Sense.Reserved3[2]=0;
     5bc:	821a      	strh	r2, [r3, #16]
C:\Users\alon\Desktop\github\iot-fan_at_cnblogs\CH577_CH578_CH579\AN\CH579EVT_USB_DISK_TEST\BLE\ch57x_ble_uart_mrs_app_only_test\obj/../app/ch57x_usb_device_msc.c:431
		MassPara.Sense.Reserved3[3]=0;
		pBuf=MassPara.buf;
     5be:	6003      	str	r3, [r0, #0]
C:\Users\alon\Desktop\github\iot-fan_at_cnblogs\CH577_CH578_CH579\AN\CH579EVT_USB_DISK_TEST\BLE\ch57x_ble_uart_mrs_app_only_test\obj/../app/ch57x_usb_device_msc.c:432
		BcswStatus=0;
     5c0:	700a      	strb	r2, [r1, #0]
C:\Users\alon\Desktop\github\iot-fan_at_cnblogs\CH577_CH578_CH579\AN\CH579EVT_USB_DISK_TEST\BLE\ch57x_ble_uart_mrs_app_only_test\obj/../app/ch57x_usb_device_msc.c:434
	}
}
     5c2:	bd70      	pop	{r4, r5, r6, pc}
C:\Users\alon\Desktop\github\iot-fan_at_cnblogs\CH577_CH578_CH579\AN\CH579EVT_USB_DISK_TEST\BLE\ch57x_ble_uart_mrs_app_only_test\obj/../app/ch57x_usb_device_msc.c:413
		MassPara.Sense.ErrorCode=0x70;
     5c4:	2470      	movs	r4, #112	; 0x70
     5c6:	601c      	str	r4, [r3, #0]
C:\Users\alon\Desktop\github\iot-fan_at_cnblogs\CH577_CH578_CH579\AN\CH579EVT_USB_DISK_TEST\BLE\ch57x_ble_uart_mrs_app_only_test\obj/../app/ch57x_usb_device_msc.c:417
		MassPara.Sense.Information[1]=0;
     5c8:	24a0      	movs	r4, #160	; 0xa0
     5ca:	0524      	lsls	r4, r4, #20
     5cc:	605c      	str	r4, [r3, #4]
C:\Users\alon\Desktop\github\iot-fan_at_cnblogs\CH577_CH578_CH579\AN\CH579EVT_USB_DISK_TEST\BLE\ch57x_ble_uart_mrs_app_only_test\obj/../app/ch57x_usb_device_msc.c:421
		MassPara.Sense.Reserved2[0]=0;
     5ce:	609a      	str	r2, [r3, #8]
C:\Users\alon\Desktop\github\iot-fan_at_cnblogs\CH577_CH578_CH579\AN\CH579EVT_USB_DISK_TEST\BLE\ch57x_ble_uart_mrs_app_only_test\obj/../app/ch57x_usb_device_msc.c:425
		MassPara.Sense.AddSenseCode=0x00;
     5d0:	60da      	str	r2, [r3, #12]
     5d2:	e7f3      	b.n	5bc <UFI_requestSense+0x38>
     5d4:	20004148 	.word	0x20004148
     5d8:	200041d8 	.word	0x200041d8
     5dc:	20004154 	.word	0x20004154
     5e0:	200041e0 	.word	0x200041e0
     5e4:	20004080 	.word	0x20004080
     5e8:	200041da 	.word	0x200041da
     5ec:	200041d9 	.word	0x200041d9

000005f0 <UFI_testUnit>:
UFI_testUnit():
C:\Users\alon\Desktop\github\iot-fan_at_cnblogs\CH577_CH578_CH579\AN\CH579EVT_USB_DISK_TEST\BLE\ch57x_ble_uart_mrs_app_only_test\obj/../app/ch57x_usb_device_msc.c:438

void UFI_testUnit(void )
{
	CH375BULKDOWN=0;
     5f0:	2300      	movs	r3, #0
     5f2:	4a05      	ldr	r2, [pc, #20]	; (608 <UFI_testUnit+0x18>)
     5f4:	7013      	strb	r3, [r2, #0]
C:\Users\alon\Desktop\github\iot-fan_at_cnblogs\CH577_CH578_CH579\AN\CH579EVT_USB_DISK_TEST\BLE\ch57x_ble_uart_mrs_app_only_test\obj/../app/ch57x_usb_device_msc.c:439
	CH375BULKUP=0;
     5f6:	4a05      	ldr	r2, [pc, #20]	; (60c <UFI_testUnit+0x1c>)
     5f8:	7013      	strb	r3, [r2, #0]
C:\Users\alon\Desktop\github\iot-fan_at_cnblogs\CH577_CH578_CH579\AN\CH579EVT_USB_DISK_TEST\BLE\ch57x_ble_uart_mrs_app_only_test\obj/../app/ch57x_usb_device_msc.c:440
	BcswStatus=0;			//ÊµãËØïUÁõòÊòØÂê¶ÂáÜÂ§áÂ•Ω
     5fa:	4a05      	ldr	r2, [pc, #20]	; (610 <UFI_testUnit+0x20>)
     5fc:	7013      	strb	r3, [r2, #0]
C:\Users\alon\Desktop\github\iot-fan_at_cnblogs\CH577_CH578_CH579\AN\CH579EVT_USB_DISK_TEST\BLE\ch57x_ble_uart_mrs_app_only_test\obj/../app/ch57x_usb_device_msc.c:441
	mSenseKey=0;
     5fe:	4a05      	ldr	r2, [pc, #20]	; (614 <UFI_testUnit+0x24>)
     600:	7013      	strb	r3, [r2, #0]
C:\Users\alon\Desktop\github\iot-fan_at_cnblogs\CH577_CH578_CH579\AN\CH579EVT_USB_DISK_TEST\BLE\ch57x_ble_uart_mrs_app_only_test\obj/../app/ch57x_usb_device_msc.c:442
	mASC=0;
     602:	4a05      	ldr	r2, [pc, #20]	; (618 <UFI_testUnit+0x28>)
     604:	7013      	strb	r3, [r2, #0]
C:\Users\alon\Desktop\github\iot-fan_at_cnblogs\CH577_CH578_CH579\AN\CH579EVT_USB_DISK_TEST\BLE\ch57x_ble_uart_mrs_app_only_test\obj/../app/ch57x_usb_device_msc.c:443
}
     606:	4770      	bx	lr
     608:	20004081 	.word	0x20004081
     60c:	20004082 	.word	0x20004082
     610:	20004080 	.word	0x20004080
     614:	200041da 	.word	0x200041da
     618:	200041d9 	.word	0x200041d9

0000061c <UFI_perOrMed>:
UFI_perOrMed():
C:\Users\alon\Desktop\github\iot-fan_at_cnblogs\CH577_CH578_CH579\AN\CH579EVT_USB_DISK_TEST\BLE\ch57x_ble_uart_mrs_app_only_test\obj/../app/ch57x_usb_device_msc.c:446
void UFI_perOrMed(void )   //ÂÖÅËÆ∏ÁßªÂá∫Á£ÅÁõò
{				
	BcswStatus=0;
     61c:	2300      	movs	r3, #0
     61e:	4a03      	ldr	r2, [pc, #12]	; (62c <UFI_perOrMed+0x10>)
     620:	7013      	strb	r3, [r2, #0]
C:\Users\alon\Desktop\github\iot-fan_at_cnblogs\CH577_CH578_CH579\AN\CH579EVT_USB_DISK_TEST\BLE\ch57x_ble_uart_mrs_app_only_test\obj/../app/ch57x_usb_device_msc.c:447
	mSenseKey=0;
     622:	4a03      	ldr	r2, [pc, #12]	; (630 <UFI_perOrMed+0x14>)
     624:	7013      	strb	r3, [r2, #0]
C:\Users\alon\Desktop\github\iot-fan_at_cnblogs\CH577_CH578_CH579\AN\CH579EVT_USB_DISK_TEST\BLE\ch57x_ble_uart_mrs_app_only_test\obj/../app/ch57x_usb_device_msc.c:448
	mASC=0;
     626:	4a03      	ldr	r2, [pc, #12]	; (634 <UFI_perOrMed+0x18>)
     628:	7013      	strb	r3, [r2, #0]
C:\Users\alon\Desktop\github\iot-fan_at_cnblogs\CH577_CH578_CH579\AN\CH579EVT_USB_DISK_TEST\BLE\ch57x_ble_uart_mrs_app_only_test\obj/../app/ch57x_usb_device_msc.c:449
}
     62a:	4770      	bx	lr
     62c:	20004080 	.word	0x20004080
     630:	200041da 	.word	0x200041da
     634:	200041d9 	.word	0x200041d9

00000638 <UFI_write>:
UFI_write():
C:\Users\alon\Desktop\github\iot-fan_at_cnblogs\CH577_CH578_CH579\AN\CH579EVT_USB_DISK_TEST\BLE\ch57x_ble_uart_mrs_app_only_test\obj/../app/ch57x_usb_device_msc.c:452

void UFI_write(void )
{
     638:	b570      	push	{r4, r5, r6, lr}
C:\Users\alon\Desktop\github\iot-fan_at_cnblogs\CH577_CH578_CH579\AN\CH579EVT_USB_DISK_TEST\BLE\ch57x_ble_uart_mrs_app_only_test\obj/../app/ch57x_usb_device_msc.c:462
	//Êì¶Èô§
	num = MassPara.cbw.cbwcb.buf1[8];   //ÂæÖÂÜôÊâáÂå∫Êï∞
	
	#ifdef EXTERNAL_FLASH
    // const sfud_flash *flash = sfud_get_device_table() + 0;
	for(i=0;i<num;i++){
     63a:	2600      	movs	r6, #0
C:\Users\alon\Desktop\github\iot-fan_at_cnblogs\CH577_CH578_CH579\AN\CH579EVT_USB_DISK_TEST\BLE\ch57x_ble_uart_mrs_app_only_test\obj/../app/ch57x_usb_device_msc.c:454
	LEN.mDataLength=(((UINT32)MassPara.cbw.cbwcb.buf1[7]<<8) | (UINT32)MassPara.cbw.cbwcb.buf1[8])*DISK_SEC_LEN;		//ÂÜôÊï∞ÊçÆÈïøÂ∫¶
     63c:	4a13      	ldr	r2, [pc, #76]	; (68c <UFI_write+0x54>)
     63e:	4914      	ldr	r1, [pc, #80]	; (690 <UFI_write+0x58>)
     640:	8ad3      	ldrh	r3, [r2, #22]
     642:	7dd4      	ldrb	r4, [r2, #23]
     644:	ba5b      	rev16	r3, r3
     646:	b29b      	uxth	r3, r3
     648:	031b      	lsls	r3, r3, #12
     64a:	600b      	str	r3, [r1, #0]
C:\Users\alon\Desktop\github\iot-fan_at_cnblogs\CH577_CH578_CH579\AN\CH579EVT_USB_DISK_TEST\BLE\ch57x_ble_uart_mrs_app_only_test\obj/../app/ch57x_usb_device_msc.c:455
	Locate_Addr = ((UINT32)MassPara.cbw.cbwcb.buf1[2]<<24) | ((UINT32)MassPara.cbw.cbwcb.buf1[3]<<16) | ((UINT32)MassPara.cbw.cbwcb.buf1[4]<<8) | (UINT32)MassPara.cbw.cbwcb.buf1[5];
     64c:	7c91      	ldrb	r1, [r2, #18]
     64e:	7c53      	ldrb	r3, [r2, #17]
     650:	0209      	lsls	r1, r1, #8
     652:	4319      	orrs	r1, r3
     654:	7cd3      	ldrb	r3, [r2, #19]
C:\Users\alon\Desktop\github\iot-fan_at_cnblogs\CH577_CH578_CH579\AN\CH579EVT_USB_DISK_TEST\BLE\ch57x_ble_uart_mrs_app_only_test\obj/../app/ch57x_usb_device_msc.c:456
	Locate_Addr = Locate_Addr*DISK_SEC_LEN;
     656:	4d0f      	ldr	r5, [pc, #60]	; (694 <UFI_write+0x5c>)
     658:	041b      	lsls	r3, r3, #16
     65a:	4319      	orrs	r1, r3
     65c:	7d13      	ldrb	r3, [r2, #20]
     65e:	061b      	lsls	r3, r3, #24
     660:	430b      	orrs	r3, r1
     662:	ba1b      	rev	r3, r3
     664:	031b      	lsls	r3, r3, #12
     666:	602b      	str	r3, [r5, #0]
C:\Users\alon\Desktop\github\iot-fan_at_cnblogs\CH577_CH578_CH579\AN\CH579EVT_USB_DISK_TEST\BLE\ch57x_ble_uart_mrs_app_only_test\obj/../app/ch57x_usb_device_msc.c:462 (discriminator 1)
	for(i=0;i<num;i++){
     668:	b2f3      	uxtb	r3, r6
     66a:	42a3      	cmp	r3, r4
     66c:	d307      	bcc.n	67e <UFI_write+0x46>
C:\Users\alon\Desktop\github\iot-fan_at_cnblogs\CH577_CH578_CH579\AN\CH579EVT_USB_DISK_TEST\BLE\ch57x_ble_uart_mrs_app_only_test\obj/../app/ch57x_usb_device_msc.c:474
	for(i=0;i<num;i++)
	     CodeFlash_BlockErase(Locate_Addr + i*DISK_SEC_LEN);
	#endif
		
	
	BcswStatus=0;
     66e:	2300      	movs	r3, #0
     670:	4a09      	ldr	r2, [pc, #36]	; (698 <UFI_write+0x60>)
     672:	7013      	strb	r3, [r2, #0]
C:\Users\alon\Desktop\github\iot-fan_at_cnblogs\CH577_CH578_CH579\AN\CH579EVT_USB_DISK_TEST\BLE\ch57x_ble_uart_mrs_app_only_test\obj/../app/ch57x_usb_device_msc.c:475
	mSenseKey=0;
     674:	4a09      	ldr	r2, [pc, #36]	; (69c <UFI_write+0x64>)
     676:	7013      	strb	r3, [r2, #0]
C:\Users\alon\Desktop\github\iot-fan_at_cnblogs\CH577_CH578_CH579\AN\CH579EVT_USB_DISK_TEST\BLE\ch57x_ble_uart_mrs_app_only_test\obj/../app/ch57x_usb_device_msc.c:476
	mASC=0;
     678:	4a09      	ldr	r2, [pc, #36]	; (6a0 <UFI_write+0x68>)
     67a:	7013      	strb	r3, [r2, #0]
C:\Users\alon\Desktop\github\iot-fan_at_cnblogs\CH577_CH578_CH579\AN\CH579EVT_USB_DISK_TEST\BLE\ch57x_ble_uart_mrs_app_only_test\obj/../app/ch57x_usb_device_msc.c:477
}
     67c:	bd70      	pop	{r4, r5, r6, pc}
C:\Users\alon\Desktop\github\iot-fan_at_cnblogs\CH577_CH578_CH579\AN\CH579EVT_USB_DISK_TEST\BLE\ch57x_ble_uart_mrs_app_only_test\obj/../app/ch57x_usb_device_msc.c:463 (discriminator 3)
		EraseExternal4KFlash_SPI(Locate_Addr + i*DISK_SEC_LEN); 
     67e:	682b      	ldr	r3, [r5, #0]
     680:	0330      	lsls	r0, r6, #12
     682:	18c0      	adds	r0, r0, r3
     684:	f002 fc32 	bl	2eec <EraseExternal4KFlash_SPI>
C:\Users\alon\Desktop\github\iot-fan_at_cnblogs\CH577_CH578_CH579\AN\CH579EVT_USB_DISK_TEST\BLE\ch57x_ble_uart_mrs_app_only_test\obj/../app/ch57x_usb_device_msc.c:462 (discriminator 3)
	for(i=0;i<num;i++){
     688:	3601      	adds	r6, #1
     68a:	e7ed      	b.n	668 <UFI_write+0x30>
     68c:	20004154 	.word	0x20004154
     690:	2000414c 	.word	0x2000414c
     694:	20004150 	.word	0x20004150
     698:	20004080 	.word	0x20004080
     69c:	200041da 	.word	0x200041da
     6a0:	200041d9 	.word	0x200041d9

000006a4 <UFI_modeSense5>:
UFI_modeSense5():
C:\Users\alon\Desktop\github\iot-fan_at_cnblogs\CH577_CH578_CH579\AN\CH579EVT_USB_DISK_TEST\BLE\ch57x_ble_uart_mrs_app_only_test\obj/../app/ch57x_usb_device_msc.c:497
	//ËøôÈáåËøôÈáåÂè™ÊòØ‰Ωú‰∏∫ÊºîÁ§∫ÊâÄ‰ª•Ê≤°ÊúâÁúüÊ≠£Ê£ÄÊµãÁâ©ÁêÜÂ≠òÂÇ®Âô®
	//‰ΩÜÂÆûÈôÖ‰∏äËøô‰∏ÄÊ≠•‰∏ÄÂÆöË¶ÅÂ§ÑÁêÜ
}

void UFI_modeSense5(void )
{
     6a4:	b510      	push	{r4, lr}
C:\Users\alon\Desktop\github\iot-fan_at_cnblogs\CH577_CH578_CH579\AN\CH579EVT_USB_DISK_TEST\BLE\ch57x_ble_uart_mrs_app_only_test\obj/../app/ch57x_usb_device_msc.c:498
	if(MassPara.cbw.cbwcb.buf1[2]==0x3F)
     6a6:	4b0c      	ldr	r3, [pc, #48]	; (6d8 <UFI_modeSense5+0x34>)
     6a8:	7c5b      	ldrb	r3, [r3, #17]
     6aa:	2b3f      	cmp	r3, #63	; 0x3f
     6ac:	d110      	bne.n	6d0 <UFI_modeSense5+0x2c>
C:\Users\alon\Desktop\github\iot-fan_at_cnblogs\CH577_CH578_CH579\AN\CH579EVT_USB_DISK_TEST\BLE\ch57x_ble_uart_mrs_app_only_test\obj/../app/ch57x_usb_device_msc.c:500
	{
	    if ( LEN.mDataLength > sizeof(mode5sense3F) ) LEN.mDataLength = sizeof(mode5sense3F);
     6ae:	4b0b      	ldr	r3, [pc, #44]	; (6dc <UFI_modeSense5+0x38>)
     6b0:	681a      	ldr	r2, [r3, #0]
     6b2:	2a10      	cmp	r2, #16
     6b4:	d901      	bls.n	6ba <UFI_modeSense5+0x16>
C:\Users\alon\Desktop\github\iot-fan_at_cnblogs\CH577_CH578_CH579\AN\CH579EVT_USB_DISK_TEST\BLE\ch57x_ble_uart_mrs_app_only_test\obj/../app/ch57x_usb_device_msc.c:500 (discriminator 1)
     6b6:	2210      	movs	r2, #16
     6b8:	601a      	str	r2, [r3, #0]
C:\Users\alon\Desktop\github\iot-fan_at_cnblogs\CH577_CH578_CH579\AN\CH579EVT_USB_DISK_TEST\BLE\ch57x_ble_uart_mrs_app_only_test\obj/../app/ch57x_usb_device_msc.c:501
		pBuf = (unsigned char*)mode5sense3F;
     6ba:	4b09      	ldr	r3, [pc, #36]	; (6e0 <UFI_modeSense5+0x3c>)
     6bc:	4a09      	ldr	r2, [pc, #36]	; (6e4 <UFI_modeSense5+0x40>)
     6be:	601a      	str	r2, [r3, #0]
C:\Users\alon\Desktop\github\iot-fan_at_cnblogs\CH577_CH578_CH579\AN\CH579EVT_USB_DISK_TEST\BLE\ch57x_ble_uart_mrs_app_only_test\obj/../app/ch57x_usb_device_msc.c:502
		BcswStatus=0;
     6c0:	2300      	movs	r3, #0
     6c2:	4a09      	ldr	r2, [pc, #36]	; (6e8 <UFI_modeSense5+0x44>)
     6c4:	7013      	strb	r3, [r2, #0]
C:\Users\alon\Desktop\github\iot-fan_at_cnblogs\CH577_CH578_CH579\AN\CH579EVT_USB_DISK_TEST\BLE\ch57x_ble_uart_mrs_app_only_test\obj/../app/ch57x_usb_device_msc.c:503
		mSenseKey=0;
     6c6:	4a09      	ldr	r2, [pc, #36]	; (6ec <UFI_modeSense5+0x48>)
     6c8:	7013      	strb	r3, [r2, #0]
C:\Users\alon\Desktop\github\iot-fan_at_cnblogs\CH577_CH578_CH579\AN\CH579EVT_USB_DISK_TEST\BLE\ch57x_ble_uart_mrs_app_only_test\obj/../app/ch57x_usb_device_msc.c:504
		mASC=0;
     6ca:	4a09      	ldr	r2, [pc, #36]	; (6f0 <UFI_modeSense5+0x4c>)
     6cc:	7013      	strb	r3, [r2, #0]
C:\Users\alon\Desktop\github\iot-fan_at_cnblogs\CH577_CH578_CH579\AN\CH579EVT_USB_DISK_TEST\BLE\ch57x_ble_uart_mrs_app_only_test\obj/../app/ch57x_usb_device_msc.c:514
		mSenseKey=5;
		mASC=0x20;
		BcswStatus=1;
		BulkThirteen(CASECMDFAIL);
	}
}
     6ce:	bd10      	pop	{r4, pc}
     6d0:	f7ff feac 	bl	42c <UFI_modeSense.part.0>
     6d4:	e7fb      	b.n	6ce <UFI_modeSense5+0x2a>
     6d6:	46c0      	nop			; (mov r8, r8)
     6d8:	20004154 	.word	0x20004154
     6dc:	2000414c 	.word	0x2000414c
     6e0:	200041e0 	.word	0x200041e0
     6e4:	00004ac5 	.word	0x00004ac5
     6e8:	20004080 	.word	0x20004080
     6ec:	200041da 	.word	0x200041da
     6f0:	200041d9 	.word	0x200041d9

000006f4 <UFI_Hunding>:
UFI_Hunding():
C:\Users\alon\Desktop\github\iot-fan_at_cnblogs\CH577_CH578_CH579\AN\CH579EVT_USB_DISK_TEST\BLE\ch57x_ble_uart_mrs_app_only_test\obj/../app/ch57x_usb_device_msc.c:518

//UFI  CMD
void UFI_Hunding(void )
{		
     6f4:	b510      	push	{r4, lr}
C:\Users\alon\Desktop\github\iot-fan_at_cnblogs\CH577_CH578_CH579\AN\CH579EVT_USB_DISK_TEST\BLE\ch57x_ble_uart_mrs_app_only_test\obj/../app/ch57x_usb_device_msc.c:519
	switch(MassPara.cbw.cbwcb.buf1[0])
     6f6:	4b24      	ldr	r3, [pc, #144]	; (788 <UFI_Hunding+0x94>)
     6f8:	7bd8      	ldrb	r0, [r3, #15]
     6fa:	282a      	cmp	r0, #42	; 0x2a
     6fc:	d825      	bhi.n	74a <UFI_Hunding+0x56>
     6fe:	2819      	cmp	r0, #25
     700:	d815      	bhi.n	72e <UFI_Hunding+0x3a>
     702:	2803      	cmp	r0, #3
     704:	d034      	beq.n	770 <UFI_Hunding+0x7c>
     706:	2812      	cmp	r0, #18
     708:	d026      	beq.n	758 <UFI_Hunding+0x64>
     70a:	2800      	cmp	r0, #0
     70c:	d02a      	beq.n	764 <UFI_Hunding+0x70>
C:\Users\alon\Desktop\github\iot-fan_at_cnblogs\CH577_CH578_CH579\AN\CH579EVT_USB_DISK_TEST\BLE\ch57x_ble_uart_mrs_app_only_test\obj/../app/ch57x_usb_device_msc.c:586
		case PRE_OR_MED:
			UFI_perOrMed();
			break;
		
		default:
			mSenseKey=5;
     70e:	2205      	movs	r2, #5
     710:	4b1e      	ldr	r3, [pc, #120]	; (78c <UFI_Hunding+0x98>)
C:\Users\alon\Desktop\github\iot-fan_at_cnblogs\CH577_CH578_CH579\AN\CH579EVT_USB_DISK_TEST\BLE\ch57x_ble_uart_mrs_app_only_test\obj/../app/ch57x_usb_device_msc.c:590
			mASC=0x20;
			BcswStatus=1;
			CH375BULKUP=0;
			BulkThirteen(CASECBW);
     712:	200e      	movs	r0, #14
C:\Users\alon\Desktop\github\iot-fan_at_cnblogs\CH577_CH578_CH579\AN\CH579EVT_USB_DISK_TEST\BLE\ch57x_ble_uart_mrs_app_only_test\obj/../app/ch57x_usb_device_msc.c:586
			mSenseKey=5;
     714:	701a      	strb	r2, [r3, #0]
C:\Users\alon\Desktop\github\iot-fan_at_cnblogs\CH577_CH578_CH579\AN\CH579EVT_USB_DISK_TEST\BLE\ch57x_ble_uart_mrs_app_only_test\obj/../app/ch57x_usb_device_msc.c:587
			mASC=0x20;
     716:	4b1e      	ldr	r3, [pc, #120]	; (790 <UFI_Hunding+0x9c>)
     718:	321b      	adds	r2, #27
     71a:	701a      	strb	r2, [r3, #0]
C:\Users\alon\Desktop\github\iot-fan_at_cnblogs\CH577_CH578_CH579\AN\CH579EVT_USB_DISK_TEST\BLE\ch57x_ble_uart_mrs_app_only_test\obj/../app/ch57x_usb_device_msc.c:588
			BcswStatus=1;
     71c:	4b1d      	ldr	r3, [pc, #116]	; (794 <UFI_Hunding+0xa0>)
     71e:	3a1f      	subs	r2, #31
     720:	701a      	strb	r2, [r3, #0]
C:\Users\alon\Desktop\github\iot-fan_at_cnblogs\CH577_CH578_CH579\AN\CH579EVT_USB_DISK_TEST\BLE\ch57x_ble_uart_mrs_app_only_test\obj/../app/ch57x_usb_device_msc.c:589
			CH375BULKUP=0;
     722:	2200      	movs	r2, #0
     724:	4b1c      	ldr	r3, [pc, #112]	; (798 <UFI_Hunding+0xa4>)
     726:	701a      	strb	r2, [r3, #0]
C:\Users\alon\Desktop\github\iot-fan_at_cnblogs\CH577_CH578_CH579\AN\CH579EVT_USB_DISK_TEST\BLE\ch57x_ble_uart_mrs_app_only_test\obj/../app/ch57x_usb_device_msc.c:590
			BulkThirteen(CASECBW);
     728:	f7ff fe46 	bl	3b8 <BulkThirteen>
C:\Users\alon\Desktop\github\iot-fan_at_cnblogs\CH577_CH578_CH579\AN\CH579EVT_USB_DISK_TEST\BLE\ch57x_ble_uart_mrs_app_only_test\obj/../app/ch57x_usb_device_msc.c:593
			break;
	}
}
     72c:	e016      	b.n	75c <UFI_Hunding+0x68>
     72e:	381a      	subs	r0, #26
     730:	2810      	cmp	r0, #16
     732:	d8ec      	bhi.n	70e <UFI_Hunding+0x1a>
     734:	f7ff fcac 	bl	90 <__gnu_thumb1_case_sqi>
     738:	ebeb1625 	.word	0xebeb1625
     73c:	ebebeb22 	.word	0xebebeb22
     740:	1febebeb 	.word	0x1febebeb
     744:	eb19ebeb 	.word	0xeb19ebeb
     748:	13          	.byte	0x13
     749:	00          	.byte	0x00
C:\Users\alon\Desktop\github\iot-fan_at_cnblogs\CH577_CH578_CH579\AN\CH579EVT_USB_DISK_TEST\BLE\ch57x_ble_uart_mrs_app_only_test\obj/../app/ch57x_usb_device_msc.c:519
	switch(MassPara.cbw.cbwcb.buf1[0])
     74a:	282f      	cmp	r0, #47	; 0x2f
     74c:	d016      	beq.n	77c <UFI_Hunding+0x88>
     74e:	285a      	cmp	r0, #90	; 0x5a
     750:	d1dd      	bne.n	70e <UFI_Hunding+0x1a>
C:\Users\alon\Desktop\github\iot-fan_at_cnblogs\CH577_CH578_CH579\AN\CH579EVT_USB_DISK_TEST\BLE\ch57x_ble_uart_mrs_app_only_test\obj/../app/ch57x_usb_device_msc.c:562
			UFI_modeSense5();
     752:	f7ff ffa7 	bl	6a4 <UFI_modeSense5>
C:\Users\alon\Desktop\github\iot-fan_at_cnblogs\CH577_CH578_CH579\AN\CH579EVT_USB_DISK_TEST\BLE\ch57x_ble_uart_mrs_app_only_test\obj/../app/ch57x_usb_device_msc.c:563
		break;
     756:	e001      	b.n	75c <UFI_Hunding+0x68>
C:\Users\alon\Desktop\github\iot-fan_at_cnblogs\CH577_CH578_CH579\AN\CH579EVT_USB_DISK_TEST\BLE\ch57x_ble_uart_mrs_app_only_test\obj/../app/ch57x_usb_device_msc.c:522
			UFI_inquiry();
     758:	f7ff fea0 	bl	49c <UFI_inquiry>
C:\Users\alon\Desktop\github\iot-fan_at_cnblogs\CH577_CH578_CH579\AN\CH579EVT_USB_DISK_TEST\BLE\ch57x_ble_uart_mrs_app_only_test\obj/../app/ch57x_usb_device_msc.c:593
}
     75c:	bd10      	pop	{r4, pc}
C:\Users\alon\Desktop\github\iot-fan_at_cnblogs\CH577_CH578_CH579\AN\CH579EVT_USB_DISK_TEST\BLE\ch57x_ble_uart_mrs_app_only_test\obj/../app/ch57x_usb_device_msc.c:527
			UFI_write();
     75e:	f7ff ff6b 	bl	638 <UFI_write>
C:\Users\alon\Desktop\github\iot-fan_at_cnblogs\CH577_CH578_CH579\AN\CH579EVT_USB_DISK_TEST\BLE\ch57x_ble_uart_mrs_app_only_test\obj/../app/ch57x_usb_device_msc.c:528
		break;
     762:	e7fb      	b.n	75c <UFI_Hunding+0x68>
C:\Users\alon\Desktop\github\iot-fan_at_cnblogs\CH577_CH578_CH579\AN\CH579EVT_USB_DISK_TEST\BLE\ch57x_ble_uart_mrs_app_only_test\obj/../app/ch57x_usb_device_msc.c:531
			UFI_testUnit();
     764:	f7ff ff44 	bl	5f0 <UFI_testUnit>
C:\Users\alon\Desktop\github\iot-fan_at_cnblogs\CH577_CH578_CH579\AN\CH579EVT_USB_DISK_TEST\BLE\ch57x_ble_uart_mrs_app_only_test\obj/../app/ch57x_usb_device_msc.c:532
		break;
     768:	e7f8      	b.n	75c <UFI_Hunding+0x68>
C:\Users\alon\Desktop\github\iot-fan_at_cnblogs\CH577_CH578_CH579\AN\CH579EVT_USB_DISK_TEST\BLE\ch57x_ble_uart_mrs_app_only_test\obj/../app/ch57x_usb_device_msc.c:535
			UFI_read10();
     76a:	f7ff feb5 	bl	4d8 <UFI_read10>
C:\Users\alon\Desktop\github\iot-fan_at_cnblogs\CH577_CH578_CH579\AN\CH579EVT_USB_DISK_TEST\BLE\ch57x_ble_uart_mrs_app_only_test\obj/../app/ch57x_usb_device_msc.c:536
		break;
     76e:	e7f5      	b.n	75c <UFI_Hunding+0x68>
C:\Users\alon\Desktop\github\iot-fan_at_cnblogs\CH577_CH578_CH579\AN\CH579EVT_USB_DISK_TEST\BLE\ch57x_ble_uart_mrs_app_only_test\obj/../app/ch57x_usb_device_msc.c:539
			UFI_requestSense();
     770:	f7ff ff08 	bl	584 <UFI_requestSense>
C:\Users\alon\Desktop\github\iot-fan_at_cnblogs\CH577_CH578_CH579\AN\CH579EVT_USB_DISK_TEST\BLE\ch57x_ble_uart_mrs_app_only_test\obj/../app/ch57x_usb_device_msc.c:540
		break;
     774:	e7f2      	b.n	75c <UFI_Hunding+0x68>
C:\Users\alon\Desktop\github\iot-fan_at_cnblogs\CH577_CH578_CH579\AN\CH579EVT_USB_DISK_TEST\BLE\ch57x_ble_uart_mrs_app_only_test\obj/../app/ch57x_usb_device_msc.c:543
			UFI_readCapacity();
     776:	f7ff fe73 	bl	460 <UFI_readCapacity>
C:\Users\alon\Desktop\github\iot-fan_at_cnblogs\CH577_CH578_CH579\AN\CH579EVT_USB_DISK_TEST\BLE\ch57x_ble_uart_mrs_app_only_test\obj/../app/ch57x_usb_device_msc.c:544
		break;
     77a:	e7ef      	b.n	75c <UFI_Hunding+0x68>
C:\Users\alon\Desktop\github\iot-fan_at_cnblogs\CH577_CH578_CH579\AN\CH579EVT_USB_DISK_TEST\BLE\ch57x_ble_uart_mrs_app_only_test\obj/../app/ch57x_usb_device_msc.c:547
			UFI_verify();
     77c:	f7ff ff4e 	bl	61c <UFI_perOrMed>
C:\Users\alon\Desktop\github\iot-fan_at_cnblogs\CH577_CH578_CH579\AN\CH579EVT_USB_DISK_TEST\BLE\ch57x_ble_uart_mrs_app_only_test\obj/../app/ch57x_usb_device_msc.c:548
			break;
     780:	e7ec      	b.n	75c <UFI_Hunding+0x68>
C:\Users\alon\Desktop\github\iot-fan_at_cnblogs\CH577_CH578_CH579\AN\CH579EVT_USB_DISK_TEST\BLE\ch57x_ble_uart_mrs_app_only_test\obj/../app/ch57x_usb_device_msc.c:558
			UFI_modeSense();
     782:	f7ff fed7 	bl	534 <UFI_modeSense>
C:\Users\alon\Desktop\github\iot-fan_at_cnblogs\CH577_CH578_CH579\AN\CH579EVT_USB_DISK_TEST\BLE\ch57x_ble_uart_mrs_app_only_test\obj/../app/ch57x_usb_device_msc.c:559
		break;
     786:	e7e9      	b.n	75c <UFI_Hunding+0x68>
     788:	20004154 	.word	0x20004154
     78c:	200041da 	.word	0x200041da
     790:	200041d9 	.word	0x200041d9
     794:	20004080 	.word	0x20004080
     798:	20004082 	.word	0x20004082

0000079c <mCH375BulkOnly>:
mCH375BulkOnly():
C:\Users\alon\Desktop\github\iot-fan_at_cnblogs\CH577_CH578_CH579\AN\CH579EVT_USB_DISK_TEST\BLE\ch57x_ble_uart_mrs_app_only_test\obj/../app/ch57x_usb_device_msc.c:597

void mCH375BulkOnly(void)
{
	if(MassPara.buf[0]==0x55)
     79c:	4b18      	ldr	r3, [pc, #96]	; (800 <mCH375BulkOnly+0x64>)
C:\Users\alon\Desktop\github\iot-fan_at_cnblogs\CH577_CH578_CH579\AN\CH579EVT_USB_DISK_TEST\BLE\ch57x_ble_uart_mrs_app_only_test\obj/../app/ch57x_usb_device_msc.c:596
{
     79e:	b510      	push	{r4, lr}
C:\Users\alon\Desktop\github\iot-fan_at_cnblogs\CH577_CH578_CH579\AN\CH579EVT_USB_DISK_TEST\BLE\ch57x_ble_uart_mrs_app_only_test\obj/../app/ch57x_usb_device_msc.c:597
	if(MassPara.buf[0]==0x55)
     7a0:	781a      	ldrb	r2, [r3, #0]
     7a2:	2a55      	cmp	r2, #85	; 0x55
     7a4:	d126      	bne.n	7f4 <mCH375BulkOnly+0x58>
C:\Users\alon\Desktop\github\iot-fan_at_cnblogs\CH577_CH578_CH579\AN\CH579EVT_USB_DISK_TEST\BLE\ch57x_ble_uart_mrs_app_only_test\obj/../app/ch57x_usb_device_msc.c:599
	{
		if(MassPara.buf[1]==0x53)
     7a6:	785a      	ldrb	r2, [r3, #1]
     7a8:	2a53      	cmp	r2, #83	; 0x53
     7aa:	d123      	bne.n	7f4 <mCH375BulkOnly+0x58>
C:\Users\alon\Desktop\github\iot-fan_at_cnblogs\CH577_CH578_CH579\AN\CH579EVT_USB_DISK_TEST\BLE\ch57x_ble_uart_mrs_app_only_test\obj/../app/ch57x_usb_device_msc.c:601
		{
			if(MassPara.buf[2]==0x42)
     7ac:	789a      	ldrb	r2, [r3, #2]
     7ae:	2a42      	cmp	r2, #66	; 0x42
     7b0:	d120      	bne.n	7f4 <mCH375BulkOnly+0x58>
C:\Users\alon\Desktop\github\iot-fan_at_cnblogs\CH577_CH578_CH579\AN\CH579EVT_USB_DISK_TEST\BLE\ch57x_ble_uart_mrs_app_only_test\obj/../app/ch57x_usb_device_msc.c:603
			{
				if(MassPara.buf[3]==0x43)
     7b2:	78da      	ldrb	r2, [r3, #3]
     7b4:	2a43      	cmp	r2, #67	; 0x43
     7b6:	d11d      	bne.n	7f4 <mCH375BulkOnly+0x58>
C:\Users\alon\Desktop\github\iot-fan_at_cnblogs\CH577_CH578_CH579\AN\CH579EVT_USB_DISK_TEST\BLE\ch57x_ble_uart_mrs_app_only_test\obj/../app/ch57x_usb_device_msc.c:609
				{
					//LEN.mDataLength=BIG_ENDIAN(MassPara.cbw.dCBWDatL);			//ÂÅöBOÂçèËÆÆÂ§ÑÁêÜ
					LEN.mdataLen[3] = *(unsigned char *)(&MassPara.cbw.dCBWDatL);  /* Â∞ÜPCÊú∫ÁöÑ‰ΩéÂ≠óËäÇÂú®ÂâçÁöÑ16‰ΩçÂ≠óÊï∞ÊçÆËΩ¨Êç¢‰∏∫C51ÁöÑÈ´òÂ≠óËäÇÂú®ÂâçÁöÑÊï∞ÊçÆ */
					LEN.mdataLen[2] = *( (unsigned char *)(&MassPara.cbw.dCBWDatL) + 1 );
					LEN.mdataLen[1] = *( (unsigned char *)(&MassPara.cbw.dCBWDatL) + 2 );
					LEN.mdataLen[0] = *( (unsigned char *)(&MassPara.cbw.dCBWDatL) + 3 );
     7b8:	689a      	ldr	r2, [r3, #8]
     7ba:	4912      	ldr	r1, [pc, #72]	; (804 <mCH375BulkOnly+0x68>)
     7bc:	ba12      	rev	r2, r2
     7be:	600a      	str	r2, [r1, #0]
C:\Users\alon\Desktop\github\iot-fan_at_cnblogs\CH577_CH578_CH579\AN\CH579EVT_USB_DISK_TEST\BLE\ch57x_ble_uart_mrs_app_only_test\obj/../app/ch57x_usb_device_msc.c:610
					mdCBWTag[0]=MassPara.buf[4];
     7c0:	7918      	ldrb	r0, [r3, #4]
     7c2:	4911      	ldr	r1, [pc, #68]	; (808 <mCH375BulkOnly+0x6c>)
     7c4:	7008      	strb	r0, [r1, #0]
C:\Users\alon\Desktop\github\iot-fan_at_cnblogs\CH577_CH578_CH579\AN\CH579EVT_USB_DISK_TEST\BLE\ch57x_ble_uart_mrs_app_only_test\obj/../app/ch57x_usb_device_msc.c:611
                    mdCBWTag[1]=MassPara.buf[5];
     7c6:	7958      	ldrb	r0, [r3, #5]
     7c8:	7048      	strb	r0, [r1, #1]
C:\Users\alon\Desktop\github\iot-fan_at_cnblogs\CH577_CH578_CH579\AN\CH579EVT_USB_DISK_TEST\BLE\ch57x_ble_uart_mrs_app_only_test\obj/../app/ch57x_usb_device_msc.c:612
                    mdCBWTag[2]=MassPara.buf[6];
     7ca:	7998      	ldrb	r0, [r3, #6]
     7cc:	7088      	strb	r0, [r1, #2]
C:\Users\alon\Desktop\github\iot-fan_at_cnblogs\CH577_CH578_CH579\AN\CH579EVT_USB_DISK_TEST\BLE\ch57x_ble_uart_mrs_app_only_test\obj/../app/ch57x_usb_device_msc.c:613
	                mdCBWTag[3]=MassPara.buf[7];	//ÂèñÂá∫Êï∞ÊçÆÈïøÂ∫¶
     7ce:	79d8      	ldrb	r0, [r3, #7]
     7d0:	70c8      	strb	r0, [r1, #3]
C:\Users\alon\Desktop\github\iot-fan_at_cnblogs\CH577_CH578_CH579\AN\CH579EVT_USB_DISK_TEST\BLE\ch57x_ble_uart_mrs_app_only_test\obj/../app/ch57x_usb_device_msc.c:614
					if(LEN.mDataLength)
     7d2:	2a00      	cmp	r2, #0
     7d4:	d008      	beq.n	7e8 <mCH375BulkOnly+0x4c>
C:\Users\alon\Desktop\github\iot-fan_at_cnblogs\CH577_CH578_CH579\AN\CH579EVT_USB_DISK_TEST\BLE\ch57x_ble_uart_mrs_app_only_test\obj/../app/ch57x_usb_device_msc.c:616
					{
						CH375BULKDOWN=(MassPara.cbw.bmCBWFlags&0X80)?0:1;	//Âà§Êñ≠ÊòØ‰∏ä‰º†ËøòÊòØ‰∏ã‰º†Êï∞ÊçÆ
     7d6:	7b1a      	ldrb	r2, [r3, #12]
     7d8:	490c      	ldr	r1, [pc, #48]	; (80c <mCH375BulkOnly+0x70>)
     7da:	43d3      	mvns	r3, r2
     7dc:	b2db      	uxtb	r3, r3
     7de:	09db      	lsrs	r3, r3, #7
     7e0:	700b      	strb	r3, [r1, #0]
C:\Users\alon\Desktop\github\iot-fan_at_cnblogs\CH577_CH578_CH579\AN\CH579EVT_USB_DISK_TEST\BLE\ch57x_ble_uart_mrs_app_only_test\obj/../app/ch57x_usb_device_msc.c:617
						CH375BULKUP=(MassPara.cbw.bmCBWFlags&0X80)?1:0;
     7e2:	4b0b      	ldr	r3, [pc, #44]	; (810 <mCH375BulkOnly+0x74>)
     7e4:	09d2      	lsrs	r2, r2, #7
     7e6:	701a      	strb	r2, [r3, #0]
C:\Users\alon\Desktop\github\iot-fan_at_cnblogs\CH577_CH578_CH579\AN\CH579EVT_USB_DISK_TEST\BLE\ch57x_ble_uart_mrs_app_only_test\obj/../app/ch57x_usb_device_msc.c:619
					}
					CH375CSW = 1;
     7e8:	2201      	movs	r2, #1
     7ea:	4b0a      	ldr	r3, [pc, #40]	; (814 <mCH375BulkOnly+0x78>)
     7ec:	701a      	strb	r2, [r3, #0]
C:\Users\alon\Desktop\github\iot-fan_at_cnblogs\CH577_CH578_CH579\AN\CH579EVT_USB_DISK_TEST\BLE\ch57x_ble_uart_mrs_app_only_test\obj/../app/ch57x_usb_device_msc.c:620
					UFI_Hunding();
     7ee:	f7ff ff81 	bl	6f4 <UFI_Hunding>
C:\Users\alon\Desktop\github\iot-fan_at_cnblogs\CH577_CH578_CH579\AN\CH579EVT_USB_DISK_TEST\BLE\ch57x_ble_uart_mrs_app_only_test\obj/../app/ch57x_usb_device_msc.c:633
		else
			R8_UEP1_CTRL = R8_UEP1_CTRL | MASK_UEP_T_RES ;
	}
	else
	R8_UEP1_CTRL = R8_UEP1_CTRL | MASK_UEP_T_RES ;
}
     7f2:	bd10      	pop	{r4, pc}
C:\Users\alon\Desktop\github\iot-fan_at_cnblogs\CH577_CH578_CH579\AN\CH579EVT_USB_DISK_TEST\BLE\ch57x_ble_uart_mrs_app_only_test\obj/../app/ch57x_usb_device_msc.c:632
	R8_UEP1_CTRL = R8_UEP1_CTRL | MASK_UEP_T_RES ;
     7f4:	2303      	movs	r3, #3
     7f6:	4a08      	ldr	r2, [pc, #32]	; (818 <mCH375BulkOnly+0x7c>)
     7f8:	7811      	ldrb	r1, [r2, #0]
     7fa:	430b      	orrs	r3, r1
     7fc:	7013      	strb	r3, [r2, #0]
C:\Users\alon\Desktop\github\iot-fan_at_cnblogs\CH577_CH578_CH579\AN\CH579EVT_USB_DISK_TEST\BLE\ch57x_ble_uart_mrs_app_only_test\obj/../app/ch57x_usb_device_msc.c:633
}
     7fe:	e7f8      	b.n	7f2 <mCH375BulkOnly+0x56>
     800:	20004154 	.word	0x20004154
     804:	2000414c 	.word	0x2000414c
     808:	200041db 	.word	0x200041db
     80c:	20004081 	.word	0x20004081
     810:	20004082 	.word	0x20004082
     814:	20004083 	.word	0x20004083
     818:	40008026 	.word	0x40008026

0000081c <mCH375UpCsw>:
mCH375UpCsw():
C:\Users\alon\Desktop\github\iot-fan_at_cnblogs\CH577_CH578_CH579\AN\CH579EVT_USB_DISK_TEST\BLE\ch57x_ble_uart_mrs_app_only_test\obj/../app/ch57x_usb_device_msc.c:639

void mCH375UpCsw(void)
{
	unsigned char i;		//Â¶ÇÊûúÊï∞ÊçÆ‰∏∫0
	pBuf=&MassPara.buf[0];
	CH375CSW=0;				//‰∏ä‰º†CSW
     81c:	2300      	movs	r3, #0
     81e:	4916      	ldr	r1, [pc, #88]	; (878 <mCH375UpCsw+0x5c>)
C:\Users\alon\Desktop\github\iot-fan_at_cnblogs\CH577_CH578_CH579\AN\CH579EVT_USB_DISK_TEST\BLE\ch57x_ble_uart_mrs_app_only_test\obj/../app/ch57x_usb_device_msc.c:636
{
     820:	b510      	push	{r4, lr}
C:\Users\alon\Desktop\github\iot-fan_at_cnblogs\CH577_CH578_CH579\AN\CH579EVT_USB_DISK_TEST\BLE\ch57x_ble_uart_mrs_app_only_test\obj/../app/ch57x_usb_device_msc.c:639
	CH375CSW=0;				//‰∏ä‰º†CSW
     822:	700b      	strb	r3, [r1, #0]
C:\Users\alon\Desktop\github\iot-fan_at_cnblogs\CH577_CH578_CH579\AN\CH579EVT_USB_DISK_TEST\BLE\ch57x_ble_uart_mrs_app_only_test\obj/../app/ch57x_usb_device_msc.c:640
	CH375BULKUP=0;			//ÂèñÊ∂àÊï∞ÊçÆ‰∏ä‰º†
     824:	4915      	ldr	r1, [pc, #84]	; (87c <mCH375UpCsw+0x60>)
C:\Users\alon\Desktop\github\iot-fan_at_cnblogs\CH577_CH578_CH579\AN\CH579EVT_USB_DISK_TEST\BLE\ch57x_ble_uart_mrs_app_only_test\obj/../app/ch57x_usb_device_msc.c:638
	pBuf=&MassPara.buf[0];
     826:	4a16      	ldr	r2, [pc, #88]	; (880 <mCH375UpCsw+0x64>)
C:\Users\alon\Desktop\github\iot-fan_at_cnblogs\CH577_CH578_CH579\AN\CH579EVT_USB_DISK_TEST\BLE\ch57x_ble_uart_mrs_app_only_test\obj/../app/ch57x_usb_device_msc.c:640
	CH375BULKUP=0;			//ÂèñÊ∂àÊï∞ÊçÆ‰∏ä‰º†
     828:	700b      	strb	r3, [r1, #0]
C:\Users\alon\Desktop\github\iot-fan_at_cnblogs\CH577_CH578_CH579\AN\CH579EVT_USB_DISK_TEST\BLE\ch57x_ble_uart_mrs_app_only_test\obj/../app/ch57x_usb_device_msc.c:641
	MassPara.buf[0]=0x55;	//dCSWSignature
     82a:	4916      	ldr	r1, [pc, #88]	; (884 <mCH375UpCsw+0x68>)
C:\Users\alon\Desktop\github\iot-fan_at_cnblogs\CH577_CH578_CH579\AN\CH579EVT_USB_DISK_TEST\BLE\ch57x_ble_uart_mrs_app_only_test\obj/../app/ch57x_usb_device_msc.c:638
	pBuf=&MassPara.buf[0];
     82c:	4816      	ldr	r0, [pc, #88]	; (888 <mCH375UpCsw+0x6c>)
C:\Users\alon\Desktop\github\iot-fan_at_cnblogs\CH577_CH578_CH579\AN\CH579EVT_USB_DISK_TEST\BLE\ch57x_ble_uart_mrs_app_only_test\obj/../app/ch57x_usb_device_msc.c:641
	MassPara.buf[0]=0x55;	//dCSWSignature
     82e:	6011      	str	r1, [r2, #0]
C:\Users\alon\Desktop\github\iot-fan_at_cnblogs\CH577_CH578_CH579\AN\CH579EVT_USB_DISK_TEST\BLE\ch57x_ble_uart_mrs_app_only_test\obj/../app/ch57x_usb_device_msc.c:645
	MassPara.buf[1]=0x53;
	MassPara.buf[2]=0x42;
	MassPara.buf[3]=0x53;
	MassPara.buf[4]=mdCBWTag[0];
     830:	4916      	ldr	r1, [pc, #88]	; (88c <mCH375UpCsw+0x70>)
C:\Users\alon\Desktop\github\iot-fan_at_cnblogs\CH577_CH578_CH579\AN\CH579EVT_USB_DISK_TEST\BLE\ch57x_ble_uart_mrs_app_only_test\obj/../app/ch57x_usb_device_msc.c:638
	pBuf=&MassPara.buf[0];
     832:	6002      	str	r2, [r0, #0]
C:\Users\alon\Desktop\github\iot-fan_at_cnblogs\CH577_CH578_CH579\AN\CH579EVT_USB_DISK_TEST\BLE\ch57x_ble_uart_mrs_app_only_test\obj/../app/ch57x_usb_device_msc.c:645
	MassPara.buf[4]=mdCBWTag[0];
     834:	780c      	ldrb	r4, [r1, #0]
     836:	7114      	strb	r4, [r2, #4]
C:\Users\alon\Desktop\github\iot-fan_at_cnblogs\CH577_CH578_CH579\AN\CH579EVT_USB_DISK_TEST\BLE\ch57x_ble_uart_mrs_app_only_test\obj/../app/ch57x_usb_device_msc.c:646
	MassPara.buf[5]=mdCBWTag[1];
     838:	784c      	ldrb	r4, [r1, #1]
     83a:	7154      	strb	r4, [r2, #5]
C:\Users\alon\Desktop\github\iot-fan_at_cnblogs\CH577_CH578_CH579\AN\CH579EVT_USB_DISK_TEST\BLE\ch57x_ble_uart_mrs_app_only_test\obj/../app/ch57x_usb_device_msc.c:647
	MassPara.buf[6]=mdCBWTag[2];
     83c:	788c      	ldrb	r4, [r1, #2]
     83e:	7194      	strb	r4, [r2, #6]
C:\Users\alon\Desktop\github\iot-fan_at_cnblogs\CH577_CH578_CH579\AN\CH579EVT_USB_DISK_TEST\BLE\ch57x_ble_uart_mrs_app_only_test\obj/../app/ch57x_usb_device_msc.c:648
	MassPara.buf[7]=mdCBWTag[3];
     840:	78c9      	ldrb	r1, [r1, #3]
C:\Users\alon\Desktop\github\iot-fan_at_cnblogs\CH577_CH578_CH579\AN\CH579EVT_USB_DISK_TEST\BLE\ch57x_ble_uart_mrs_app_only_test\obj/../app/ch57x_usb_device_msc.c:649
	MassPara.buf[8]=0;
     842:	8113      	strh	r3, [r2, #8]
C:\Users\alon\Desktop\github\iot-fan_at_cnblogs\CH577_CH578_CH579\AN\CH579EVT_USB_DISK_TEST\BLE\ch57x_ble_uart_mrs_app_only_test\obj/../app/ch57x_usb_device_msc.c:648
	MassPara.buf[7]=mdCBWTag[3];
     844:	71d1      	strb	r1, [r2, #7]
C:\Users\alon\Desktop\github\iot-fan_at_cnblogs\CH577_CH578_CH579\AN\CH579EVT_USB_DISK_TEST\BLE\ch57x_ble_uart_mrs_app_only_test\obj/../app/ch57x_usb_device_msc.c:651
	MassPara.buf[9]=0;
	MassPara.buf[10]=LEN.mdataLen[1];
     846:	4912      	ldr	r1, [pc, #72]	; (890 <mCH375UpCsw+0x74>)
     848:	8809      	ldrh	r1, [r1, #0]
     84a:	ba49      	rev16	r1, r1
     84c:	8151      	strh	r1, [r2, #10]
C:\Users\alon\Desktop\github\iot-fan_at_cnblogs\CH577_CH578_CH579\AN\CH579EVT_USB_DISK_TEST\BLE\ch57x_ble_uart_mrs_app_only_test\obj/../app/ch57x_usb_device_msc.c:653
	MassPara.buf[11]=LEN.mdataLen[0];
	MassPara.buf[12]=BcswStatus;
     84e:	4911      	ldr	r1, [pc, #68]	; (894 <mCH375UpCsw+0x78>)
     850:	7809      	ldrb	r1, [r1, #0]
     852:	7311      	strb	r1, [r2, #12]
C:\Users\alon\Desktop\github\iot-fan_at_cnblogs\CH577_CH578_CH579\AN\CH579EVT_USB_DISK_TEST\BLE\ch57x_ble_uart_mrs_app_only_test\obj/../app/ch57x_usb_device_msc.c:656
	for(i = 0;i<13;i++)
	{
		EP1_Databuf[MAX_PACKET_SIZE+i] = *pBuf;
     854:	4910      	ldr	r1, [pc, #64]	; (898 <mCH375UpCsw+0x7c>)
C:\Users\alon\Desktop\github\iot-fan_at_cnblogs\CH577_CH578_CH579\AN\CH579EVT_USB_DISK_TEST\BLE\ch57x_ble_uart_mrs_app_only_test\obj/../app/ch57x_usb_device_msc.c:656 (discriminator 3)
     856:	6802      	ldr	r2, [r0, #0]
     858:	7814      	ldrb	r4, [r2, #0]
C:\Users\alon\Desktop\github\iot-fan_at_cnblogs\CH577_CH578_CH579\AN\CH579EVT_USB_DISK_TEST\BLE\ch57x_ble_uart_mrs_app_only_test\obj/../app/ch57x_usb_device_msc.c:657 (discriminator 3)
		pBuf++;
     85a:	3201      	adds	r2, #1
C:\Users\alon\Desktop\github\iot-fan_at_cnblogs\CH577_CH578_CH579\AN\CH579EVT_USB_DISK_TEST\BLE\ch57x_ble_uart_mrs_app_only_test\obj/../app/ch57x_usb_device_msc.c:656 (discriminator 3)
		EP1_Databuf[MAX_PACKET_SIZE+i] = *pBuf;
     85c:	54cc      	strb	r4, [r1, r3]
C:\Users\alon\Desktop\github\iot-fan_at_cnblogs\CH577_CH578_CH579\AN\CH579EVT_USB_DISK_TEST\BLE\ch57x_ble_uart_mrs_app_only_test\obj/../app/ch57x_usb_device_msc.c:657 (discriminator 3)
		pBuf++;
     85e:	3301      	adds	r3, #1
     860:	6002      	str	r2, [r0, #0]
C:\Users\alon\Desktop\github\iot-fan_at_cnblogs\CH577_CH578_CH579\AN\CH579EVT_USB_DISK_TEST\BLE\ch57x_ble_uart_mrs_app_only_test\obj/../app/ch57x_usb_device_msc.c:654 (discriminator 3)
	for(i = 0;i<13;i++)
     862:	2b0d      	cmp	r3, #13
     864:	d1f7      	bne.n	856 <mCH375UpCsw+0x3a>
C:\Users\alon\Desktop\github\iot-fan_at_cnblogs\CH577_CH578_CH579\AN\CH579EVT_USB_DISK_TEST\BLE\ch57x_ble_uart_mrs_app_only_test\obj/../app/ch57x_usb_device_msc.c:660
	}
	R8_UEP1_T_LEN = 13;
	R8_UEP1_CTRL = (R8_UEP1_CTRL & ~ MASK_UEP_T_RES) | UEP_T_RES_ACK;  // ÂÖÅËÆ∏‰∏ä‰º†
     866:	2103      	movs	r1, #3
C:\Users\alon\Desktop\github\iot-fan_at_cnblogs\CH577_CH578_CH579\AN\CH579EVT_USB_DISK_TEST\BLE\ch57x_ble_uart_mrs_app_only_test\obj/../app/ch57x_usb_device_msc.c:659
	R8_UEP1_T_LEN = 13;
     868:	4a0c      	ldr	r2, [pc, #48]	; (89c <mCH375UpCsw+0x80>)
     86a:	7013      	strb	r3, [r2, #0]
C:\Users\alon\Desktop\github\iot-fan_at_cnblogs\CH577_CH578_CH579\AN\CH579EVT_USB_DISK_TEST\BLE\ch57x_ble_uart_mrs_app_only_test\obj/../app/ch57x_usb_device_msc.c:660
	R8_UEP1_CTRL = (R8_UEP1_CTRL & ~ MASK_UEP_T_RES) | UEP_T_RES_ACK;  // ÂÖÅËÆ∏‰∏ä‰º†
     86c:	4a0c      	ldr	r2, [pc, #48]	; (8a0 <mCH375UpCsw+0x84>)
     86e:	7813      	ldrb	r3, [r2, #0]
     870:	438b      	bics	r3, r1
     872:	7013      	strb	r3, [r2, #0]
C:\Users\alon\Desktop\github\iot-fan_at_cnblogs\CH577_CH578_CH579\AN\CH579EVT_USB_DISK_TEST\BLE\ch57x_ble_uart_mrs_app_only_test\obj/../app/ch57x_usb_device_msc.c:661
}
     874:	bd10      	pop	{r4, pc}
     876:	46c0      	nop			; (mov r8, r8)
     878:	20004083 	.word	0x20004083
     87c:	20004082 	.word	0x20004082
     880:	20004154 	.word	0x20004154
     884:	53425355 	.word	0x53425355
     888:	200041e0 	.word	0x200041e0
     88c:	200041db 	.word	0x200041db
     890:	2000414c 	.word	0x2000414c
     894:	20004080 	.word	0x20004080
     898:	20004108 	.word	0x20004108
     89c:	40008024 	.word	0x40008024
     8a0:	40008026 	.word	0x40008026

000008a4 <CH375bulkUpData>:
CH375bulkUpData():
C:\Users\alon\Desktop\github\iot-fan_at_cnblogs\CH577_CH578_CH579\AN\CH579EVT_USB_DISK_TEST\BLE\ch57x_ble_uart_mrs_app_only_test\obj/../app/ch57x_usb_device_msc.c:665

//**********************************************************************************
void CH375bulkUpData(void)    //Ë∞ÉÁî®Á´ØÁÇπ1‰∏ä‰º†Êï∞ÊçÆ
{											
     8a4:	b5f8      	push	{r3, r4, r5, r6, r7, lr}
C:\Users\alon\Desktop\github\iot-fan_at_cnblogs\CH577_CH578_CH579\AN\CH579EVT_USB_DISK_TEST\BLE\ch57x_ble_uart_mrs_app_only_test\obj/../app/ch57x_usb_device_msc.c:667
	unsigned char len,i;
	if(LEN.mDataLength>0x40)
     8a6:	4d19      	ldr	r5, [pc, #100]	; (90c <CH375bulkUpData+0x68>)
     8a8:	682c      	ldr	r4, [r5, #0]
     8aa:	2c40      	cmp	r4, #64	; 0x40
     8ac:	d913      	bls.n	8d6 <CH375bulkUpData+0x32>
C:\Users\alon\Desktop\github\iot-fan_at_cnblogs\CH577_CH578_CH579\AN\CH579EVT_USB_DISK_TEST\BLE\ch57x_ble_uart_mrs_app_only_test\obj/../app/ch57x_usb_device_msc.c:670
	{
		len=0x40;
		LEN.mDataLength-=0x40;
     8ae:	3c40      	subs	r4, #64	; 0x40
     8b0:	602c      	str	r4, [r5, #0]
C:\Users\alon\Desktop\github\iot-fan_at_cnblogs\CH577_CH578_CH579\AN\CH579EVT_USB_DISK_TEST\BLE\ch57x_ble_uart_mrs_app_only_test\obj/../app/ch57x_usb_device_msc.c:669
		len=0x40;
     8b2:	2440      	movs	r4, #64	; 0x40
C:\Users\alon\Desktop\github\iot-fan_at_cnblogs\CH577_CH578_CH579\AN\CH579EVT_USB_DISK_TEST\BLE\ch57x_ble_uart_mrs_app_only_test\obj/../app/ch57x_usb_device_msc.c:679
		len= (unsigned char) LEN.mDataLength;
		LEN.mDataLength=0;
		CH375BULKUP=0;
	}
	
	if(pBuf_ReSelect)
     8b4:	2300      	movs	r3, #0
     8b6:	4e16      	ldr	r6, [pc, #88]	; (910 <CH375bulkUpData+0x6c>)
     8b8:	7832      	ldrb	r2, [r6, #0]
     8ba:	429a      	cmp	r2, r3
     8bc:	d111      	bne.n	8e2 <CH375bulkUpData+0x3e>
C:\Users\alon\Desktop\github\iot-fan_at_cnblogs\CH577_CH578_CH579\AN\CH579EVT_USB_DISK_TEST\BLE\ch57x_ble_uart_mrs_app_only_test\obj/../app/ch57x_usb_device_msc.c:701
	}
	else
	{
		for(i = 0;i<len;i++)
		{
			EP1_Databuf[MAX_PACKET_SIZE+i] = *pBuf;
     8be:	4915      	ldr	r1, [pc, #84]	; (914 <CH375bulkUpData+0x70>)
     8c0:	4815      	ldr	r0, [pc, #84]	; (918 <CH375bulkUpData+0x74>)
C:\Users\alon\Desktop\github\iot-fan_at_cnblogs\CH577_CH578_CH579\AN\CH579EVT_USB_DISK_TEST\BLE\ch57x_ble_uart_mrs_app_only_test\obj/../app/ch57x_usb_device_msc.c:699 (discriminator 1)
		for(i = 0;i<len;i++)
     8c2:	b2da      	uxtb	r2, r3
     8c4:	4294      	cmp	r4, r2
     8c6:	d919      	bls.n	8fc <CH375bulkUpData+0x58>
C:\Users\alon\Desktop\github\iot-fan_at_cnblogs\CH577_CH578_CH579\AN\CH579EVT_USB_DISK_TEST\BLE\ch57x_ble_uart_mrs_app_only_test\obj/../app/ch57x_usb_device_msc.c:701 (discriminator 3)
			EP1_Databuf[MAX_PACKET_SIZE+i] = *pBuf;
     8c8:	680a      	ldr	r2, [r1, #0]
     8ca:	7815      	ldrb	r5, [r2, #0]
C:\Users\alon\Desktop\github\iot-fan_at_cnblogs\CH577_CH578_CH579\AN\CH579EVT_USB_DISK_TEST\BLE\ch57x_ble_uart_mrs_app_only_test\obj/../app/ch57x_usb_device_msc.c:702 (discriminator 3)
			pBuf++;
     8cc:	3201      	adds	r2, #1
C:\Users\alon\Desktop\github\iot-fan_at_cnblogs\CH577_CH578_CH579\AN\CH579EVT_USB_DISK_TEST\BLE\ch57x_ble_uart_mrs_app_only_test\obj/../app/ch57x_usb_device_msc.c:701 (discriminator 3)
			EP1_Databuf[MAX_PACKET_SIZE+i] = *pBuf;
     8ce:	54c5      	strb	r5, [r0, r3]
C:\Users\alon\Desktop\github\iot-fan_at_cnblogs\CH577_CH578_CH579\AN\CH579EVT_USB_DISK_TEST\BLE\ch57x_ble_uart_mrs_app_only_test\obj/../app/ch57x_usb_device_msc.c:702 (discriminator 3)
			pBuf++;
     8d0:	600a      	str	r2, [r1, #0]
C:\Users\alon\Desktop\github\iot-fan_at_cnblogs\CH577_CH578_CH579\AN\CH579EVT_USB_DISK_TEST\BLE\ch57x_ble_uart_mrs_app_only_test\obj/../app/ch57x_usb_device_msc.c:699 (discriminator 3)
		for(i = 0;i<len;i++)
     8d2:	3301      	adds	r3, #1
     8d4:	e7f5      	b.n	8c2 <CH375bulkUpData+0x1e>
C:\Users\alon\Desktop\github\iot-fan_at_cnblogs\CH577_CH578_CH579\AN\CH579EVT_USB_DISK_TEST\BLE\ch57x_ble_uart_mrs_app_only_test\obj/../app/ch57x_usb_device_msc.c:675
		LEN.mDataLength=0;
     8d6:	2300      	movs	r3, #0
C:\Users\alon\Desktop\github\iot-fan_at_cnblogs\CH577_CH578_CH579\AN\CH579EVT_USB_DISK_TEST\BLE\ch57x_ble_uart_mrs_app_only_test\obj/../app/ch57x_usb_device_msc.c:676
		CH375BULKUP=0;
     8d8:	4a10      	ldr	r2, [pc, #64]	; (91c <CH375bulkUpData+0x78>)
C:\Users\alon\Desktop\github\iot-fan_at_cnblogs\CH577_CH578_CH579\AN\CH579EVT_USB_DISK_TEST\BLE\ch57x_ble_uart_mrs_app_only_test\obj/../app/ch57x_usb_device_msc.c:674
		len= (unsigned char) LEN.mDataLength;
     8da:	b2e4      	uxtb	r4, r4
C:\Users\alon\Desktop\github\iot-fan_at_cnblogs\CH577_CH578_CH579\AN\CH579EVT_USB_DISK_TEST\BLE\ch57x_ble_uart_mrs_app_only_test\obj/../app/ch57x_usb_device_msc.c:675
		LEN.mDataLength=0;
     8dc:	602b      	str	r3, [r5, #0]
C:\Users\alon\Desktop\github\iot-fan_at_cnblogs\CH577_CH578_CH579\AN\CH579EVT_USB_DISK_TEST\BLE\ch57x_ble_uart_mrs_app_only_test\obj/../app/ch57x_usb_device_msc.c:676
		CH375BULKUP=0;
     8de:	7013      	strb	r3, [r2, #0]
     8e0:	e7e8      	b.n	8b4 <CH375bulkUpData+0x10>
C:\Users\alon\Desktop\github\iot-fan_at_cnblogs\CH577_CH578_CH579\AN\CH579EVT_USB_DISK_TEST\BLE\ch57x_ble_uart_mrs_app_only_test\obj/../app/ch57x_usb_device_msc.c:682
			BlukReadExternalFlash_SPI(Locate_Addr,len,&EP1_Databuf[MAX_PACKET_SIZE]);
     8e2:	4f0f      	ldr	r7, [pc, #60]	; (920 <CH375bulkUpData+0x7c>)
     8e4:	4a0c      	ldr	r2, [pc, #48]	; (918 <CH375bulkUpData+0x74>)
     8e6:	6838      	ldr	r0, [r7, #0]
     8e8:	b2a1      	uxth	r1, r4
     8ea:	f002 fba1 	bl	3030 <BlukReadExternalFlash_SPI>
C:\Users\alon\Desktop\github\iot-fan_at_cnblogs\CH577_CH578_CH579\AN\CH579EVT_USB_DISK_TEST\BLE\ch57x_ble_uart_mrs_app_only_test\obj/../app/ch57x_usb_device_msc.c:693
		Locate_Addr += len;		
     8ee:	683b      	ldr	r3, [r7, #0]
     8f0:	191b      	adds	r3, r3, r4
     8f2:	603b      	str	r3, [r7, #0]
C:\Users\alon\Desktop\github\iot-fan_at_cnblogs\CH577_CH578_CH579\AN\CH579EVT_USB_DISK_TEST\BLE\ch57x_ble_uart_mrs_app_only_test\obj/../app/ch57x_usb_device_msc.c:694
		if(LEN.mDataLength==0)
     8f4:	682b      	ldr	r3, [r5, #0]
     8f6:	2b00      	cmp	r3, #0
     8f8:	d100      	bne.n	8fc <CH375bulkUpData+0x58>
C:\Users\alon\Desktop\github\iot-fan_at_cnblogs\CH577_CH578_CH579\AN\CH579EVT_USB_DISK_TEST\BLE\ch57x_ble_uart_mrs_app_only_test\obj/../app/ch57x_usb_device_msc.c:695
			pBuf_ReSelect = 0;
     8fa:	7033      	strb	r3, [r6, #0]
C:\Users\alon\Desktop\github\iot-fan_at_cnblogs\CH577_CH578_CH579\AN\CH579EVT_USB_DISK_TEST\BLE\ch57x_ble_uart_mrs_app_only_test\obj/../app/ch57x_usb_device_msc.c:706
		}
	}
	R8_UEP1_T_LEN = len;
	R8_UEP1_CTRL = (R8_UEP1_CTRL & ~ MASK_UEP_T_RES) | UEP_T_RES_ACK;  // ÂÖÅËÆ∏‰∏ä‰º†
     8fc:	2103      	movs	r1, #3
C:\Users\alon\Desktop\github\iot-fan_at_cnblogs\CH577_CH578_CH579\AN\CH579EVT_USB_DISK_TEST\BLE\ch57x_ble_uart_mrs_app_only_test\obj/../app/ch57x_usb_device_msc.c:705
	R8_UEP1_T_LEN = len;
     8fe:	4b09      	ldr	r3, [pc, #36]	; (924 <CH375bulkUpData+0x80>)
C:\Users\alon\Desktop\github\iot-fan_at_cnblogs\CH577_CH578_CH579\AN\CH579EVT_USB_DISK_TEST\BLE\ch57x_ble_uart_mrs_app_only_test\obj/../app/ch57x_usb_device_msc.c:706
	R8_UEP1_CTRL = (R8_UEP1_CTRL & ~ MASK_UEP_T_RES) | UEP_T_RES_ACK;  // ÂÖÅËÆ∏‰∏ä‰º†
     900:	4a09      	ldr	r2, [pc, #36]	; (928 <CH375bulkUpData+0x84>)
C:\Users\alon\Desktop\github\iot-fan_at_cnblogs\CH577_CH578_CH579\AN\CH579EVT_USB_DISK_TEST\BLE\ch57x_ble_uart_mrs_app_only_test\obj/../app/ch57x_usb_device_msc.c:705
	R8_UEP1_T_LEN = len;
     902:	701c      	strb	r4, [r3, #0]
C:\Users\alon\Desktop\github\iot-fan_at_cnblogs\CH577_CH578_CH579\AN\CH579EVT_USB_DISK_TEST\BLE\ch57x_ble_uart_mrs_app_only_test\obj/../app/ch57x_usb_device_msc.c:706
	R8_UEP1_CTRL = (R8_UEP1_CTRL & ~ MASK_UEP_T_RES) | UEP_T_RES_ACK;  // ÂÖÅËÆ∏‰∏ä‰º†
     904:	7813      	ldrb	r3, [r2, #0]
     906:	438b      	bics	r3, r1
     908:	7013      	strb	r3, [r2, #0]
C:\Users\alon\Desktop\github\iot-fan_at_cnblogs\CH577_CH578_CH579\AN\CH579EVT_USB_DISK_TEST\BLE\ch57x_ble_uart_mrs_app_only_test\obj/../app/ch57x_usb_device_msc.c:707
}
     90a:	bdf8      	pop	{r3, r4, r5, r6, r7, pc}
     90c:	2000414c 	.word	0x2000414c
     910:	200041e4 	.word	0x200041e4
     914:	200041e0 	.word	0x200041e0
     918:	20004108 	.word	0x20004108
     91c:	20004082 	.word	0x20004082
     920:	20004150 	.word	0x20004150
     924:	40008024 	.word	0x40008024
     928:	40008026 	.word	0x40008026

0000092c <mCH375BulkDownData>:
mCH375BulkDownData():
C:\Users\alon\Desktop\github\iot-fan_at_cnblogs\CH577_CH578_CH579\AN\CH579EVT_USB_DISK_TEST\BLE\ch57x_ble_uart_mrs_app_only_test\obj/../app/ch57x_usb_device_msc.c:710

void mCH375BulkDownData(void)
{
     92c:	b570      	push	{r4, r5, r6, lr}
C:\Users\alon\Desktop\github\iot-fan_at_cnblogs\CH577_CH578_CH579\AN\CH579EVT_USB_DISK_TEST\BLE\ch57x_ble_uart_mrs_app_only_test\obj/../app/ch57x_usb_device_msc.c:713
	unsigned char len,i;
	
	len = R8_USB_RX_LEN;																								
     92e:	4b0f      	ldr	r3, [pc, #60]	; (96c <mCH375BulkDownData+0x40>)
     930:	4a0f      	ldr	r2, [pc, #60]	; (970 <mCH375BulkDownData+0x44>)
     932:	781c      	ldrb	r4, [r3, #0]
C:\Users\alon\Desktop\github\iot-fan_at_cnblogs\CH577_CH578_CH579\AN\CH579EVT_USB_DISK_TEST\BLE\ch57x_ble_uart_mrs_app_only_test\obj/../app/ch57x_usb_device_msc.c:714
	for(i=0;i!=len;i++)						
     934:	2300      	movs	r3, #0
C:\Users\alon\Desktop\github\iot-fan_at_cnblogs\CH577_CH578_CH579\AN\CH579EVT_USB_DISK_TEST\BLE\ch57x_ble_uart_mrs_app_only_test\obj/../app/ch57x_usb_device_msc.c:715
		buffer[i]=EP1_Databuf[i];	//Â∞ÜÊï∞ÊçÆËØªÂÖ•Âà∞ÁºìÂÜ≤Âå∫
     936:	480f      	ldr	r0, [pc, #60]	; (974 <mCH375BulkDownData+0x48>)
C:\Users\alon\Desktop\github\iot-fan_at_cnblogs\CH577_CH578_CH579\AN\CH579EVT_USB_DISK_TEST\BLE\ch57x_ble_uart_mrs_app_only_test\obj/../app/ch57x_usb_device_msc.c:713
	len = R8_USB_RX_LEN;																								
     938:	b2e4      	uxtb	r4, r4
C:\Users\alon\Desktop\github\iot-fan_at_cnblogs\CH577_CH578_CH579\AN\CH579EVT_USB_DISK_TEST\BLE\ch57x_ble_uart_mrs_app_only_test\obj/../app/ch57x_usb_device_msc.c:714 (discriminator 1)
	for(i=0;i!=len;i++)						
     93a:	b2d9      	uxtb	r1, r3
     93c:	428c      	cmp	r4, r1
     93e:	d111      	bne.n	964 <mCH375BulkDownData+0x38>
C:\Users\alon\Desktop\github\iot-fan_at_cnblogs\CH577_CH578_CH579\AN\CH579EVT_USB_DISK_TEST\BLE\ch57x_ble_uart_mrs_app_only_test\obj/../app/ch57x_usb_device_msc.c:718
	
	#ifdef EXTERNAL_FLASH
		BlukWriteExternalFlash_SPI(Locate_Addr,len,&buffer[0]);
     940:	4d0d      	ldr	r5, [pc, #52]	; (978 <mCH375BulkDownData+0x4c>)
     942:	b2a1      	uxth	r1, r4
     944:	6828      	ldr	r0, [r5, #0]
     946:	f002 fb25 	bl	2f94 <BlukWriteExternalFlash_SPI>
C:\Users\alon\Desktop\github\iot-fan_at_cnblogs\CH577_CH578_CH579\AN\CH579EVT_USB_DISK_TEST\BLE\ch57x_ble_uart_mrs_app_only_test\obj/../app/ch57x_usb_device_msc.c:730
		CodeFlash_WriteBuf(Locate_Addr,len,buffer);
	#endif
	
	//printf("CodeFlash_WriteBuf \n");
	
	Locate_Addr += len;
     94a:	682b      	ldr	r3, [r5, #0]
     94c:	191b      	adds	r3, r3, r4
     94e:	602b      	str	r3, [r5, #0]
C:\Users\alon\Desktop\github\iot-fan_at_cnblogs\CH577_CH578_CH579\AN\CH579EVT_USB_DISK_TEST\BLE\ch57x_ble_uart_mrs_app_only_test\obj/../app/ch57x_usb_device_msc.c:732
	
	LEN.mDataLength-=len;		//ÂÖ®Â±ÄÊï∞ÊçÆÈïøÂ∫¶ÂáèÊéâÂΩìÂâçËé∑ÂæóÁöÑÈïøÂ∫¶
     950:	4b0a      	ldr	r3, [pc, #40]	; (97c <mCH375BulkDownData+0x50>)
     952:	681a      	ldr	r2, [r3, #0]
     954:	1b14      	subs	r4, r2, r4
     956:	601c      	str	r4, [r3, #0]
C:\Users\alon\Desktop\github\iot-fan_at_cnblogs\CH577_CH578_CH579\AN\CH579EVT_USB_DISK_TEST\BLE\ch57x_ble_uart_mrs_app_only_test\obj/../app/ch57x_usb_device_msc.c:734
	
	if(LEN.mDataLength==0)
     958:	d103      	bne.n	962 <mCH375BulkDownData+0x36>
C:\Users\alon\Desktop\github\iot-fan_at_cnblogs\CH577_CH578_CH579\AN\CH579EVT_USB_DISK_TEST\BLE\ch57x_ble_uart_mrs_app_only_test\obj/../app/ch57x_usb_device_msc.c:736
	{							//Â¶ÇÊûúÊï∞ÊçÆ‰∏∫0,Âàô‰º†ÈÄÅCSW
		CH375BULKDOWN=0;
     95a:	4b09      	ldr	r3, [pc, #36]	; (980 <mCH375BulkDownData+0x54>)
     95c:	701c      	strb	r4, [r3, #0]
C:\Users\alon\Desktop\github\iot-fan_at_cnblogs\CH577_CH578_CH579\AN\CH579EVT_USB_DISK_TEST\BLE\ch57x_ble_uart_mrs_app_only_test\obj/../app/ch57x_usb_device_msc.c:737
		mCH375UpCsw();		     //‰∏ä‰º†CSW
     95e:	f7ff ff5d 	bl	81c <mCH375UpCsw>
C:\Users\alon\Desktop\github\iot-fan_at_cnblogs\CH577_CH578_CH579\AN\CH579EVT_USB_DISK_TEST\BLE\ch57x_ble_uart_mrs_app_only_test\obj/../app/ch57x_usb_device_msc.c:739
	}
}
     962:	bd70      	pop	{r4, r5, r6, pc}
C:\Users\alon\Desktop\github\iot-fan_at_cnblogs\CH577_CH578_CH579\AN\CH579EVT_USB_DISK_TEST\BLE\ch57x_ble_uart_mrs_app_only_test\obj/../app/ch57x_usb_device_msc.c:715 (discriminator 3)
		buffer[i]=EP1_Databuf[i];	//Â∞ÜÊï∞ÊçÆËØªÂÖ•Âà∞ÁºìÂÜ≤Âå∫
     964:	5cc1      	ldrb	r1, [r0, r3]
     966:	54d1      	strb	r1, [r2, r3]
C:\Users\alon\Desktop\github\iot-fan_at_cnblogs\CH577_CH578_CH579\AN\CH579EVT_USB_DISK_TEST\BLE\ch57x_ble_uart_mrs_app_only_test\obj/../app/ch57x_usb_device_msc.c:714 (discriminator 3)
	for(i=0;i!=len;i++)						
     968:	3301      	adds	r3, #1
     96a:	e7e6      	b.n	93a <mCH375BulkDownData+0xe>
     96c:	40008008 	.word	0x40008008
     970:	20004198 	.word	0x20004198
     974:	200040c8 	.word	0x200040c8
     978:	20004150 	.word	0x20004150
     97c:	2000414c 	.word	0x2000414c
     980:	20004081 	.word	0x20004081

00000984 <USB_DevTransProcess>:
USB_DevTransProcess():
C:\Users\alon\Desktop\github\iot-fan_at_cnblogs\CH577_CH578_CH579\AN\CH579EVT_USB_DISK_TEST\BLE\ch57x_ble_uart_mrs_app_only_test\obj/../app/ch57x_usb_device_msc.c:744


/*****************************************************************/
void USB_DevTransProcess( void )
{
     984:	b5f7      	push	{r0, r1, r2, r4, r5, r6, r7, lr}
C:\Users\alon\Desktop\github\iot-fan_at_cnblogs\CH577_CH578_CH579\AN\CH579EVT_USB_DISK_TEST\BLE\ch57x_ble_uart_mrs_app_only_test\obj/../app/ch57x_usb_device_msc.c:748
	UINT8  len, chtype, length;
	UINT8  intflag, errflag = 0;
	
	intflag = R8_USB_INT_FG;
     986:	4baf      	ldr	r3, [pc, #700]	; (c44 <USB_DevTransProcess+0x2c0>)
C:\Users\alon\Desktop\github\iot-fan_at_cnblogs\CH577_CH578_CH579\AN\CH579EVT_USB_DISK_TEST\BLE\ch57x_ble_uart_mrs_app_only_test\obj/../app/ch57x_usb_device_msc.c:749
	if( intflag & RB_UIF_TRANSFER )
     988:	2202      	movs	r2, #2
C:\Users\alon\Desktop\github\iot-fan_at_cnblogs\CH577_CH578_CH579\AN\CH579EVT_USB_DISK_TEST\BLE\ch57x_ble_uart_mrs_app_only_test\obj/../app/ch57x_usb_device_msc.c:748
	intflag = R8_USB_INT_FG;
     98a:	7819      	ldrb	r1, [r3, #0]
C:\Users\alon\Desktop\github\iot-fan_at_cnblogs\CH577_CH578_CH579\AN\CH579EVT_USB_DISK_TEST\BLE\ch57x_ble_uart_mrs_app_only_test\obj/../app/ch57x_usb_device_msc.c:749
	if( intflag & RB_UIF_TRANSFER )
     98c:	000c      	movs	r4, r1
C:\Users\alon\Desktop\github\iot-fan_at_cnblogs\CH577_CH578_CH579\AN\CH579EVT_USB_DISK_TEST\BLE\ch57x_ble_uart_mrs_app_only_test\obj/../app/ch57x_usb_device_msc.c:748
	intflag = R8_USB_INT_FG;
     98e:	b2c8      	uxtb	r0, r1
C:\Users\alon\Desktop\github\iot-fan_at_cnblogs\CH577_CH578_CH579\AN\CH579EVT_USB_DISK_TEST\BLE\ch57x_ble_uart_mrs_app_only_test\obj/../app/ch57x_usb_device_msc.c:749
	if( intflag & RB_UIF_TRANSFER )
     990:	4014      	ands	r4, r2
     992:	4211      	tst	r1, r2
     994:	d100      	bne.n	998 <USB_DevTransProcess+0x14>
     996:	e189      	b.n	cac <USB_DevTransProcess+0x328>
C:\Users\alon\Desktop\github\iot-fan_at_cnblogs\CH577_CH578_CH579\AN\CH579EVT_USB_DISK_TEST\BLE\ch57x_ble_uart_mrs_app_only_test\obj/../app/ch57x_usb_device_msc.c:751
	{
		switch ( R8_USB_INT_ST & ( MASK_UIS_TOKEN | MASK_UIS_ENDP ) )     // ÂàÜÊûêÊìç‰Ωú‰ª§ÁâåÂíåÁ´ØÁÇπÂè∑
     998:	203f      	movs	r0, #63	; 0x3f
     99a:	49ab      	ldr	r1, [pc, #684]	; (c48 <USB_DevTransProcess+0x2c4>)
     99c:	780b      	ldrb	r3, [r1, #0]
     99e:	4003      	ands	r3, r0
     9a0:	2b20      	cmp	r3, #32
     9a2:	d100      	bne.n	9a6 <USB_DevTransProcess+0x22>
     9a4:	e0dc      	b.n	b60 <USB_DevTransProcess+0x1dc>
     9a6:	d809      	bhi.n	9bc <USB_DevTransProcess+0x38>
     9a8:	2b00      	cmp	r3, #0
     9aa:	d100      	bne.n	9ae <USB_DevTransProcess+0x2a>
     9ac:	e10a      	b.n	bc4 <USB_DevTransProcess+0x240>
     9ae:	2b01      	cmp	r3, #1
     9b0:	d100      	bne.n	9b4 <USB_DevTransProcess+0x30>
     9b2:	e10a      	b.n	bca <USB_DevTransProcess+0x246>
C:\Users\alon\Desktop\github\iot-fan_at_cnblogs\CH577_CH578_CH579\AN\CH579EVT_USB_DISK_TEST\BLE\ch57x_ble_uart_mrs_app_only_test\obj/../app/ch57x_usb_device_msc.c:968
				break;
			
			default :
				break;
		}
		R8_USB_INT_FG = RB_UIF_TRANSFER;
     9b4:	2302      	movs	r3, #2
     9b6:	4aa3      	ldr	r2, [pc, #652]	; (c44 <USB_DevTransProcess+0x2c0>)
     9b8:	7013      	strb	r3, [r2, #0]
C:\Users\alon\Desktop\github\iot-fan_at_cnblogs\CH577_CH578_CH579\AN\CH579EVT_USB_DISK_TEST\BLE\ch57x_ble_uart_mrs_app_only_test\obj/../app/ch57x_usb_device_msc.c:987
	}
	else
	{
		R8_USB_INT_FG = intflag;
	}
}
     9ba:	bdf7      	pop	{r0, r1, r2, r4, r5, r6, r7, pc}
C:\Users\alon\Desktop\github\iot-fan_at_cnblogs\CH577_CH578_CH579\AN\CH579EVT_USB_DISK_TEST\BLE\ch57x_ble_uart_mrs_app_only_test\obj/../app/ch57x_usb_device_msc.c:751
		switch ( R8_USB_INT_ST & ( MASK_UIS_TOKEN | MASK_UIS_ENDP ) )     // ÂàÜÊûêÊìç‰Ωú‰ª§ÁâåÂíåÁ´ØÁÇπÂè∑
     9bc:	2b21      	cmp	r3, #33	; 0x21
     9be:	d100      	bne.n	9c2 <USB_DevTransProcess+0x3e>
     9c0:	e131      	b.n	c26 <USB_DevTransProcess+0x2a2>
     9c2:	2b30      	cmp	r3, #48	; 0x30
     9c4:	d1f6      	bne.n	9b4 <USB_DevTransProcess+0x30>
C:\Users\alon\Desktop\github\iot-fan_at_cnblogs\CH577_CH578_CH579\AN\CH579EVT_USB_DISK_TEST\BLE\ch57x_ble_uart_mrs_app_only_test\obj/../app/ch57x_usb_device_msc.c:754
                R8_UEP0_CTRL = RB_UEP_R_TOG | RB_UEP_T_TOG | UEP_R_RES_ACK | UEP_T_RES_NAK;
     9c6:	22c2      	movs	r2, #194	; 0xc2
     9c8:	4ba0      	ldr	r3, [pc, #640]	; (c4c <USB_DevTransProcess+0x2c8>)
     9ca:	701a      	strb	r2, [r3, #0]
C:\Users\alon\Desktop\github\iot-fan_at_cnblogs\CH577_CH578_CH579\AN\CH579EVT_USB_DISK_TEST\BLE\ch57x_ble_uart_mrs_app_only_test\obj/../app/ch57x_usb_device_msc.c:755
				len = R8_USB_RX_LEN;
     9cc:	4aa0      	ldr	r2, [pc, #640]	; (c50 <USB_DevTransProcess+0x2cc>)
     9ce:	7812      	ldrb	r2, [r2, #0]
C:\Users\alon\Desktop\github\iot-fan_at_cnblogs\CH577_CH578_CH579\AN\CH579EVT_USB_DISK_TEST\BLE\ch57x_ble_uart_mrs_app_only_test\obj/../app/ch57x_usb_device_msc.c:756
                if ( len == sizeof( USB_SETUP_REQ ) ) 
     9d0:	9301      	str	r3, [sp, #4]
     9d2:	2a08      	cmp	r2, #8
     9d4:	d168      	bne.n	aa8 <USB_DevTransProcess+0x124>
C:\Users\alon\Desktop\github\iot-fan_at_cnblogs\CH577_CH578_CH579\AN\CH579EVT_USB_DISK_TEST\BLE\ch57x_ble_uart_mrs_app_only_test\obj/../app/ch57x_usb_device_msc.c:758
					SetupReqLen = pSetupReqPak->wLength;
     9d6:	4a9f      	ldr	r2, [pc, #636]	; (c54 <USB_DevTransProcess+0x2d0>)
     9d8:	4c9f      	ldr	r4, [pc, #636]	; (c58 <USB_DevTransProcess+0x2d4>)
     9da:	6813      	ldr	r3, [r2, #0]
C:\Users\alon\Desktop\github\iot-fan_at_cnblogs\CH577_CH578_CH579\AN\CH579EVT_USB_DISK_TEST\BLE\ch57x_ble_uart_mrs_app_only_test\obj/../app/ch57x_usb_device_msc.c:759
                    SetupReqCode = pSetupReqPak->bRequest;
     9dc:	4d9f      	ldr	r5, [pc, #636]	; (c5c <USB_DevTransProcess+0x2d8>)
C:\Users\alon\Desktop\github\iot-fan_at_cnblogs\CH577_CH578_CH579\AN\CH579EVT_USB_DISK_TEST\BLE\ch57x_ble_uart_mrs_app_only_test\obj/../app/ch57x_usb_device_msc.c:758
					SetupReqLen = pSetupReqPak->wLength;
     9de:	79d9      	ldrb	r1, [r3, #7]
     9e0:	7998      	ldrb	r0, [r3, #6]
     9e2:	0209      	lsls	r1, r1, #8
     9e4:	4301      	orrs	r1, r0
     9e6:	8021      	strh	r1, [r4, #0]
C:\Users\alon\Desktop\github\iot-fan_at_cnblogs\CH577_CH578_CH579\AN\CH579EVT_USB_DISK_TEST\BLE\ch57x_ble_uart_mrs_app_only_test\obj/../app/ch57x_usb_device_msc.c:759
                    SetupReqCode = pSetupReqPak->bRequest;
     9e8:	7858      	ldrb	r0, [r3, #1]
     9ea:	7028      	strb	r0, [r5, #0]
C:\Users\alon\Desktop\github\iot-fan_at_cnblogs\CH577_CH578_CH579\AN\CH579EVT_USB_DISK_TEST\BLE\ch57x_ble_uart_mrs_app_only_test\obj/../app/ch57x_usb_device_msc.c:760
					chtype = pSetupReqPak->bRequestType;
     9ec:	781d      	ldrb	r5, [r3, #0]
     9ee:	9500      	str	r5, [sp, #0]
C:\Users\alon\Desktop\github\iot-fan_at_cnblogs\CH577_CH578_CH579\AN\CH579EVT_USB_DISK_TEST\BLE\ch57x_ble_uart_mrs_app_only_test\obj/../app/ch57x_usb_device_msc.c:765
					if ( ( pSetupReqPak->bRequestType & USB_REQ_TYP_MASK ) != USB_REQ_TYP_STANDARD )   
     9f0:	2560      	movs	r5, #96	; 0x60
     9f2:	9f00      	ldr	r7, [sp, #0]
     9f4:	9e00      	ldr	r6, [sp, #0]
     9f6:	402f      	ands	r7, r5
     9f8:	422e      	tst	r6, r5
     9fa:	d028      	beq.n	a4e <USB_DevTransProcess+0xca>
C:\Users\alon\Desktop\github\iot-fan_at_cnblogs\CH577_CH578_CH579\AN\CH579EVT_USB_DISK_TEST\BLE\ch57x_ble_uart_mrs_app_only_test\obj/../app/ch57x_usb_device_msc.c:768
						if(SetupReqCode == 0xFE)   //GET MAX LUN
     9fc:	28fe      	cmp	r0, #254	; 0xfe
     9fe:	d114      	bne.n	a2a <USB_DevTransProcess+0xa6>
C:\Users\alon\Desktop\github\iot-fan_at_cnblogs\CH577_CH578_CH579\AN\CH579EVT_USB_DISK_TEST\BLE\ch57x_ble_uart_mrs_app_only_test\obj/../app/ch57x_usb_device_msc.c:772
						    if ( SetupReqLen > len )
     a00:	2901      	cmp	r1, #1
     a02:	d901      	bls.n	a08 <USB_DevTransProcess+0x84>
C:\Users\alon\Desktop\github\iot-fan_at_cnblogs\CH577_CH578_CH579\AN\CH579EVT_USB_DISK_TEST\BLE\ch57x_ble_uart_mrs_app_only_test\obj/../app/ch57x_usb_device_msc.c:774
                                SetupReqLen = len;                                 // ÈôêÂà∂ÊÄªÈïøÂ∫¶
     a04:	2301      	movs	r3, #1
     a06:	8023      	strh	r3, [r4, #0]
C:\Users\alon\Desktop\github\iot-fan_at_cnblogs\CH577_CH578_CH579\AN\CH579EVT_USB_DISK_TEST\BLE\ch57x_ble_uart_mrs_app_only_test\obj/../app/ch57x_usb_device_msc.c:776
                            len = SetupReqLen >= DevEP0SIZE ? DevEP0SIZE : SetupReqLen;  // Êú¨Ê¨°‰º†ËæìÈïøÂ∫¶
     a08:	8826      	ldrh	r6, [r4, #0]
     a0a:	1c35      	adds	r5, r6, #0
     a0c:	2e40      	cmp	r6, #64	; 0x40
     a0e:	d900      	bls.n	a12 <USB_DevTransProcess+0x8e>
     a10:	2540      	movs	r5, #64	; 0x40
C:\Users\alon\Desktop\github\iot-fan_at_cnblogs\CH577_CH578_CH579\AN\CH579EVT_USB_DISK_TEST\BLE\ch57x_ble_uart_mrs_app_only_test\obj/../app/ch57x_usb_device_msc.c:777
                            memcpy( EP0_Databuf, pDescr, len );                   /* Âä†ËΩΩ‰∏ä‰º†Êï∞ÊçÆ */
     a12:	4f93      	ldr	r7, [pc, #588]	; (c60 <USB_DevTransProcess+0x2dc>)
C:\Users\alon\Desktop\github\iot-fan_at_cnblogs\CH577_CH578_CH579\AN\CH579EVT_USB_DISK_TEST\BLE\ch57x_ble_uart_mrs_app_only_test\obj/../app/ch57x_usb_device_msc.c:776
                            len = SetupReqLen >= DevEP0SIZE ? DevEP0SIZE : SetupReqLen;  // Êú¨Ê¨°‰º†ËæìÈïøÂ∫¶
     a14:	b2ad      	uxth	r5, r5
C:\Users\alon\Desktop\github\iot-fan_at_cnblogs\CH577_CH578_CH579\AN\CH579EVT_USB_DISK_TEST\BLE\ch57x_ble_uart_mrs_app_only_test\obj/../app/ch57x_usb_device_msc.c:777
                            memcpy( EP0_Databuf, pDescr, len );                   /* Âä†ËΩΩ‰∏ä‰º†Êï∞ÊçÆ */
     a16:	002a      	movs	r2, r5
     a18:	0039      	movs	r1, r7
     a1a:	4892      	ldr	r0, [pc, #584]	; (c64 <USB_DevTransProcess+0x2e0>)
     a1c:	f002 ffb2 	bl	3984 <memcpy>
C:\Users\alon\Desktop\github\iot-fan_at_cnblogs\CH577_CH578_CH579\AN\CH579EVT_USB_DISK_TEST\BLE\ch57x_ble_uart_mrs_app_only_test\obj/../app/ch57x_usb_device_msc.c:779
                            pDescr += len;	
     a20:	4b91      	ldr	r3, [pc, #580]	; (c68 <USB_DevTransProcess+0x2e4>)
C:\Users\alon\Desktop\github\iot-fan_at_cnblogs\CH577_CH578_CH579\AN\CH579EVT_USB_DISK_TEST\BLE\ch57x_ble_uart_mrs_app_only_test\obj/../app/ch57x_usb_device_msc.c:778
                            SetupReqLen -= len;
     a22:	1b76      	subs	r6, r6, r5
C:\Users\alon\Desktop\github\iot-fan_at_cnblogs\CH577_CH578_CH579\AN\CH579EVT_USB_DISK_TEST\BLE\ch57x_ble_uart_mrs_app_only_test\obj/../app/ch57x_usb_device_msc.c:779
                            pDescr += len;	
     a24:	197d      	adds	r5, r7, r5
C:\Users\alon\Desktop\github\iot-fan_at_cnblogs\CH577_CH578_CH579\AN\CH579EVT_USB_DISK_TEST\BLE\ch57x_ble_uart_mrs_app_only_test\obj/../app/ch57x_usb_device_msc.c:778
                            SetupReqLen -= len;
     a26:	8026      	strh	r6, [r4, #0]
C:\Users\alon\Desktop\github\iot-fan_at_cnblogs\CH577_CH578_CH579\AN\CH579EVT_USB_DISK_TEST\BLE\ch57x_ble_uart_mrs_app_only_test\obj/../app/ch57x_usb_device_msc.c:779
                            pDescr += len;	
     a28:	601d      	str	r5, [r3, #0]
C:\Users\alon\Desktop\github\iot-fan_at_cnblogs\CH577_CH578_CH579\AN\CH579EVT_USB_DISK_TEST\BLE\ch57x_ble_uart_mrs_app_only_test\obj/../app/ch57x_usb_device_msc.c:896
					if( chtype & 0x80 )		// ‰∏ä‰º†
     a2a:	466b      	mov	r3, sp
C:\Users\alon\Desktop\github\iot-fan_at_cnblogs\CH577_CH578_CH579\AN\CH579EVT_USB_DISK_TEST\BLE\ch57x_ble_uart_mrs_app_only_test\obj/../app/ch57x_usb_device_msc.c:901
					else len = 0;		// ‰∏ã‰º†
     a2c:	2100      	movs	r1, #0
C:\Users\alon\Desktop\github\iot-fan_at_cnblogs\CH577_CH578_CH579\AN\CH579EVT_USB_DISK_TEST\BLE\ch57x_ble_uart_mrs_app_only_test\obj/../app/ch57x_usb_device_msc.c:896
					if( chtype & 0x80 )		// ‰∏ä‰º†
     a2e:	781b      	ldrb	r3, [r3, #0]
     a30:	b25b      	sxtb	r3, r3
     a32:	428b      	cmp	r3, r1
     a34:	da07      	bge.n	a46 <USB_DevTransProcess+0xc2>
C:\Users\alon\Desktop\github\iot-fan_at_cnblogs\CH577_CH578_CH579\AN\CH579EVT_USB_DISK_TEST\BLE\ch57x_ble_uart_mrs_app_only_test\obj/../app/ch57x_usb_device_msc.c:898
						len = (SetupReqLen>DevEP0SIZE) ? DevEP0SIZE : SetupReqLen;
     a36:	8823      	ldrh	r3, [r4, #0]
     a38:	1c1a      	adds	r2, r3, #0
     a3a:	2b40      	cmp	r3, #64	; 0x40
     a3c:	d900      	bls.n	a40 <USB_DevTransProcess+0xbc>
     a3e:	2240      	movs	r2, #64	; 0x40
C:\Users\alon\Desktop\github\iot-fan_at_cnblogs\CH577_CH578_CH579\AN\CH579EVT_USB_DISK_TEST\BLE\ch57x_ble_uart_mrs_app_only_test\obj/../app/ch57x_usb_device_msc.c:899
						SetupReqLen -= len;
     a40:	1a9b      	subs	r3, r3, r2
C:\Users\alon\Desktop\github\iot-fan_at_cnblogs\CH577_CH578_CH579\AN\CH579EVT_USB_DISK_TEST\BLE\ch57x_ble_uart_mrs_app_only_test\obj/../app/ch57x_usb_device_msc.c:898
						len = (SetupReqLen>DevEP0SIZE) ? DevEP0SIZE : SetupReqLen;
     a42:	b2d1      	uxtb	r1, r2
C:\Users\alon\Desktop\github\iot-fan_at_cnblogs\CH577_CH578_CH579\AN\CH579EVT_USB_DISK_TEST\BLE\ch57x_ble_uart_mrs_app_only_test\obj/../app/ch57x_usb_device_msc.c:899
						SetupReqLen -= len;
     a44:	8023      	strh	r3, [r4, #0]
C:\Users\alon\Desktop\github\iot-fan_at_cnblogs\CH577_CH578_CH579\AN\CH579EVT_USB_DISK_TEST\BLE\ch57x_ble_uart_mrs_app_only_test\obj/../app/ch57x_usb_device_msc.c:903
					R8_UEP0_T_LEN = len; 
     a46:	4b89      	ldr	r3, [pc, #548]	; (c6c <USB_DevTransProcess+0x2e8>)
     a48:	7019      	strb	r1, [r3, #0]
C:\Users\alon\Desktop\github\iot-fan_at_cnblogs\CH577_CH578_CH579\AN\CH579EVT_USB_DISK_TEST\BLE\ch57x_ble_uart_mrs_app_only_test\obj/../app/ch57x_usb_device_msc.c:904
                    R8_UEP0_CTRL = RB_UEP_R_TOG | RB_UEP_T_TOG | UEP_R_RES_ACK | UEP_T_RES_ACK;  // ÈªòËÆ§Êï∞ÊçÆÂåÖÊòØDATA1
     a4a:	23c0      	movs	r3, #192	; 0xc0
     a4c:	e02d      	b.n	aaa <USB_DevTransProcess+0x126>
C:\Users\alon\Desktop\github\iot-fan_at_cnblogs\CH577_CH578_CH579\AN\CH579EVT_USB_DISK_TEST\BLE\ch57x_ble_uart_mrs_app_only_test\obj/../app/ch57x_usb_device_msc.c:784
						switch( SetupReqCode )  
     a4e:	280a      	cmp	r0, #10
     a50:	d82a      	bhi.n	aa8 <USB_DevTransProcess+0x124>
     a52:	f7ff fb27 	bl	a4 <__gnu_thumb1_case_uqi>
     a56:	577b      	.short	0x577b
     a58:	48292929 	.word	0x48292929
     a5c:	534b2906 	.word	0x534b2906
     a60:	79          	.byte	0x79
     a61:	00          	.byte	0x00
C:\Users\alon\Desktop\github\iot-fan_at_cnblogs\CH577_CH578_CH579\AN\CH579EVT_USB_DISK_TEST\BLE\ch57x_ble_uart_mrs_app_only_test\obj/../app/ch57x_usb_device_msc.c:788
								switch( ((pSetupReqPak->wValue)>>8) )
     a62:	78da      	ldrb	r2, [r3, #3]
     a64:	7898      	ldrb	r0, [r3, #2]
     a66:	0212      	lsls	r2, r2, #8
     a68:	4310      	orrs	r0, r2
     a6a:	4d7f      	ldr	r5, [pc, #508]	; (c68 <USB_DevTransProcess+0x2e4>)
     a6c:	0a12      	lsrs	r2, r2, #8
     a6e:	2a02      	cmp	r2, #2
     a70:	d01e      	beq.n	ab0 <USB_DevTransProcess+0x12c>
     a72:	2a03      	cmp	r2, #3
     a74:	d020      	beq.n	ab8 <USB_DevTransProcess+0x134>
     a76:	2a01      	cmp	r2, #1
     a78:	d126      	bne.n	ac8 <USB_DevTransProcess+0x144>
C:\Users\alon\Desktop\github\iot-fan_at_cnblogs\CH577_CH578_CH579\AN\CH579EVT_USB_DISK_TEST\BLE\ch57x_ble_uart_mrs_app_only_test\obj/../app/ch57x_usb_device_msc.c:791
										pDescr = MyDevDescr;
     a7a:	4a7d      	ldr	r2, [pc, #500]	; (c70 <USB_DevTransProcess+0x2ec>)
     a7c:	602a      	str	r2, [r5, #0]
C:\Users\alon\Desktop\github\iot-fan_at_cnblogs\CH577_CH578_CH579\AN\CH579EVT_USB_DISK_TEST\BLE\ch57x_ble_uart_mrs_app_only_test\obj/../app/ch57x_usb_device_msc.c:792
										len = MyDevDescr[0];
     a7e:	2212      	movs	r2, #18
C:\Users\alon\Desktop\github\iot-fan_at_cnblogs\CH577_CH578_CH579\AN\CH579EVT_USB_DISK_TEST\BLE\ch57x_ble_uart_mrs_app_only_test\obj/../app/ch57x_usb_device_msc.c:825
								if( SetupReqLen>len )	SetupReqLen = len;		//ÂÆûÈôÖÈúÄ‰∏ä‰º†ÊÄªÈïøÂ∫¶
     a80:	b290      	uxth	r0, r2
     a82:	4291      	cmp	r1, r2
     a84:	d900      	bls.n	a88 <USB_DevTransProcess+0x104>
     a86:	8020      	strh	r0, [r4, #0]
C:\Users\alon\Desktop\github\iot-fan_at_cnblogs\CH577_CH578_CH579\AN\CH579EVT_USB_DISK_TEST\BLE\ch57x_ble_uart_mrs_app_only_test\obj/../app/ch57x_usb_device_msc.c:826
								len = (SetupReqLen >= DevEP0SIZE) ? DevEP0SIZE : SetupReqLen;  
     a88:	8822      	ldrh	r2, [r4, #0]
     a8a:	1c16      	adds	r6, r2, #0
     a8c:	2a40      	cmp	r2, #64	; 0x40
     a8e:	d900      	bls.n	a92 <USB_DevTransProcess+0x10e>
     a90:	2640      	movs	r6, #64	; 0x40
C:\Users\alon\Desktop\github\iot-fan_at_cnblogs\CH577_CH578_CH579\AN\CH579EVT_USB_DISK_TEST\BLE\ch57x_ble_uart_mrs_app_only_test\obj/../app/ch57x_usb_device_msc.c:827
								memcpy( pEP0_DataBuf, pDescr, len );   
     a92:	b2b6      	uxth	r6, r6
     a94:	0032      	movs	r2, r6
     a96:	0018      	movs	r0, r3
     a98:	6829      	ldr	r1, [r5, #0]
     a9a:	f002 ff73 	bl	3984 <memcpy>
C:\Users\alon\Desktop\github\iot-fan_at_cnblogs\CH577_CH578_CH579\AN\CH579EVT_USB_DISK_TEST\BLE\ch57x_ble_uart_mrs_app_only_test\obj/../app/ch57x_usb_device_msc.c:828
								pDescr += len;
     a9e:	682b      	ldr	r3, [r5, #0]
     aa0:	199e      	adds	r6, r3, r6
     aa2:	602e      	str	r6, [r5, #0]
C:\Users\alon\Desktop\github\iot-fan_at_cnblogs\CH577_CH578_CH579\AN\CH579EVT_USB_DISK_TEST\BLE\ch57x_ble_uart_mrs_app_only_test\obj/../app/ch57x_usb_device_msc.c:889
				if( errflag == 0xff)		// ÈîôËØØÊàñ‰∏çÊîØÊåÅ
     aa4:	2fff      	cmp	r7, #255	; 0xff
     aa6:	d1c0      	bne.n	a2a <USB_DevTransProcess+0xa6>
C:\Users\alon\Desktop\github\iot-fan_at_cnblogs\CH577_CH578_CH579\AN\CH579EVT_USB_DISK_TEST\BLE\ch57x_ble_uart_mrs_app_only_test\obj/../app/ch57x_usb_device_msc.c:892
                    R8_UEP0_CTRL = RB_UEP_R_TOG | RB_UEP_T_TOG | UEP_R_RES_STALL | UEP_T_RES_STALL;  // STALL
     aa8:	23cf      	movs	r3, #207	; 0xcf
C:\Users\alon\Desktop\github\iot-fan_at_cnblogs\CH577_CH578_CH579\AN\CH579EVT_USB_DISK_TEST\BLE\ch57x_ble_uart_mrs_app_only_test\obj/../app/ch57x_usb_device_msc.c:904
                    R8_UEP0_CTRL = RB_UEP_R_TOG | RB_UEP_T_TOG | UEP_R_RES_ACK | UEP_T_RES_ACK;  // ÈªòËÆ§Êï∞ÊçÆÂåÖÊòØDATA1
     aaa:	9a01      	ldr	r2, [sp, #4]
     aac:	7013      	strb	r3, [r2, #0]
     aae:	e781      	b.n	9b4 <USB_DevTransProcess+0x30>
C:\Users\alon\Desktop\github\iot-fan_at_cnblogs\CH577_CH578_CH579\AN\CH579EVT_USB_DISK_TEST\BLE\ch57x_ble_uart_mrs_app_only_test\obj/../app/ch57x_usb_device_msc.c:796
										pDescr = MyCfgDescr;
     ab0:	4a70      	ldr	r2, [pc, #448]	; (c74 <USB_DevTransProcess+0x2f0>)
     ab2:	602a      	str	r2, [r5, #0]
C:\Users\alon\Desktop\github\iot-fan_at_cnblogs\CH577_CH578_CH579\AN\CH579EVT_USB_DISK_TEST\BLE\ch57x_ble_uart_mrs_app_only_test\obj/../app/ch57x_usb_device_msc.c:797
										len = MyCfgDescr[2];
     ab4:	2220      	movs	r2, #32
C:\Users\alon\Desktop\github\iot-fan_at_cnblogs\CH577_CH578_CH579\AN\CH579EVT_USB_DISK_TEST\BLE\ch57x_ble_uart_mrs_app_only_test\obj/../app/ch57x_usb_device_msc.c:798
										break;
     ab6:	e7e3      	b.n	a80 <USB_DevTransProcess+0xfc>
C:\Users\alon\Desktop\github\iot-fan_at_cnblogs\CH577_CH578_CH579\AN\CH579EVT_USB_DISK_TEST\BLE\ch57x_ble_uart_mrs_app_only_test\obj/../app/ch57x_usb_device_msc.c:801
										switch( (pSetupReqPak->wValue)&0xff )
     ab8:	26ff      	movs	r6, #255	; 0xff
     aba:	4030      	ands	r0, r6
     abc:	2801      	cmp	r0, #1
     abe:	d006      	beq.n	ace <USB_DevTransProcess+0x14a>
     ac0:	2802      	cmp	r0, #2
     ac2:	d008      	beq.n	ad6 <USB_DevTransProcess+0x152>
     ac4:	2800      	cmp	r0, #0
     ac6:	d00a      	beq.n	ade <USB_DevTransProcess+0x15a>
     ac8:	2200      	movs	r2, #0
     aca:	27ff      	movs	r7, #255	; 0xff
     acc:	e7d8      	b.n	a80 <USB_DevTransProcess+0xfc>
C:\Users\alon\Desktop\github\iot-fan_at_cnblogs\CH577_CH578_CH579\AN\CH579EVT_USB_DISK_TEST\BLE\ch57x_ble_uart_mrs_app_only_test\obj/../app/ch57x_usb_device_msc.c:804
												pDescr = MyManuInfo;
     ace:	4a6a      	ldr	r2, [pc, #424]	; (c78 <USB_DevTransProcess+0x2f4>)
     ad0:	602a      	str	r2, [r5, #0]
C:\Users\alon\Desktop\github\iot-fan_at_cnblogs\CH577_CH578_CH579\AN\CH579EVT_USB_DISK_TEST\BLE\ch57x_ble_uart_mrs_app_only_test\obj/../app/ch57x_usb_device_msc.c:805
												len = MyManuInfo[0];
     ad2:	220e      	movs	r2, #14
C:\Users\alon\Desktop\github\iot-fan_at_cnblogs\CH577_CH578_CH579\AN\CH579EVT_USB_DISK_TEST\BLE\ch57x_ble_uart_mrs_app_only_test\obj/../app/ch57x_usb_device_msc.c:806
												break;
     ad4:	e7d4      	b.n	a80 <USB_DevTransProcess+0xfc>
C:\Users\alon\Desktop\github\iot-fan_at_cnblogs\CH577_CH578_CH579\AN\CH579EVT_USB_DISK_TEST\BLE\ch57x_ble_uart_mrs_app_only_test\obj/../app/ch57x_usb_device_msc.c:808
												pDescr = MyProdInfo;
     ad6:	4a69      	ldr	r2, [pc, #420]	; (c7c <USB_DevTransProcess+0x2f8>)
     ad8:	602a      	str	r2, [r5, #0]
C:\Users\alon\Desktop\github\iot-fan_at_cnblogs\CH577_CH578_CH579\AN\CH579EVT_USB_DISK_TEST\BLE\ch57x_ble_uart_mrs_app_only_test\obj/../app/ch57x_usb_device_msc.c:809
												len = MyProdInfo[0];
     ada:	220c      	movs	r2, #12
C:\Users\alon\Desktop\github\iot-fan_at_cnblogs\CH577_CH578_CH579\AN\CH579EVT_USB_DISK_TEST\BLE\ch57x_ble_uart_mrs_app_only_test\obj/../app/ch57x_usb_device_msc.c:810
												break;
     adc:	e7d0      	b.n	a80 <USB_DevTransProcess+0xfc>
C:\Users\alon\Desktop\github\iot-fan_at_cnblogs\CH577_CH578_CH579\AN\CH579EVT_USB_DISK_TEST\BLE\ch57x_ble_uart_mrs_app_only_test\obj/../app/ch57x_usb_device_msc.c:812
												pDescr = MyLangDescr;
     ade:	4a68      	ldr	r2, [pc, #416]	; (c80 <USB_DevTransProcess+0x2fc>)
     ae0:	602a      	str	r2, [r5, #0]
C:\Users\alon\Desktop\github\iot-fan_at_cnblogs\CH577_CH578_CH579\AN\CH579EVT_USB_DISK_TEST\BLE\ch57x_ble_uart_mrs_app_only_test\obj/../app/ch57x_usb_device_msc.c:813
												len = MyLangDescr[0];
     ae2:	2204      	movs	r2, #4
C:\Users\alon\Desktop\github\iot-fan_at_cnblogs\CH577_CH578_CH579\AN\CH579EVT_USB_DISK_TEST\BLE\ch57x_ble_uart_mrs_app_only_test\obj/../app/ch57x_usb_device_msc.c:814
												break;
     ae4:	e7cc      	b.n	a80 <USB_DevTransProcess+0xfc>
C:\Users\alon\Desktop\github\iot-fan_at_cnblogs\CH577_CH578_CH579\AN\CH579EVT_USB_DISK_TEST\BLE\ch57x_ble_uart_mrs_app_only_test\obj/../app/ch57x_usb_device_msc.c:833
								SetupReqLen = (pSetupReqPak->wValue)&0xff;
     ae6:	789b      	ldrb	r3, [r3, #2]
C:\Users\alon\Desktop\github\iot-fan_at_cnblogs\CH577_CH578_CH579\AN\CH579EVT_USB_DISK_TEST\BLE\ch57x_ble_uart_mrs_app_only_test\obj/../app/ch57x_usb_device_msc.c:878
								if ( SetupReqLen > 2 )		SetupReqLen = 2;
     ae8:	8023      	strh	r3, [r4, #0]
C:\Users\alon\Desktop\github\iot-fan_at_cnblogs\CH577_CH578_CH579\AN\CH579EVT_USB_DISK_TEST\BLE\ch57x_ble_uart_mrs_app_only_test\obj/../app/ch57x_usb_device_msc.c:889
				if( errflag == 0xff)		// ÈîôËØØÊàñ‰∏çÊîØÊåÅ
     aea:	e79e      	b.n	a2a <USB_DevTransProcess+0xa6>
C:\Users\alon\Desktop\github\iot-fan_at_cnblogs\CH577_CH578_CH579\AN\CH579EVT_USB_DISK_TEST\BLE\ch57x_ble_uart_mrs_app_only_test\obj/../app/ch57x_usb_device_msc.c:837
								pEP0_DataBuf[0] = DevConfig;
     aec:	4a65      	ldr	r2, [pc, #404]	; (c84 <USB_DevTransProcess+0x300>)
     aee:	7812      	ldrb	r2, [r2, #0]
     af0:	701a      	strb	r2, [r3, #0]
C:\Users\alon\Desktop\github\iot-fan_at_cnblogs\CH577_CH578_CH579\AN\CH579EVT_USB_DISK_TEST\BLE\ch57x_ble_uart_mrs_app_only_test\obj/../app/ch57x_usb_device_msc.c:838
								if ( SetupReqLen > 1 )		SetupReqLen = 1;
     af2:	8823      	ldrh	r3, [r4, #0]
     af4:	2b01      	cmp	r3, #1
     af6:	d998      	bls.n	a2a <USB_DevTransProcess+0xa6>
     af8:	2301      	movs	r3, #1
     afa:	e7f5      	b.n	ae8 <USB_DevTransProcess+0x164>
C:\Users\alon\Desktop\github\iot-fan_at_cnblogs\CH577_CH578_CH579\AN\CH579EVT_USB_DISK_TEST\BLE\ch57x_ble_uart_mrs_app_only_test\obj/../app/ch57x_usb_device_msc.c:842
								DevConfig = (pSetupReqPak->wValue)&0xff;
     afc:	789a      	ldrb	r2, [r3, #2]
     afe:	4b61      	ldr	r3, [pc, #388]	; (c84 <USB_DevTransProcess+0x300>)
C:\Users\alon\Desktop\github\iot-fan_at_cnblogs\CH577_CH578_CH579\AN\CH579EVT_USB_DISK_TEST\BLE\ch57x_ble_uart_mrs_app_only_test\obj/../app/ch57x_usb_device_msc.c:860
										FSTALL = 0;
     b00:	701a      	strb	r2, [r3, #0]
C:\Users\alon\Desktop\github\iot-fan_at_cnblogs\CH577_CH578_CH579\AN\CH579EVT_USB_DISK_TEST\BLE\ch57x_ble_uart_mrs_app_only_test\obj/../app/ch57x_usb_device_msc.c:889
				if( errflag == 0xff)		// ÈîôËØØÊàñ‰∏çÊîØÊåÅ
     b02:	e792      	b.n	a2a <USB_DevTransProcess+0xa6>
C:\Users\alon\Desktop\github\iot-fan_at_cnblogs\CH577_CH578_CH579\AN\CH579EVT_USB_DISK_TEST\BLE\ch57x_ble_uart_mrs_app_only_test\obj/../app/ch57x_usb_device_msc.c:846
								if ( ( pSetupReqPak->bRequestType & USB_REQ_RECIP_MASK ) == USB_REQ_RECIP_ENDP )    // Á´ØÁÇπ
     b04:	221f      	movs	r2, #31
     b06:	9900      	ldr	r1, [sp, #0]
     b08:	400a      	ands	r2, r1
     b0a:	2a02      	cmp	r2, #2
     b0c:	d1cc      	bne.n	aa8 <USB_DevTransProcess+0x124>
C:\Users\alon\Desktop\github\iot-fan_at_cnblogs\CH577_CH578_CH579\AN\CH579EVT_USB_DISK_TEST\BLE\ch57x_ble_uart_mrs_app_only_test\obj/../app/ch57x_usb_device_msc.c:848
									switch( (pSetupReqPak->wIndex)&0xff )
     b0e:	791b      	ldrb	r3, [r3, #4]
     b10:	2b01      	cmp	r3, #1
     b12:	d013      	beq.n	b3c <USB_DevTransProcess+0x1b8>
     b14:	2b81      	cmp	r3, #129	; 0x81
     b16:	d1c7      	bne.n	aa8 <USB_DevTransProcess+0x124>
C:\Users\alon\Desktop\github\iot-fan_at_cnblogs\CH577_CH578_CH579\AN\CH579EVT_USB_DISK_TEST\BLE\ch57x_ble_uart_mrs_app_only_test\obj/../app/ch57x_usb_device_msc.c:851
										R8_UEP1_CTRL = (R8_UEP1_CTRL & ~( RB_UEP_T_TOG|MASK_UEP_T_RES )) | UEP_T_RES_NAK;
     b18:	2043      	movs	r0, #67	; 0x43
     b1a:	495b      	ldr	r1, [pc, #364]	; (c88 <USB_DevTransProcess+0x304>)
     b1c:	780b      	ldrb	r3, [r1, #0]
     b1e:	4383      	bics	r3, r0
     b20:	431a      	orrs	r2, r3
     b22:	700a      	strb	r2, [r1, #0]
C:\Users\alon\Desktop\github\iot-fan_at_cnblogs\CH577_CH578_CH579\AN\CH579EVT_USB_DISK_TEST\BLE\ch57x_ble_uart_mrs_app_only_test\obj/../app/ch57x_usb_device_msc.c:858
										if(CH375CSW) mCH375UpCsw();
     b24:	4b59      	ldr	r3, [pc, #356]	; (c8c <USB_DevTransProcess+0x308>)
     b26:	781b      	ldrb	r3, [r3, #0]
     b28:	2b00      	cmp	r3, #0
     b2a:	d001      	beq.n	b30 <USB_DevTransProcess+0x1ac>
     b2c:	f7ff fe76 	bl	81c <mCH375UpCsw>
C:\Users\alon\Desktop\github\iot-fan_at_cnblogs\CH577_CH578_CH579\AN\CH579EVT_USB_DISK_TEST\BLE\ch57x_ble_uart_mrs_app_only_test\obj/../app/ch57x_usb_device_msc.c:859
										lastFSTALL = FSTALL;
     b30:	4b57      	ldr	r3, [pc, #348]	; (c90 <USB_DevTransProcess+0x30c>)
     b32:	4a58      	ldr	r2, [pc, #352]	; (c94 <USB_DevTransProcess+0x310>)
     b34:	7819      	ldrb	r1, [r3, #0]
     b36:	7011      	strb	r1, [r2, #0]
C:\Users\alon\Desktop\github\iot-fan_at_cnblogs\CH577_CH578_CH579\AN\CH579EVT_USB_DISK_TEST\BLE\ch57x_ble_uart_mrs_app_only_test\obj/../app/ch57x_usb_device_msc.c:860
										FSTALL = 0;
     b38:	2200      	movs	r2, #0
     b3a:	e7e1      	b.n	b00 <USB_DevTransProcess+0x17c>
C:\Users\alon\Desktop\github\iot-fan_at_cnblogs\CH577_CH578_CH579\AN\CH579EVT_USB_DISK_TEST\BLE\ch57x_ble_uart_mrs_app_only_test\obj/../app/ch57x_usb_device_msc.c:857
										R8_UEP1_CTRL = (R8_UEP1_CTRL & ~( RB_UEP_R_TOG|MASK_UEP_R_RES )) | UEP_R_RES_ACK;
     b3c:	2173      	movs	r1, #115	; 0x73
     b3e:	4a52      	ldr	r2, [pc, #328]	; (c88 <USB_DevTransProcess+0x304>)
     b40:	7813      	ldrb	r3, [r2, #0]
     b42:	400b      	ands	r3, r1
     b44:	7013      	strb	r3, [r2, #0]
     b46:	e7ed      	b.n	b24 <USB_DevTransProcess+0x1a0>
C:\Users\alon\Desktop\github\iot-fan_at_cnblogs\CH577_CH578_CH579\AN\CH579EVT_USB_DISK_TEST\BLE\ch57x_ble_uart_mrs_app_only_test\obj/../app/ch57x_usb_device_msc.c:871
								pEP0_DataBuf[0] = 0x00;
     b48:	2200      	movs	r2, #0
     b4a:	e7d1      	b.n	af0 <USB_DevTransProcess+0x16c>
C:\Users\alon\Desktop\github\iot-fan_at_cnblogs\CH577_CH578_CH579\AN\CH579EVT_USB_DISK_TEST\BLE\ch57x_ble_uart_mrs_app_only_test\obj/../app/ch57x_usb_device_msc.c:876
								pEP0_DataBuf[0] = 0x00;
     b4c:	2100      	movs	r1, #0
     b4e:	7019      	strb	r1, [r3, #0]
C:\Users\alon\Desktop\github\iot-fan_at_cnblogs\CH577_CH578_CH579\AN\CH579EVT_USB_DISK_TEST\BLE\ch57x_ble_uart_mrs_app_only_test\obj/../app/ch57x_usb_device_msc.c:877
								pEP0_DataBuf[1] = 0x00;
     b50:	6813      	ldr	r3, [r2, #0]
     b52:	7059      	strb	r1, [r3, #1]
C:\Users\alon\Desktop\github\iot-fan_at_cnblogs\CH577_CH578_CH579\AN\CH579EVT_USB_DISK_TEST\BLE\ch57x_ble_uart_mrs_app_only_test\obj/../app/ch57x_usb_device_msc.c:878
								if ( SetupReqLen > 2 )		SetupReqLen = 2;
     b54:	8823      	ldrh	r3, [r4, #0]
     b56:	2b02      	cmp	r3, #2
     b58:	d800      	bhi.n	b5c <USB_DevTransProcess+0x1d8>
     b5a:	e766      	b.n	a2a <USB_DevTransProcess+0xa6>
     b5c:	2302      	movs	r3, #2
     b5e:	e7c3      	b.n	ae8 <USB_DevTransProcess+0x164>
C:\Users\alon\Desktop\github\iot-fan_at_cnblogs\CH577_CH578_CH579\AN\CH579EVT_USB_DISK_TEST\BLE\ch57x_ble_uart_mrs_app_only_test\obj/../app/ch57x_usb_device_msc.c:909
                switch( SetupReqCode )
     b60:	4b3e      	ldr	r3, [pc, #248]	; (c5c <USB_DevTransProcess+0x2d8>)
     b62:	4c3a      	ldr	r4, [pc, #232]	; (c4c <USB_DevTransProcess+0x2c8>)
     b64:	781b      	ldrb	r3, [r3, #0]
     b66:	2b05      	cmp	r3, #5
     b68:	d01f      	beq.n	baa <USB_DevTransProcess+0x226>
     b6a:	2b06      	cmp	r3, #6
     b6c:	d127      	bne.n	bbe <USB_DevTransProcess+0x23a>
C:\Users\alon\Desktop\github\iot-fan_at_cnblogs\CH577_CH578_CH579\AN\CH579EVT_USB_DISK_TEST\BLE\ch57x_ble_uart_mrs_app_only_test\obj/../app/ch57x_usb_device_msc.c:912
						len = SetupReqLen >= DevEP0SIZE ? DevEP0SIZE : SetupReqLen;  // Êú¨Ê¨°‰º†ËæìÈïøÂ∫¶
     b6e:	4f3a      	ldr	r7, [pc, #232]	; (c58 <USB_DevTransProcess+0x2d4>)
     b70:	883a      	ldrh	r2, [r7, #0]
     b72:	1c13      	adds	r3, r2, #0
     b74:	2a40      	cmp	r2, #64	; 0x40
     b76:	d900      	bls.n	b7a <USB_DevTransProcess+0x1f6>
     b78:	2340      	movs	r3, #64	; 0x40
     b7a:	b29e      	uxth	r6, r3
     b7c:	b2db      	uxtb	r3, r3
C:\Users\alon\Desktop\github\iot-fan_at_cnblogs\CH577_CH578_CH579\AN\CH579EVT_USB_DISK_TEST\BLE\ch57x_ble_uart_mrs_app_only_test\obj/../app/ch57x_usb_device_msc.c:913
						memcpy( pEP0_DataBuf, pDescr, len );                    /* Âä†ËΩΩ‰∏ä‰º†Êï∞ÊçÆ */
     b7e:	4d3a      	ldr	r5, [pc, #232]	; (c68 <USB_DevTransProcess+0x2e4>)
C:\Users\alon\Desktop\github\iot-fan_at_cnblogs\CH577_CH578_CH579\AN\CH579EVT_USB_DISK_TEST\BLE\ch57x_ble_uart_mrs_app_only_test\obj/../app/ch57x_usb_device_msc.c:912
						len = SetupReqLen >= DevEP0SIZE ? DevEP0SIZE : SetupReqLen;  // Êú¨Ê¨°‰º†ËæìÈïøÂ∫¶
     b80:	9300      	str	r3, [sp, #0]
C:\Users\alon\Desktop\github\iot-fan_at_cnblogs\CH577_CH578_CH579\AN\CH579EVT_USB_DISK_TEST\BLE\ch57x_ble_uart_mrs_app_only_test\obj/../app/ch57x_usb_device_msc.c:913
						memcpy( pEP0_DataBuf, pDescr, len );                    /* Âä†ËΩΩ‰∏ä‰º†Êï∞ÊçÆ */
     b82:	4b34      	ldr	r3, [pc, #208]	; (c54 <USB_DevTransProcess+0x2d0>)
     b84:	0032      	movs	r2, r6
     b86:	6818      	ldr	r0, [r3, #0]
     b88:	6829      	ldr	r1, [r5, #0]
     b8a:	f002 fefb 	bl	3984 <memcpy>
C:\Users\alon\Desktop\github\iot-fan_at_cnblogs\CH577_CH578_CH579\AN\CH579EVT_USB_DISK_TEST\BLE\ch57x_ble_uart_mrs_app_only_test\obj/../app/ch57x_usb_device_msc.c:914
						SetupReqLen -= len;
     b8e:	883b      	ldrh	r3, [r7, #0]
C:\Users\alon\Desktop\github\iot-fan_at_cnblogs\CH577_CH578_CH579\AN\CH579EVT_USB_DISK_TEST\BLE\ch57x_ble_uart_mrs_app_only_test\obj/../app/ch57x_usb_device_msc.c:916
						R8_UEP0_T_LEN = len;
     b90:	9a00      	ldr	r2, [sp, #0]
C:\Users\alon\Desktop\github\iot-fan_at_cnblogs\CH577_CH578_CH579\AN\CH579EVT_USB_DISK_TEST\BLE\ch57x_ble_uart_mrs_app_only_test\obj/../app/ch57x_usb_device_msc.c:914
						SetupReqLen -= len;
     b92:	1b9b      	subs	r3, r3, r6
     b94:	803b      	strh	r3, [r7, #0]
C:\Users\alon\Desktop\github\iot-fan_at_cnblogs\CH577_CH578_CH579\AN\CH579EVT_USB_DISK_TEST\BLE\ch57x_ble_uart_mrs_app_only_test\obj/../app/ch57x_usb_device_msc.c:915
						pDescr += len;
     b96:	682b      	ldr	r3, [r5, #0]
     b98:	199e      	adds	r6, r3, r6
C:\Users\alon\Desktop\github\iot-fan_at_cnblogs\CH577_CH578_CH579\AN\CH579EVT_USB_DISK_TEST\BLE\ch57x_ble_uart_mrs_app_only_test\obj/../app/ch57x_usb_device_msc.c:916
						R8_UEP0_T_LEN = len;
     b9a:	4b34      	ldr	r3, [pc, #208]	; (c6c <USB_DevTransProcess+0x2e8>)
C:\Users\alon\Desktop\github\iot-fan_at_cnblogs\CH577_CH578_CH579\AN\CH579EVT_USB_DISK_TEST\BLE\ch57x_ble_uart_mrs_app_only_test\obj/../app/ch57x_usb_device_msc.c:915
						pDescr += len;
     b9c:	602e      	str	r6, [r5, #0]
C:\Users\alon\Desktop\github\iot-fan_at_cnblogs\CH577_CH578_CH579\AN\CH579EVT_USB_DISK_TEST\BLE\ch57x_ble_uart_mrs_app_only_test\obj/../app/ch57x_usb_device_msc.c:916
						R8_UEP0_T_LEN = len;
     b9e:	701a      	strb	r2, [r3, #0]
C:\Users\alon\Desktop\github\iot-fan_at_cnblogs\CH577_CH578_CH579\AN\CH579EVT_USB_DISK_TEST\BLE\ch57x_ble_uart_mrs_app_only_test\obj/../app/ch57x_usb_device_msc.c:917
						R8_UEP0_CTRL ^= RB_UEP_T_TOG;                             // ÁøªËΩ¨
     ba0:	2340      	movs	r3, #64	; 0x40
     ba2:	7822      	ldrb	r2, [r4, #0]
     ba4:	4053      	eors	r3, r2
     ba6:	7023      	strb	r3, [r4, #0]
C:\Users\alon\Desktop\github\iot-fan_at_cnblogs\CH577_CH578_CH579\AN\CH579EVT_USB_DISK_TEST\BLE\ch57x_ble_uart_mrs_app_only_test\obj/../app/ch57x_usb_device_msc.c:918
						break;
     ba8:	e704      	b.n	9b4 <USB_DevTransProcess+0x30>
C:\Users\alon\Desktop\github\iot-fan_at_cnblogs\CH577_CH578_CH579\AN\CH579EVT_USB_DISK_TEST\BLE\ch57x_ble_uart_mrs_app_only_test\obj/../app/ch57x_usb_device_msc.c:920
						R8_USB_DEV_AD = (R8_USB_DEV_AD&RB_UDA_GP_BIT) | SetupReqLen;
     baa:	207f      	movs	r0, #127	; 0x7f
     bac:	493a      	ldr	r1, [pc, #232]	; (c98 <USB_DevTransProcess+0x314>)
     bae:	780b      	ldrb	r3, [r1, #0]
     bb0:	4383      	bics	r3, r0
     bb2:	4829      	ldr	r0, [pc, #164]	; (c58 <USB_DevTransProcess+0x2d4>)
     bb4:	7800      	ldrb	r0, [r0, #0]
     bb6:	4303      	orrs	r3, r0
C:\Users\alon\Desktop\github\iot-fan_at_cnblogs\CH577_CH578_CH579\AN\CH579EVT_USB_DISK_TEST\BLE\ch57x_ble_uart_mrs_app_only_test\obj/../app/ch57x_usb_device_msc.c:924
						R8_UEP0_T_LEN = 0;                                      // Áä∂ÊÄÅÈò∂ÊÆµÂÆåÊàê‰∏≠Êñ≠ÊàñËÄÖÊòØÂº∫Âà∂‰∏ä‰º†0ÈïøÂ∫¶Êï∞ÊçÆÂåÖÁªìÊùüÊéßÂà∂‰º†Ëæì
     bb8:	700b      	strb	r3, [r1, #0]
C:\Users\alon\Desktop\github\iot-fan_at_cnblogs\CH577_CH578_CH579\AN\CH579EVT_USB_DISK_TEST\BLE\ch57x_ble_uart_mrs_app_only_test\obj/../app/ch57x_usb_device_msc.c:925
						R8_UEP0_CTRL = UEP_R_RES_ACK | UEP_T_RES_NAK;
     bba:	7022      	strb	r2, [r4, #0]
C:\Users\alon\Desktop\github\iot-fan_at_cnblogs\CH577_CH578_CH579\AN\CH579EVT_USB_DISK_TEST\BLE\ch57x_ble_uart_mrs_app_only_test\obj/../app/ch57x_usb_device_msc.c:926
						break;
     bbc:	e6fa      	b.n	9b4 <USB_DevTransProcess+0x30>
C:\Users\alon\Desktop\github\iot-fan_at_cnblogs\CH577_CH578_CH579\AN\CH579EVT_USB_DISK_TEST\BLE\ch57x_ble_uart_mrs_app_only_test\obj/../app/ch57x_usb_device_msc.c:924
						R8_UEP0_T_LEN = 0;                                      // Áä∂ÊÄÅÈò∂ÊÆµÂÆåÊàê‰∏≠Êñ≠ÊàñËÄÖÊòØÂº∫Âà∂‰∏ä‰º†0ÈïøÂ∫¶Êï∞ÊçÆÂåÖÁªìÊùüÊéßÂà∂‰º†Ëæì
     bbe:	2300      	movs	r3, #0
     bc0:	492a      	ldr	r1, [pc, #168]	; (c6c <USB_DevTransProcess+0x2e8>)
     bc2:	e7f9      	b.n	bb8 <USB_DevTransProcess+0x234>
C:\Users\alon\Desktop\github\iot-fan_at_cnblogs\CH577_CH578_CH579\AN\CH579EVT_USB_DISK_TEST\BLE\ch57x_ble_uart_mrs_app_only_test\obj/../app/ch57x_usb_device_msc.c:932
				R8_UEP0_CTRL = UEP_R_RES_ACK | UEP_T_RES_NAK;
     bc4:	4b21      	ldr	r3, [pc, #132]	; (c4c <USB_DevTransProcess+0x2c8>)
     bc6:	701a      	strb	r2, [r3, #0]
C:\Users\alon\Desktop\github\iot-fan_at_cnblogs\CH577_CH578_CH579\AN\CH579EVT_USB_DISK_TEST\BLE\ch57x_ble_uart_mrs_app_only_test\obj/../app/ch57x_usb_device_msc.c:933
				break;
     bc8:	e6f4      	b.n	9b4 <USB_DevTransProcess+0x30>
C:\Users\alon\Desktop\github\iot-fan_at_cnblogs\CH577_CH578_CH579\AN\CH579EVT_USB_DISK_TEST\BLE\ch57x_ble_uart_mrs_app_only_test\obj/../app/ch57x_usb_device_msc.c:936
				if ( R8_USB_INT_ST & RB_UIS_TOG_OK )  // ‰∏çÂêåÊ≠•ÁöÑÊï∞ÊçÆÂåÖÂ∞Ü‰∏¢ÂºÉ
     bca:	780b      	ldrb	r3, [r1, #0]
     bcc:	065b      	lsls	r3, r3, #25
     bce:	d400      	bmi.n	bd2 <USB_DevTransProcess+0x24e>
     bd0:	e6f0      	b.n	9b4 <USB_DevTransProcess+0x30>
C:\Users\alon\Desktop\github\iot-fan_at_cnblogs\CH577_CH578_CH579\AN\CH579EVT_USB_DISK_TEST\BLE\ch57x_ble_uart_mrs_app_only_test\obj/../app/ch57x_usb_device_msc.c:938
					if(CH375BULKDOWN)  mCH375BulkDownData();	//Â¶ÇÊûú‰∏ä‰º†Êï∞ÊçÆÈò∂ÊÆµÂàôË∞ÉÁî®Êï∞ÊçÆ‰∏ä‰º†
     bd2:	4c32      	ldr	r4, [pc, #200]	; (c9c <USB_DevTransProcess+0x318>)
     bd4:	7823      	ldrb	r3, [r4, #0]
     bd6:	2b00      	cmp	r3, #0
     bd8:	d002      	beq.n	be0 <USB_DevTransProcess+0x25c>
     bda:	f7ff fea7 	bl	92c <mCH375BulkDownData>
     bde:	e6e9      	b.n	9b4 <USB_DevTransProcess+0x30>
C:\Users\alon\Desktop\github\iot-fan_at_cnblogs\CH577_CH578_CH579\AN\CH579EVT_USB_DISK_TEST\BLE\ch57x_ble_uart_mrs_app_only_test\obj/../app/ch57x_usb_device_msc.c:941
						length = R8_USB_RX_LEN;
     be0:	4a1b      	ldr	r2, [pc, #108]	; (c50 <USB_DevTransProcess+0x2cc>)
     be2:	7812      	ldrb	r2, [r2, #0]
     be4:	b2d1      	uxtb	r1, r2
C:\Users\alon\Desktop\github\iot-fan_at_cnblogs\CH577_CH578_CH579\AN\CH579EVT_USB_DISK_TEST\BLE\ch57x_ble_uart_mrs_app_only_test\obj/../app/ch57x_usb_device_msc.c:942
						if(!length) break;								//Êï∞ÊçÆÂåÖÈïøÂ∫¶‰∏∫Èõ∂ÂàôË∑≥Âá∫
     be6:	2a00      	cmp	r2, #0
     be8:	d100      	bne.n	bec <USB_DevTransProcess+0x268>
     bea:	e6e3      	b.n	9b4 <USB_DevTransProcess+0x30>
C:\Users\alon\Desktop\github\iot-fan_at_cnblogs\CH577_CH578_CH579\AN\CH579EVT_USB_DISK_TEST\BLE\ch57x_ble_uart_mrs_app_only_test\obj/../app/ch57x_usb_device_msc.c:944
							MassPara.buf[len] = EP1_Databuf[len];	//Â∞ÜÊï∞ÊçÆËØªÂÖ•Âà∞ÁºìÂÜ≤Âå∫
     bec:	482c      	ldr	r0, [pc, #176]	; (ca0 <USB_DevTransProcess+0x31c>)
     bee:	4d2d      	ldr	r5, [pc, #180]	; (ca4 <USB_DevTransProcess+0x320>)
     bf0:	5cea      	ldrb	r2, [r5, r3]
     bf2:	541a      	strb	r2, [r3, r0]
C:\Users\alon\Desktop\github\iot-fan_at_cnblogs\CH577_CH578_CH579\AN\CH579EVT_USB_DISK_TEST\BLE\ch57x_ble_uart_mrs_app_only_test\obj/../app/ch57x_usb_device_msc.c:943
						for(len=0;len!=length;len++)						
     bf4:	3301      	adds	r3, #1
     bf6:	b2da      	uxtb	r2, r3
     bf8:	4291      	cmp	r1, r2
     bfa:	d1f9      	bne.n	bf0 <USB_DevTransProcess+0x26c>
C:\Users\alon\Desktop\github\iot-fan_at_cnblogs\CH577_CH578_CH579\AN\CH579EVT_USB_DISK_TEST\BLE\ch57x_ble_uart_mrs_app_only_test\obj/../app/ch57x_usb_device_msc.c:946
						mCH375BulkOnly();
     bfc:	f7ff fdce 	bl	79c <mCH375BulkOnly>
C:\Users\alon\Desktop\github\iot-fan_at_cnblogs\CH577_CH578_CH579\AN\CH579EVT_USB_DISK_TEST\BLE\ch57x_ble_uart_mrs_app_only_test\obj/../app/ch57x_usb_device_msc.c:948
						if(!CH375BULKDOWN)
     c00:	7823      	ldrb	r3, [r4, #0]
     c02:	2b00      	cmp	r3, #0
     c04:	d000      	beq.n	c08 <USB_DevTransProcess+0x284>
     c06:	e6d5      	b.n	9b4 <USB_DevTransProcess+0x30>
C:\Users\alon\Desktop\github\iot-fan_at_cnblogs\CH577_CH578_CH579\AN\CH579EVT_USB_DISK_TEST\BLE\ch57x_ble_uart_mrs_app_only_test\obj/../app/ch57x_usb_device_msc.c:950
							if(CH375BULKUP) CH375bulkUpData();					//Ë∞ÉÁî®ÊâπÈáèÊï∞ÊçÆ‰∏ä‰º†
     c08:	4b27      	ldr	r3, [pc, #156]	; (ca8 <USB_DevTransProcess+0x324>)
     c0a:	781b      	ldrb	r3, [r3, #0]
     c0c:	2b00      	cmp	r3, #0
     c0e:	d002      	beq.n	c16 <USB_DevTransProcess+0x292>
     c10:	f7ff fe48 	bl	8a4 <CH375bulkUpData>
     c14:	e6ce      	b.n	9b4 <USB_DevTransProcess+0x30>
C:\Users\alon\Desktop\github\iot-fan_at_cnblogs\CH577_CH578_CH579\AN\CH579EVT_USB_DISK_TEST\BLE\ch57x_ble_uart_mrs_app_only_test\obj/../app/ch57x_usb_device_msc.c:951
							else if(!FSTALL) mCH375UpCsw();								//Ê≤°ÊúâÊï∞ÊçÆ‰∏ä‰º†Ë∞ÉÁî®CSW‰∏ä‰º†
     c16:	4b1e      	ldr	r3, [pc, #120]	; (c90 <USB_DevTransProcess+0x30c>)
     c18:	781b      	ldrb	r3, [r3, #0]
     c1a:	2b00      	cmp	r3, #0
     c1c:	d000      	beq.n	c20 <USB_DevTransProcess+0x29c>
     c1e:	e6c9      	b.n	9b4 <USB_DevTransProcess+0x30>
     c20:	f7ff fdfc 	bl	81c <mCH375UpCsw>
     c24:	e6c6      	b.n	9b4 <USB_DevTransProcess+0x30>
C:\Users\alon\Desktop\github\iot-fan_at_cnblogs\CH577_CH578_CH579\AN\CH579EVT_USB_DISK_TEST\BLE\ch57x_ble_uart_mrs_app_only_test\obj/../app/ch57x_usb_device_msc.c:959
				if(CH375BULKUP) CH375bulkUpData();								//Ë∞ÉÁî®Êï∞ÊçÆ‰∏ä‰º†
     c26:	4b20      	ldr	r3, [pc, #128]	; (ca8 <USB_DevTransProcess+0x324>)
     c28:	781b      	ldrb	r3, [r3, #0]
     c2a:	2b00      	cmp	r3, #0
     c2c:	d1f0      	bne.n	c10 <USB_DevTransProcess+0x28c>
C:\Users\alon\Desktop\github\iot-fan_at_cnblogs\CH577_CH578_CH579\AN\CH579EVT_USB_DISK_TEST\BLE\ch57x_ble_uart_mrs_app_only_test\obj/../app/ch57x_usb_device_msc.c:960
				else if(CH375CSW) mCH375UpCsw();								//‰∏ä‰º†CSW
     c2e:	4b17      	ldr	r3, [pc, #92]	; (c8c <USB_DevTransProcess+0x308>)
     c30:	781b      	ldrb	r3, [r3, #0]
     c32:	2b00      	cmp	r3, #0
     c34:	d1f4      	bne.n	c20 <USB_DevTransProcess+0x29c>
C:\Users\alon\Desktop\github\iot-fan_at_cnblogs\CH577_CH578_CH579\AN\CH579EVT_USB_DISK_TEST\BLE\ch57x_ble_uart_mrs_app_only_test\obj/../app/ch57x_usb_device_msc.c:962
                R8_UEP1_CTRL = (R8_UEP1_CTRL & ~ MASK_UEP_T_RES) | UEP_T_RES_NAK;      // ÊöÇÂÅú‰∏ä‰º†
     c36:	2003      	movs	r0, #3
     c38:	4913      	ldr	r1, [pc, #76]	; (c88 <USB_DevTransProcess+0x304>)
     c3a:	780b      	ldrb	r3, [r1, #0]
     c3c:	4383      	bics	r3, r0
     c3e:	431a      	orrs	r2, r3
     c40:	700a      	strb	r2, [r1, #0]
     c42:	e6b7      	b.n	9b4 <USB_DevTransProcess+0x30>
     c44:	40008006 	.word	0x40008006
     c48:	40008007 	.word	0x40008007
     c4c:	40008022 	.word	0x40008022
     c50:	40008008 	.word	0x40008008
     c54:	20005658 	.word	0x20005658
     c58:	20004196 	.word	0x20004196
     c5c:	20004194 	.word	0x20004194
     c60:	00004a74 	.word	0x00004a74
     c64:	20004088 	.word	0x20004088
     c68:	200041e8 	.word	0x200041e8
     c6c:	40008020 	.word	0x40008020
     c70:	00004a95 	.word	0x00004a95
     c74:	00004a75 	.word	0x00004a75
     c78:	00004aab 	.word	0x00004aab
     c7c:	00004ab9 	.word	0x00004ab9
     c80:	00004aa7 	.word	0x00004aa7
     c84:	20004084 	.word	0x20004084
     c88:	40008026 	.word	0x40008026
     c8c:	20004083 	.word	0x20004083
     c90:	20004148 	.word	0x20004148
     c94:	200041d8 	.word	0x200041d8
     c98:	40008003 	.word	0x40008003
     c9c:	20004081 	.word	0x20004081
     ca0:	20004154 	.word	0x20004154
     ca4:	200040c8 	.word	0x200040c8
     ca8:	20004082 	.word	0x20004082
C:\Users\alon\Desktop\github\iot-fan_at_cnblogs\CH577_CH578_CH579\AN\CH579EVT_USB_DISK_TEST\BLE\ch57x_ble_uart_mrs_app_only_test\obj/../app/ch57x_usb_device_msc.c:970
	else if( intflag & RB_UIF_BUS_RST )
     cac:	2101      	movs	r1, #1
     cae:	4208      	tst	r0, r1
     cb0:	d00a      	beq.n	cc8 <USB_DevTransProcess+0x344>
C:\Users\alon\Desktop\github\iot-fan_at_cnblogs\CH577_CH578_CH579\AN\CH579EVT_USB_DISK_TEST\BLE\ch57x_ble_uart_mrs_app_only_test\obj/../app/ch57x_usb_device_msc.c:972
		R8_USB_DEV_AD = 0;
     cb2:	480a      	ldr	r0, [pc, #40]	; (cdc <USB_DevTransProcess+0x358>)
     cb4:	7004      	strb	r4, [r0, #0]
C:\Users\alon\Desktop\github\iot-fan_at_cnblogs\CH577_CH578_CH579\AN\CH579EVT_USB_DISK_TEST\BLE\ch57x_ble_uart_mrs_app_only_test\obj/../app/ch57x_usb_device_msc.c:973
		R8_UEP0_CTRL = UEP_R_RES_ACK | UEP_T_RES_NAK;
     cb6:	480a      	ldr	r0, [pc, #40]	; (ce0 <USB_DevTransProcess+0x35c>)
     cb8:	7002      	strb	r2, [r0, #0]
C:\Users\alon\Desktop\github\iot-fan_at_cnblogs\CH577_CH578_CH579\AN\CH579EVT_USB_DISK_TEST\BLE\ch57x_ble_uart_mrs_app_only_test\obj/../app/ch57x_usb_device_msc.c:974
		R8_UEP1_CTRL = UEP_R_RES_ACK | UEP_T_RES_NAK | RB_UEP_AUTO_TOG;
     cba:	2012      	movs	r0, #18
     cbc:	4a09      	ldr	r2, [pc, #36]	; (ce4 <USB_DevTransProcess+0x360>)
     cbe:	7010      	strb	r0, [r2, #0]
C:\Users\alon\Desktop\github\iot-fan_at_cnblogs\CH577_CH578_CH579\AN\CH579EVT_USB_DISK_TEST\BLE\ch57x_ble_uart_mrs_app_only_test\obj/../app/ch57x_usb_device_msc.c:975
		R8_USB_INT_FG |= RB_UIF_BUS_RST;
     cc0:	781a      	ldrb	r2, [r3, #0]
     cc2:	4311      	orrs	r1, r2
     cc4:	7019      	strb	r1, [r3, #0]
     cc6:	e678      	b.n	9ba <USB_DevTransProcess+0x36>
C:\Users\alon\Desktop\github\iot-fan_at_cnblogs\CH577_CH578_CH579\AN\CH579EVT_USB_DISK_TEST\BLE\ch57x_ble_uart_mrs_app_only_test\obj/../app/ch57x_usb_device_msc.c:977
	else if( intflag & RB_UIF_SUSPEND )
     cc8:	2204      	movs	r2, #4
     cca:	4210      	tst	r0, r2
     ccc:	d003      	beq.n	cd6 <USB_DevTransProcess+0x352>
C:\Users\alon\Desktop\github\iot-fan_at_cnblogs\CH577_CH578_CH579\AN\CH579EVT_USB_DISK_TEST\BLE\ch57x_ble_uart_mrs_app_only_test\obj/../app/ch57x_usb_device_msc.c:979
		if ( R8_USB_MIS_ST & RB_UMS_SUSPEND ) {;}	// ÊåÇËµ∑
     cce:	4906      	ldr	r1, [pc, #24]	; (ce8 <USB_DevTransProcess+0x364>)
     cd0:	7809      	ldrb	r1, [r1, #0]
C:\Users\alon\Desktop\github\iot-fan_at_cnblogs\CH577_CH578_CH579\AN\CH579EVT_USB_DISK_TEST\BLE\ch57x_ble_uart_mrs_app_only_test\obj/../app/ch57x_usb_device_msc.c:981
		R8_USB_INT_FG = RB_UIF_SUSPEND;
     cd2:	701a      	strb	r2, [r3, #0]
     cd4:	e671      	b.n	9ba <USB_DevTransProcess+0x36>
C:\Users\alon\Desktop\github\iot-fan_at_cnblogs\CH577_CH578_CH579\AN\CH579EVT_USB_DISK_TEST\BLE\ch57x_ble_uart_mrs_app_only_test\obj/../app/ch57x_usb_device_msc.c:985
		R8_USB_INT_FG = intflag;
     cd6:	7018      	strb	r0, [r3, #0]
C:\Users\alon\Desktop\github\iot-fan_at_cnblogs\CH577_CH578_CH579\AN\CH579EVT_USB_DISK_TEST\BLE\ch57x_ble_uart_mrs_app_only_test\obj/../app/ch57x_usb_device_msc.c:987
}
     cd8:	e66f      	b.n	9ba <USB_DevTransProcess+0x36>
     cda:	46c0      	nop			; (mov r8, r8)
     cdc:	40008003 	.word	0x40008003
     ce0:	40008022 	.word	0x40008022
     ce4:	40008026 	.word	0x40008026
     ce8:	40008005 	.word	0x40008005

00000cec <USB_IRQHandler>:
USB_IRQHandler():
C:\Users\alon\Desktop\github\iot-fan_at_cnblogs\CH577_CH578_CH579\AN\CH579EVT_USB_DISK_TEST\BLE\ch57x_ble_uart_mrs_app_only_test\obj/../app/ch57x_usb_device_msc.c:990

void USB_IRQHandler (void)		/* USB‰∏≠Êñ≠ÊúçÂä°Á®ãÂ∫è,‰ΩøÁî®ÂØÑÂ≠òÂô®ÁªÑ1 */
{
     cec:	b510      	push	{r4, lr}
C:\Users\alon\Desktop\github\iot-fan_at_cnblogs\CH577_CH578_CH579\AN\CH579EVT_USB_DISK_TEST\BLE\ch57x_ble_uart_mrs_app_only_test\obj/../app/ch57x_usb_device_msc.c:991
	USB_DevTransProcess();
     cee:	f7ff fe49 	bl	984 <USB_DevTransProcess>
C:\Users\alon\Desktop\github\iot-fan_at_cnblogs\CH577_CH578_CH579\AN\CH579EVT_USB_DISK_TEST\BLE\ch57x_ble_uart_mrs_app_only_test\obj/../app/ch57x_usb_device_msc.c:992
}
     cf2:	bd10      	pop	{r4, pc}

00000cf4 <disk_status>:
disk_status():
C:\Users\alon\Desktop\github\iot-fan_at_cnblogs\CH577_CH578_CH579\AN\CH579EVT_USB_DISK_TEST\BLE\ch57x_ble_uart_mrs_app_only_test\obj/../app/diskio.c:33
/*-----------------------------------------------------------------------*/

DSTATUS disk_status(
	BYTE pdrv /* Physical drive nmuber to identify the drive */
)
{
     cf4:	b510      	push	{r4, lr}
     cf6:	0004      	movs	r4, r0
C:\Users\alon\Desktop\github\iot-fan_at_cnblogs\CH577_CH578_CH579\AN\CH579EVT_USB_DISK_TEST\BLE\ch57x_ble_uart_mrs_app_only_test\obj/../app/diskio.c:34
	PRINT("disk_status\n");
     cf8:	4806      	ldr	r0, [pc, #24]	; (d14 <disk_status+0x20>)
     cfa:	f002 ff81 	bl	3c00 <puts>
C:\Users\alon\Desktop\github\iot-fan_at_cnblogs\CH577_CH578_CH579\AN\CH579EVT_USB_DISK_TEST\BLE\ch57x_ble_uart_mrs_app_only_test\obj/../app/diskio.c:77
			/* ËÆæÂ§áIDËØªÂèñÁªìÊûúÈîôËØØ */
			status = STA_NOINIT;
		}
		return status;
	}
	return STA_NOINIT;
     cfe:	2001      	movs	r0, #1
C:\Users\alon\Desktop\github\iot-fan_at_cnblogs\CH577_CH578_CH579\AN\CH579EVT_USB_DISK_TEST\BLE\ch57x_ble_uart_mrs_app_only_test\obj/../app/diskio.c:40
	switch (pdrv)
     d00:	2c00      	cmp	r4, #0
     d02:	d106      	bne.n	d12 <disk_status+0x1e>
C:\Users\alon\Desktop\github\iot-fan_at_cnblogs\CH577_CH578_CH579\AN\CH579EVT_USB_DISK_TEST\BLE\ch57x_ble_uart_mrs_app_only_test\obj/../app/diskio.c:65
		if (SPIFlash_ReadID() == 0XEF16)
     d04:	f002 f9b6 	bl	3074 <SPIFlash_ReadID>
     d08:	4b03      	ldr	r3, [pc, #12]	; (d18 <disk_status+0x24>)
     d0a:	18c0      	adds	r0, r0, r3
     d0c:	1e43      	subs	r3, r0, #1
     d0e:	4198      	sbcs	r0, r3
C:\Users\alon\Desktop\github\iot-fan_at_cnblogs\CH577_CH578_CH579\AN\CH579EVT_USB_DISK_TEST\BLE\ch57x_ble_uart_mrs_app_only_test\obj/../app/diskio.c:73
			status = STA_NOINIT;
     d10:	b2c0      	uxtb	r0, r0
C:\Users\alon\Desktop\github\iot-fan_at_cnblogs\CH577_CH578_CH579\AN\CH579EVT_USB_DISK_TEST\BLE\ch57x_ble_uart_mrs_app_only_test\obj/../app/diskio.c:78
}
     d12:	bd10      	pop	{r4, pc}
     d14:	00004ae1 	.word	0x00004ae1
     d18:	ffff10ea 	.word	0xffff10ea

00000d1c <disk_initialize>:
disk_initialize():
C:\Users\alon\Desktop\github\iot-fan_at_cnblogs\CH577_CH578_CH579\AN\CH579EVT_USB_DISK_TEST\BLE\ch57x_ble_uart_mrs_app_only_test\obj/../app/diskio.c:87
/*-----------------------------------------------------------------------*/

DSTATUS disk_initialize(
	BYTE pdrv /* Physical drive nmuber to identify the drive */
)
{
     d1c:	b510      	push	{r4, lr}
     d1e:	0004      	movs	r4, r0
C:\Users\alon\Desktop\github\iot-fan_at_cnblogs\CH577_CH578_CH579\AN\CH579EVT_USB_DISK_TEST\BLE\ch57x_ble_uart_mrs_app_only_test\obj/../app/diskio.c:91
	DSTATUS stat;
	int result;
	DSTATUS status = STA_NOINIT;	
	PRINT("disk_initialize\n");
     d20:	4807      	ldr	r0, [pc, #28]	; (d40 <disk_initialize+0x24>)
     d22:	f002 ff6d 	bl	3c00 <puts>
C:\Users\alon\Desktop\github\iot-fan_at_cnblogs\CH577_CH578_CH579\AN\CH579EVT_USB_DISK_TEST\BLE\ch57x_ble_uart_mrs_app_only_test\obj/../app/diskio.c:123
		PRINT("spi_flash_init end\n");
		spi_flash_init();
		status = disk_status(DEV_SPI);
		break;
	default:
		status = STA_NOINIT;
     d26:	2001      	movs	r0, #1
C:\Users\alon\Desktop\github\iot-fan_at_cnblogs\CH577_CH578_CH579\AN\CH579EVT_USB_DISK_TEST\BLE\ch57x_ble_uart_mrs_app_only_test\obj/../app/diskio.c:93
	switch (pdrv)
     d28:	2c00      	cmp	r4, #0
     d2a:	d107      	bne.n	d3c <disk_initialize+0x20>
C:\Users\alon\Desktop\github\iot-fan_at_cnblogs\CH577_CH578_CH579\AN\CH579EVT_USB_DISK_TEST\BLE\ch57x_ble_uart_mrs_app_only_test\obj/../app/diskio.c:118
		PRINT("spi_flash_init end\n");
     d2c:	4805      	ldr	r0, [pc, #20]	; (d44 <disk_initialize+0x28>)
     d2e:	f002 ff67 	bl	3c00 <puts>
C:\Users\alon\Desktop\github\iot-fan_at_cnblogs\CH577_CH578_CH579\AN\CH579EVT_USB_DISK_TEST\BLE\ch57x_ble_uart_mrs_app_only_test\obj/../app/diskio.c:119
		spi_flash_init();
     d32:	f002 f9c9 	bl	30c8 <spi_flash_init>
C:\Users\alon\Desktop\github\iot-fan_at_cnblogs\CH577_CH578_CH579\AN\CH579EVT_USB_DISK_TEST\BLE\ch57x_ble_uart_mrs_app_only_test\obj/../app/diskio.c:120
		status = disk_status(DEV_SPI);
     d36:	0020      	movs	r0, r4
     d38:	f7ff ffdc 	bl	cf4 <disk_status>
C:\Users\alon\Desktop\github\iot-fan_at_cnblogs\CH577_CH578_CH579\AN\CH579EVT_USB_DISK_TEST\BLE\ch57x_ble_uart_mrs_app_only_test\obj/../app/diskio.c:126
	}
	return status;
}
     d3c:	bd10      	pop	{r4, pc}
     d3e:	46c0      	nop			; (mov r8, r8)
     d40:	00004aed 	.word	0x00004aed
     d44:	00004afd 	.word	0x00004afd

00000d48 <disk_ioctl>:
disk_ioctl():
C:\Users\alon\Desktop\github\iot-fan_at_cnblogs\CH577_CH578_CH579\AN\CH579EVT_USB_DISK_TEST\BLE\ch57x_ble_uart_mrs_app_only_test\obj/../app/diskio.c:246
DRESULT disk_ioctl(
	BYTE pdrv, /* Physical drive nmuber (0..) */
	BYTE cmd,  /* Control code */
	void *buff /* Buffer to send/receive control data */
)
{
     d48:	b570      	push	{r4, r5, r6, lr}
     d4a:	0005      	movs	r5, r0
C:\Users\alon\Desktop\github\iot-fan_at_cnblogs\CH577_CH578_CH579\AN\CH579EVT_USB_DISK_TEST\BLE\ch57x_ble_uart_mrs_app_only_test\obj/../app/diskio.c:247
	PRINT("disk_ioctl cmd: %d\n", cmd);
     d4c:	480c      	ldr	r0, [pc, #48]	; (d80 <disk_ioctl+0x38>)
C:\Users\alon\Desktop\github\iot-fan_at_cnblogs\CH577_CH578_CH579\AN\CH579EVT_USB_DISK_TEST\BLE\ch57x_ble_uart_mrs_app_only_test\obj/../app/diskio.c:246
{
     d4e:	000c      	movs	r4, r1
     d50:	0016      	movs	r6, r2
C:\Users\alon\Desktop\github\iot-fan_at_cnblogs\CH577_CH578_CH579\AN\CH579EVT_USB_DISK_TEST\BLE\ch57x_ble_uart_mrs_app_only_test\obj/../app/diskio.c:247
	PRINT("disk_ioctl cmd: %d\n", cmd);
     d52:	f002 fec9 	bl	3ae8 <iprintf>
C:\Users\alon\Desktop\github\iot-fan_at_cnblogs\CH577_CH578_CH579\AN\CH579EVT_USB_DISK_TEST\BLE\ch57x_ble_uart_mrs_app_only_test\obj/../app/diskio.c:254
	// DRESULT res;
	// int result;

	DRESULT status = RES_PARERR;

	switch (pdrv)
     d56:	2d00      	cmp	r5, #0
     d58:	d110      	bne.n	d7c <disk_ioctl+0x34>
C:\Users\alon\Desktop\github\iot-fan_at_cnblogs\CH577_CH578_CH579\AN\CH579EVT_USB_DISK_TEST\BLE\ch57x_ble_uart_mrs_app_only_test\obj/../app/diskio.c:275
		// 	// Process of the command the USB drive

		// 	return res;

	case DEV_SPI:
		switch (cmd)
     d5a:	2c02      	cmp	r4, #2
     d5c:	d007      	beq.n	d6e <disk_ioctl+0x26>
     d5e:	2c03      	cmp	r4, #3
     d60:	d00a      	beq.n	d78 <disk_ioctl+0x30>
     d62:	2c01      	cmp	r4, #1
     d64:	d106      	bne.n	d74 <disk_ioctl+0x2c>
C:\Users\alon\Desktop\github\iot-fan_at_cnblogs\CH577_CH578_CH579\AN\CH579EVT_USB_DISK_TEST\BLE\ch57x_ble_uart_mrs_app_only_test\obj/../app/diskio.c:279
		{
		/* ÊâáÂå∫Êï∞ÈáèÔºö1536*4096/1024/1024=6(MB) */
		case GET_SECTOR_COUNT:
			*(DWORD *)buff = 1536;
     d66:	23c0      	movs	r3, #192	; 0xc0
     d68:	00db      	lsls	r3, r3, #3
C:\Users\alon\Desktop\github\iot-fan_at_cnblogs\CH577_CH578_CH579\AN\CH579EVT_USB_DISK_TEST\BLE\ch57x_ble_uart_mrs_app_only_test\obj/../app/diskio.c:287
		case GET_SECTOR_SIZE:
			*(WORD *)buff = 4096;
			break;
		/* ÂêåÊó∂Êì¶Èô§ÊâáÂå∫‰∏™Êï∞ */
		case GET_BLOCK_SIZE:
			*(DWORD *)buff = 1;
     d6a:	6033      	str	r3, [r6, #0]
C:\Users\alon\Desktop\github\iot-fan_at_cnblogs\CH577_CH578_CH579\AN\CH579EVT_USB_DISK_TEST\BLE\ch57x_ble_uart_mrs_app_only_test\obj/../app/diskio.c:288
			break;
     d6c:	e002      	b.n	d74 <disk_ioctl+0x2c>
C:\Users\alon\Desktop\github\iot-fan_at_cnblogs\CH577_CH578_CH579\AN\CH579EVT_USB_DISK_TEST\BLE\ch57x_ble_uart_mrs_app_only_test\obj/../app/diskio.c:283
			*(WORD *)buff = 4096;
     d6e:	2380      	movs	r3, #128	; 0x80
     d70:	015b      	lsls	r3, r3, #5
     d72:	8033      	strh	r3, [r6, #0]
C:\Users\alon\Desktop\github\iot-fan_at_cnblogs\CH577_CH578_CH579\AN\CH579EVT_USB_DISK_TEST\BLE\ch57x_ble_uart_mrs_app_only_test\obj/../app/diskio.c:295
		status = RES_OK;
		break;
	}

	return status;
}
     d74:	0028      	movs	r0, r5
     d76:	bd70      	pop	{r4, r5, r6, pc}
C:\Users\alon\Desktop\github\iot-fan_at_cnblogs\CH577_CH578_CH579\AN\CH579EVT_USB_DISK_TEST\BLE\ch57x_ble_uart_mrs_app_only_test\obj/../app/diskio.c:287
			*(DWORD *)buff = 1;
     d78:	2301      	movs	r3, #1
     d7a:	e7f6      	b.n	d6a <disk_ioctl+0x22>
C:\Users\alon\Desktop\github\iot-fan_at_cnblogs\CH577_CH578_CH579\AN\CH579EVT_USB_DISK_TEST\BLE\ch57x_ble_uart_mrs_app_only_test\obj/../app/diskio.c:252
	DRESULT status = RES_PARERR;
     d7c:	2504      	movs	r5, #4
     d7e:	e7f9      	b.n	d74 <disk_ioctl+0x2c>
     d80:	00004b10 	.word	0x00004b10

00000d84 <spi_disk_read>:
spi_disk_read():
C:\Users\alon\Desktop\github\iot-fan_at_cnblogs\CH577_CH578_CH579\AN\CH579EVT_USB_DISK_TEST\BLE\ch57x_ble_uart_mrs_app_only_test\obj/../app/diskio.c:298

void spi_disk_read(UINT8 *buff, UINT32 sector, UINT16 count)
{
     d84:	b570      	push	{r4, r5, r6, lr}
     d86:	0015      	movs	r5, r2
     d88:	0006      	movs	r6, r0
     d8a:	000c      	movs	r4, r1
C:\Users\alon\Desktop\github\iot-fan_at_cnblogs\CH577_CH578_CH579\AN\CH579EVT_USB_DISK_TEST\BLE\ch57x_ble_uart_mrs_app_only_test\obj/../app/diskio.c:299
	PRINT("spi_disk_read sector: %d, count: %d\n", sector, count);
     d8c:	4805      	ldr	r0, [pc, #20]	; (da4 <spi_disk_read+0x20>)
     d8e:	f002 feab 	bl	3ae8 <iprintf>
C:\Users\alon\Desktop\github\iot-fan_at_cnblogs\CH577_CH578_CH579\AN\CH579EVT_USB_DISK_TEST\BLE\ch57x_ble_uart_mrs_app_only_test\obj/../app/diskio.c:301
	
	BlukReadExternalFlash_SPI(sector, count, (PUINT8)buff);
     d92:	0032      	movs	r2, r6
     d94:	0029      	movs	r1, r5
     d96:	0020      	movs	r0, r4
     d98:	f002 f94a 	bl	3030 <BlukReadExternalFlash_SPI>
C:\Users\alon\Desktop\github\iot-fan_at_cnblogs\CH577_CH578_CH579\AN\CH579EVT_USB_DISK_TEST\BLE\ch57x_ble_uart_mrs_app_only_test\obj/../app/diskio.c:302
	PRINT("read end\n");
     d9c:	4802      	ldr	r0, [pc, #8]	; (da8 <spi_disk_read+0x24>)
     d9e:	f002 ff2f 	bl	3c00 <puts>
C:\Users\alon\Desktop\github\iot-fan_at_cnblogs\CH577_CH578_CH579\AN\CH579EVT_USB_DISK_TEST\BLE\ch57x_ble_uart_mrs_app_only_test\obj/../app/diskio.c:303
}
     da2:	bd70      	pop	{r4, r5, r6, pc}
     da4:	00004b24 	.word	0x00004b24
     da8:	00004b49 	.word	0x00004b49

00000dac <disk_read>:
disk_read():
C:\Users\alon\Desktop\github\iot-fan_at_cnblogs\CH577_CH578_CH579\AN\CH579EVT_USB_DISK_TEST\BLE\ch57x_ble_uart_mrs_app_only_test\obj/../app/diskio.c:138
{
     dac:	b5f8      	push	{r3, r4, r5, r6, r7, lr}
     dae:	0005      	movs	r5, r0
C:\Users\alon\Desktop\github\iot-fan_at_cnblogs\CH577_CH578_CH579\AN\CH579EVT_USB_DISK_TEST\BLE\ch57x_ble_uart_mrs_app_only_test\obj/../app/diskio.c:139
	PRINT("disk_read\n");
     db0:	4808      	ldr	r0, [pc, #32]	; (dd4 <disk_read+0x28>)
C:\Users\alon\Desktop\github\iot-fan_at_cnblogs\CH577_CH578_CH579\AN\CH579EVT_USB_DISK_TEST\BLE\ch57x_ble_uart_mrs_app_only_test\obj/../app/diskio.c:138
{
     db2:	000f      	movs	r7, r1
     db4:	0016      	movs	r6, r2
     db6:	001c      	movs	r4, r3
C:\Users\alon\Desktop\github\iot-fan_at_cnblogs\CH577_CH578_CH579\AN\CH579EVT_USB_DISK_TEST\BLE\ch57x_ble_uart_mrs_app_only_test\obj/../app/diskio.c:139
	PRINT("disk_read\n");
     db8:	f002 ff22 	bl	3c00 <puts>
C:\Users\alon\Desktop\github\iot-fan_at_cnblogs\CH577_CH578_CH579\AN\CH579EVT_USB_DISK_TEST\BLE\ch57x_ble_uart_mrs_app_only_test\obj/../app/diskio.c:144
	switch (pdrv)
     dbc:	2d00      	cmp	r5, #0
     dbe:	d107      	bne.n	dd0 <disk_read+0x24>
C:\Users\alon\Desktop\github\iot-fan_at_cnblogs\CH577_CH578_CH579\AN\CH579EVT_USB_DISK_TEST\BLE\ch57x_ble_uart_mrs_app_only_test\obj/../app/diskio.c:175
		spi_disk_read((UINT8 *)buff, sector << 12, count << 12);
     dc0:	0324      	lsls	r4, r4, #12
     dc2:	0038      	movs	r0, r7
     dc4:	b2a2      	uxth	r2, r4
     dc6:	0331      	lsls	r1, r6, #12
     dc8:	f7ff ffdc 	bl	d84 <spi_disk_read>
C:\Users\alon\Desktop\github\iot-fan_at_cnblogs\CH577_CH578_CH579\AN\CH579EVT_USB_DISK_TEST\BLE\ch57x_ble_uart_mrs_app_only_test\obj/../app/diskio.c:181
}
     dcc:	0028      	movs	r0, r5
     dce:	bdf8      	pop	{r3, r4, r5, r6, r7, pc}
C:\Users\alon\Desktop\github\iot-fan_at_cnblogs\CH577_CH578_CH579\AN\CH579EVT_USB_DISK_TEST\BLE\ch57x_ble_uart_mrs_app_only_test\obj/../app/diskio.c:180
	return RES_PARERR;
     dd0:	2504      	movs	r5, #4
     dd2:	e7fb      	b.n	dcc <disk_read+0x20>
     dd4:	00004b52 	.word	0x00004b52

00000dd8 <spi_disk_write>:
spi_disk_write():
C:\Users\alon\Desktop\github\iot-fan_at_cnblogs\CH577_CH578_CH579\AN\CH579EVT_USB_DISK_TEST\BLE\ch57x_ble_uart_mrs_app_only_test\obj/../app/diskio.c:306

void spi_disk_write(UINT8 *buff, UINT32 sector, UINT16 count)
{
     dd8:	b570      	push	{r4, r5, r6, lr}
     dda:	0015      	movs	r5, r2
     ddc:	0006      	movs	r6, r0
     dde:	000c      	movs	r4, r1
C:\Users\alon\Desktop\github\iot-fan_at_cnblogs\CH577_CH578_CH579\AN\CH579EVT_USB_DISK_TEST\BLE\ch57x_ble_uart_mrs_app_only_test\obj/../app/diskio.c:307
	PRINT("spi_disk_write sector: %d, count: %d\n", sector, count);
     de0:	4807      	ldr	r0, [pc, #28]	; (e00 <spi_disk_write+0x28>)
     de2:	f002 fe81 	bl	3ae8 <iprintf>
C:\Users\alon\Desktop\github\iot-fan_at_cnblogs\CH577_CH578_CH579\AN\CH579EVT_USB_DISK_TEST\BLE\ch57x_ble_uart_mrs_app_only_test\obj/../app/diskio.c:309

	BlukWriteExternalFlash_SPI(sector, count, (PUINT8)buff);
     de6:	0032      	movs	r2, r6
     de8:	0029      	movs	r1, r5
     dea:	0020      	movs	r0, r4
     dec:	f002 f8d2 	bl	2f94 <BlukWriteExternalFlash_SPI>
C:\Users\alon\Desktop\github\iot-fan_at_cnblogs\CH577_CH578_CH579\AN\CH579EVT_USB_DISK_TEST\BLE\ch57x_ble_uart_mrs_app_only_test\obj/../app/diskio.c:311

	PRINT("write end\n");
     df0:	4804      	ldr	r0, [pc, #16]	; (e04 <spi_disk_write+0x2c>)
     df2:	f002 ff05 	bl	3c00 <puts>
C:\Users\alon\Desktop\github\iot-fan_at_cnblogs\CH577_CH578_CH579\AN\CH579EVT_USB_DISK_TEST\BLE\ch57x_ble_uart_mrs_app_only_test\obj/../app/diskio.c:313

	DelayMs(20);
     df6:	2014      	movs	r0, #20
     df8:	f002 fd20 	bl	383c <mDelaymS>
C:\Users\alon\Desktop\github\iot-fan_at_cnblogs\CH577_CH578_CH579\AN\CH579EVT_USB_DISK_TEST\BLE\ch57x_ble_uart_mrs_app_only_test\obj/../app/diskio.c:314
}
     dfc:	bd70      	pop	{r4, r5, r6, pc}
     dfe:	46c0      	nop			; (mov r8, r8)
     e00:	00004b5c 	.word	0x00004b5c
     e04:	00004b82 	.word	0x00004b82

00000e08 <spi_disk_erase>:
spi_disk_erase():
C:\Users\alon\Desktop\github\iot-fan_at_cnblogs\CH577_CH578_CH579\AN\CH579EVT_USB_DISK_TEST\BLE\ch57x_ble_uart_mrs_app_only_test\obj/../app/diskio.c:316
void spi_disk_erase(UINT32 sector)
{
     e08:	b510      	push	{r4, lr}
     e0a:	0004      	movs	r4, r0
C:\Users\alon\Desktop\github\iot-fan_at_cnblogs\CH577_CH578_CH579\AN\CH579EVT_USB_DISK_TEST\BLE\ch57x_ble_uart_mrs_app_only_test\obj/../app/diskio.c:317
	PRINT("spi_disk_erase sector: %d\n", sector);
     e0c:	0001      	movs	r1, r0
     e0e:	4805      	ldr	r0, [pc, #20]	; (e24 <spi_disk_erase+0x1c>)
     e10:	f002 fe6a 	bl	3ae8 <iprintf>
C:\Users\alon\Desktop\github\iot-fan_at_cnblogs\CH577_CH578_CH579\AN\CH579EVT_USB_DISK_TEST\BLE\ch57x_ble_uart_mrs_app_only_test\obj/../app/diskio.c:319

	EraseExternal4KFlash_SPI(sector);
     e14:	0020      	movs	r0, r4
     e16:	f002 f869 	bl	2eec <EraseExternal4KFlash_SPI>
C:\Users\alon\Desktop\github\iot-fan_at_cnblogs\CH577_CH578_CH579\AN\CH579EVT_USB_DISK_TEST\BLE\ch57x_ble_uart_mrs_app_only_test\obj/../app/diskio.c:321

	PRINT("erase end\n");
     e1a:	4803      	ldr	r0, [pc, #12]	; (e28 <spi_disk_erase+0x20>)
     e1c:	f002 fef0 	bl	3c00 <puts>
C:\Users\alon\Desktop\github\iot-fan_at_cnblogs\CH577_CH578_CH579\AN\CH579EVT_USB_DISK_TEST\BLE\ch57x_ble_uart_mrs_app_only_test\obj/../app/diskio.c:322
     e20:	bd10      	pop	{r4, pc}
     e22:	46c0      	nop			; (mov r8, r8)
     e24:	00004b8c 	.word	0x00004b8c
     e28:	00004ba7 	.word	0x00004ba7

00000e2c <disk_write>:
disk_write():
C:\Users\alon\Desktop\github\iot-fan_at_cnblogs\CH577_CH578_CH579\AN\CH579EVT_USB_DISK_TEST\BLE\ch57x_ble_uart_mrs_app_only_test\obj/../app/diskio.c:193
{
     e2c:	b5f8      	push	{r3, r4, r5, r6, r7, lr}
     e2e:	0006      	movs	r6, r0
C:\Users\alon\Desktop\github\iot-fan_at_cnblogs\CH577_CH578_CH579\AN\CH579EVT_USB_DISK_TEST\BLE\ch57x_ble_uart_mrs_app_only_test\obj/../app/diskio.c:194
	PRINT("disk_write\n");
     e30:	480a      	ldr	r0, [pc, #40]	; (e5c <disk_write+0x30>)
C:\Users\alon\Desktop\github\iot-fan_at_cnblogs\CH577_CH578_CH579\AN\CH579EVT_USB_DISK_TEST\BLE\ch57x_ble_uart_mrs_app_only_test\obj/../app/diskio.c:193
{
     e32:	000f      	movs	r7, r1
     e34:	0015      	movs	r5, r2
     e36:	001c      	movs	r4, r3
C:\Users\alon\Desktop\github\iot-fan_at_cnblogs\CH577_CH578_CH579\AN\CH579EVT_USB_DISK_TEST\BLE\ch57x_ble_uart_mrs_app_only_test\obj/../app/diskio.c:194
	PRINT("disk_write\n");
     e38:	f002 fee2 	bl	3c00 <puts>
C:\Users\alon\Desktop\github\iot-fan_at_cnblogs\CH577_CH578_CH579\AN\CH579EVT_USB_DISK_TEST\BLE\ch57x_ble_uart_mrs_app_only_test\obj/../app/diskio.c:199
	switch (pdrv)
     e3c:	2e00      	cmp	r6, #0
     e3e:	d10b      	bne.n	e58 <disk_write+0x2c>
C:\Users\alon\Desktop\github\iot-fan_at_cnblogs\CH577_CH578_CH579\AN\CH579EVT_USB_DISK_TEST\BLE\ch57x_ble_uart_mrs_app_only_test\obj/../app/diskio.c:228
		spi_disk_erase(sector << 12);
     e40:	032d      	lsls	r5, r5, #12
     e42:	0028      	movs	r0, r5
C:\Users\alon\Desktop\github\iot-fan_at_cnblogs\CH577_CH578_CH579\AN\CH579EVT_USB_DISK_TEST\BLE\ch57x_ble_uart_mrs_app_only_test\obj/../app/diskio.c:229
		spi_disk_write((UINT8 *)buff, sector << 12, count << 12);
     e44:	0324      	lsls	r4, r4, #12
C:\Users\alon\Desktop\github\iot-fan_at_cnblogs\CH577_CH578_CH579\AN\CH579EVT_USB_DISK_TEST\BLE\ch57x_ble_uart_mrs_app_only_test\obj/../app/diskio.c:228
		spi_disk_erase(sector << 12);
     e46:	f7ff ffdf 	bl	e08 <spi_disk_erase>
C:\Users\alon\Desktop\github\iot-fan_at_cnblogs\CH577_CH578_CH579\AN\CH579EVT_USB_DISK_TEST\BLE\ch57x_ble_uart_mrs_app_only_test\obj/../app/diskio.c:229
		spi_disk_write((UINT8 *)buff, sector << 12, count << 12);
     e4a:	0029      	movs	r1, r5
     e4c:	0038      	movs	r0, r7
     e4e:	b2a2      	uxth	r2, r4
     e50:	f7ff ffc2 	bl	dd8 <spi_disk_write>
C:\Users\alon\Desktop\github\iot-fan_at_cnblogs\CH577_CH578_CH579\AN\CH579EVT_USB_DISK_TEST\BLE\ch57x_ble_uart_mrs_app_only_test\obj/../app/diskio.c:235
}
     e54:	0030      	movs	r0, r6
     e56:	bdf8      	pop	{r3, r4, r5, r6, r7, pc}
C:\Users\alon\Desktop\github\iot-fan_at_cnblogs\CH577_CH578_CH579\AN\CH579EVT_USB_DISK_TEST\BLE\ch57x_ble_uart_mrs_app_only_test\obj/../app/diskio.c:234
	return RES_PARERR;
     e58:	2604      	movs	r6, #4
     e5a:	e7fb      	b.n	e54 <disk_write+0x28>
     e5c:	00004bb1 	.word	0x00004bb1

00000e60 <ld_dword>:
ld_dword():
C:\Users\alon\Desktop\github\iot-fan_at_cnblogs\CH577_CH578_CH579\AN\CH579EVT_USB_DISK_TEST\BLE\ch57x_ble_uart_mrs_app_only_test\obj/../app/ff.c:584
static DWORD ld_dword (const BYTE* ptr)	/* Load a 4-byte little-endian word */
{
	DWORD rv;

	rv = ptr[3];
	rv = rv << 8 | ptr[2];
     e60:	78c3      	ldrb	r3, [r0, #3]
     e62:	7882      	ldrb	r2, [r0, #2]
     e64:	021b      	lsls	r3, r3, #8
     e66:	4313      	orrs	r3, r2
C:\Users\alon\Desktop\github\iot-fan_at_cnblogs\CH577_CH578_CH579\AN\CH579EVT_USB_DISK_TEST\BLE\ch57x_ble_uart_mrs_app_only_test\obj/../app/ff.c:585
	rv = rv << 8 | ptr[1];
     e68:	7842      	ldrb	r2, [r0, #1]
     e6a:	021b      	lsls	r3, r3, #8
C:\Users\alon\Desktop\github\iot-fan_at_cnblogs\CH577_CH578_CH579\AN\CH579EVT_USB_DISK_TEST\BLE\ch57x_ble_uart_mrs_app_only_test\obj/../app/ff.c:586
	rv = rv << 8 | ptr[0];
     e6c:	7800      	ldrb	r0, [r0, #0]
C:\Users\alon\Desktop\github\iot-fan_at_cnblogs\CH577_CH578_CH579\AN\CH579EVT_USB_DISK_TEST\BLE\ch57x_ble_uart_mrs_app_only_test\obj/../app/ff.c:585
	rv = rv << 8 | ptr[1];
     e6e:	4313      	orrs	r3, r2
C:\Users\alon\Desktop\github\iot-fan_at_cnblogs\CH577_CH578_CH579\AN\CH579EVT_USB_DISK_TEST\BLE\ch57x_ble_uart_mrs_app_only_test\obj/../app/ff.c:586
	rv = rv << 8 | ptr[0];
     e70:	021b      	lsls	r3, r3, #8
     e72:	4318      	orrs	r0, r3
C:\Users\alon\Desktop\github\iot-fan_at_cnblogs\CH577_CH578_CH579\AN\CH579EVT_USB_DISK_TEST\BLE\ch57x_ble_uart_mrs_app_only_test\obj/../app/ff.c:588
	return rv;
}
     e74:	4770      	bx	lr

00000e76 <st_dword>:
st_dword():
C:\Users\alon\Desktop\github\iot-fan_at_cnblogs\CH577_CH578_CH579\AN\CH579EVT_USB_DISK_TEST\BLE\ch57x_ble_uart_mrs_app_only_test\obj/../app/ff.c:616
	*ptr++ = (BYTE)val;
}

static void st_dword (BYTE* ptr, DWORD val)	/* Store a 4-byte word in little-endian */
{
	*ptr++ = (BYTE)val; val >>= 8;
     e76:	0a0b      	lsrs	r3, r1, #8
     e78:	7001      	strb	r1, [r0, #0]
C:\Users\alon\Desktop\github\iot-fan_at_cnblogs\CH577_CH578_CH579\AN\CH579EVT_USB_DISK_TEST\BLE\ch57x_ble_uart_mrs_app_only_test\obj/../app/ff.c:617
	*ptr++ = (BYTE)val; val >>= 8;
     e7a:	7043      	strb	r3, [r0, #1]
     e7c:	0c0b      	lsrs	r3, r1, #16
C:\Users\alon\Desktop\github\iot-fan_at_cnblogs\CH577_CH578_CH579\AN\CH579EVT_USB_DISK_TEST\BLE\ch57x_ble_uart_mrs_app_only_test\obj/../app/ff.c:618
	*ptr++ = (BYTE)val; val >>= 8;
     e7e:	0e09      	lsrs	r1, r1, #24
     e80:	7083      	strb	r3, [r0, #2]
C:\Users\alon\Desktop\github\iot-fan_at_cnblogs\CH577_CH578_CH579\AN\CH579EVT_USB_DISK_TEST\BLE\ch57x_ble_uart_mrs_app_only_test\obj/../app/ff.c:619
	*ptr++ = (BYTE)val;
     e82:	70c1      	strb	r1, [r0, #3]
C:\Users\alon\Desktop\github\iot-fan_at_cnblogs\CH577_CH578_CH579\AN\CH579EVT_USB_DISK_TEST\BLE\ch57x_ble_uart_mrs_app_only_test\obj/../app/ff.c:620
}
     e84:	4770      	bx	lr

00000e86 <mem_set>:
mem_set():
C:\Users\alon\Desktop\github\iot-fan_at_cnblogs\CH577_CH578_CH579\AN\CH579EVT_USB_DISK_TEST\BLE\ch57x_ble_uart_mrs_app_only_test\obj/../app/ff.c:660


/* Fill memory block */
static void mem_set (void* dst, int val, UINT cnt)
{
	BYTE *d = (BYTE*)dst;
     e86:	1882      	adds	r2, r0, r2
C:\Users\alon\Desktop\github\iot-fan_at_cnblogs\CH577_CH578_CH579\AN\CH579EVT_USB_DISK_TEST\BLE\ch57x_ble_uart_mrs_app_only_test\obj/../app/ff.c:663 (discriminator 1)

	do {
		*d++ = (BYTE)val;
     e88:	7001      	strb	r1, [r0, #0]
C:\Users\alon\Desktop\github\iot-fan_at_cnblogs\CH577_CH578_CH579\AN\CH579EVT_USB_DISK_TEST\BLE\ch57x_ble_uart_mrs_app_only_test\obj/../app/ff.c:664 (discriminator 1)
	} while (--cnt);
     e8a:	3001      	adds	r0, #1
     e8c:	4290      	cmp	r0, r2
     e8e:	d1fb      	bne.n	e88 <mem_set+0x2>
C:\Users\alon\Desktop\github\iot-fan_at_cnblogs\CH577_CH578_CH579\AN\CH579EVT_USB_DISK_TEST\BLE\ch57x_ble_uart_mrs_app_only_test\obj/../app/ff.c:665
}
     e90:	4770      	bx	lr

00000e92 <mem_cmp>:
mem_cmp():
C:\Users\alon\Desktop\github\iot-fan_at_cnblogs\CH577_CH578_CH579\AN\CH579EVT_USB_DISK_TEST\BLE\ch57x_ble_uart_mrs_app_only_test\obj/../app/ff.c:670


/* Compare memory block */
static int mem_cmp (const void* dst, const void* src, UINT cnt)	/* ZR:same, NZ:different */
{
     e92:	b530      	push	{r4, r5, lr}
     e94:	2300      	movs	r3, #0
     e96:	0005      	movs	r5, r0
C:\Users\alon\Desktop\github\iot-fan_at_cnblogs\CH577_CH578_CH579\AN\CH579EVT_USB_DISK_TEST\BLE\ch57x_ble_uart_mrs_app_only_test\obj/../app/ff.c:672
	const BYTE *d = (const BYTE *)dst, *s = (const BYTE *)src;
	int r = 0;
     e98:	3a01      	subs	r2, #1
C:\Users\alon\Desktop\github\iot-fan_at_cnblogs\CH577_CH578_CH579\AN\CH579EVT_USB_DISK_TEST\BLE\ch57x_ble_uart_mrs_app_only_test\obj/../app/ff.c:675 (discriminator 2)

	do {
		r = *d++ - *s++;
     e9a:	5cec      	ldrb	r4, [r5, r3]
     e9c:	5cc8      	ldrb	r0, [r1, r3]
     e9e:	1a20      	subs	r0, r4, r0
C:\Users\alon\Desktop\github\iot-fan_at_cnblogs\CH577_CH578_CH579\AN\CH579EVT_USB_DISK_TEST\BLE\ch57x_ble_uart_mrs_app_only_test\obj/../app/ff.c:676 (discriminator 2)
	} while (--cnt && r == 0);
     ea0:	429a      	cmp	r2, r3
     ea2:	d002      	beq.n	eaa <mem_cmp+0x18>
     ea4:	3301      	adds	r3, #1
C:\Users\alon\Desktop\github\iot-fan_at_cnblogs\CH577_CH578_CH579\AN\CH579EVT_USB_DISK_TEST\BLE\ch57x_ble_uart_mrs_app_only_test\obj/../app/ff.c:676 (discriminator 1)
     ea6:	2800      	cmp	r0, #0
     ea8:	d0f7      	beq.n	e9a <mem_cmp+0x8>
C:\Users\alon\Desktop\github\iot-fan_at_cnblogs\CH577_CH578_CH579\AN\CH579EVT_USB_DISK_TEST\BLE\ch57x_ble_uart_mrs_app_only_test\obj/../app/ff.c:679

	return r;
}
     eaa:	bd30      	pop	{r4, r5, pc}

00000eac <clst2sect>:
clst2sect():
C:\Users\alon\Desktop\github\iot-fan_at_cnblogs\CH577_CH578_CH579\AN\CH579EVT_USB_DISK_TEST\BLE\ch57x_ble_uart_mrs_app_only_test\obj/../app/ff.c:1128
	FATFS* fs,		/* Filesystem object */
	DWORD clst		/* Cluster# to be converted */
)
{
	clst -= 2;		/* Cluster number is origin from 2 */
	if (clst >= fs->n_fatent - 2) return 0;		/* Is it invalid cluster number? */
     eac:	6982      	ldr	r2, [r0, #24]
C:\Users\alon\Desktop\github\iot-fan_at_cnblogs\CH577_CH578_CH579\AN\CH579EVT_USB_DISK_TEST\BLE\ch57x_ble_uart_mrs_app_only_test\obj/../app/ff.c:1127
	clst -= 2;		/* Cluster number is origin from 2 */
     eae:	3902      	subs	r1, #2
C:\Users\alon\Desktop\github\iot-fan_at_cnblogs\CH577_CH578_CH579\AN\CH579EVT_USB_DISK_TEST\BLE\ch57x_ble_uart_mrs_app_only_test\obj/../app/ff.c:1128
	if (clst >= fs->n_fatent - 2) return 0;		/* Is it invalid cluster number? */
     eb0:	3a02      	subs	r2, #2
C:\Users\alon\Desktop\github\iot-fan_at_cnblogs\CH577_CH578_CH579\AN\CH579EVT_USB_DISK_TEST\BLE\ch57x_ble_uart_mrs_app_only_test\obj/../app/ff.c:1126
{
     eb2:	0003      	movs	r3, r0
C:\Users\alon\Desktop\github\iot-fan_at_cnblogs\CH577_CH578_CH579\AN\CH579EVT_USB_DISK_TEST\BLE\ch57x_ble_uart_mrs_app_only_test\obj/../app/ff.c:1128
	if (clst >= fs->n_fatent - 2) return 0;		/* Is it invalid cluster number? */
     eb4:	2000      	movs	r0, #0
     eb6:	428a      	cmp	r2, r1
     eb8:	d903      	bls.n	ec2 <clst2sect+0x16>
C:\Users\alon\Desktop\github\iot-fan_at_cnblogs\CH577_CH578_CH579\AN\CH579EVT_USB_DISK_TEST\BLE\ch57x_ble_uart_mrs_app_only_test\obj/../app/ff.c:1129
	return fs->database + fs->csize * clst;		/* Start sector number of the cluster */
     eba:	8958      	ldrh	r0, [r3, #10]
     ebc:	4341      	muls	r1, r0
     ebe:	6ad8      	ldr	r0, [r3, #44]	; 0x2c
     ec0:	1808      	adds	r0, r1, r0
C:\Users\alon\Desktop\github\iot-fan_at_cnblogs\CH577_CH578_CH579\AN\CH579EVT_USB_DISK_TEST\BLE\ch57x_ble_uart_mrs_app_only_test\obj/../app/ff.c:1130
}
     ec2:	4770      	bx	lr

00000ec4 <sum_sfn>:
sum_sfn():
C:\Users\alon\Desktop\github\iot-fan_at_cnblogs\CH577_CH578_CH579\AN\CH579EVT_USB_DISK_TEST\BLE\ch57x_ble_uart_mrs_app_only_test\obj/../app/ff.c:2034
static BYTE sum_sfn (
	const BYTE* dir		/* Pointer to the SFN entry */
)
{
	BYTE sum = 0;
	UINT n = 11;
     ec4:	0001      	movs	r1, r0
C:\Users\alon\Desktop\github\iot-fan_at_cnblogs\CH577_CH578_CH579\AN\CH579EVT_USB_DISK_TEST\BLE\ch57x_ble_uart_mrs_app_only_test\obj/../app/ff.c:2032
{
     ec6:	0003      	movs	r3, r0
C:\Users\alon\Desktop\github\iot-fan_at_cnblogs\CH577_CH578_CH579\AN\CH579EVT_USB_DISK_TEST\BLE\ch57x_ble_uart_mrs_app_only_test\obj/../app/ff.c:2033
	BYTE sum = 0;
     ec8:	2000      	movs	r0, #0
     eca:	310b      	adds	r1, #11
C:\Users\alon\Desktop\github\iot-fan_at_cnblogs\CH577_CH578_CH579\AN\CH579EVT_USB_DISK_TEST\BLE\ch57x_ble_uart_mrs_app_only_test\obj/../app/ff.c:2037 (discriminator 1)

	do {
		sum = (sum >> 1) + (sum << 7) + *dir++;
     ecc:	0842      	lsrs	r2, r0, #1
     ece:	01c0      	lsls	r0, r0, #7
     ed0:	4310      	orrs	r0, r2
     ed2:	781a      	ldrb	r2, [r3, #0]
     ed4:	3301      	adds	r3, #1
     ed6:	1880      	adds	r0, r0, r2
     ed8:	b2c0      	uxtb	r0, r0
C:\Users\alon\Desktop\github\iot-fan_at_cnblogs\CH577_CH578_CH579\AN\CH579EVT_USB_DISK_TEST\BLE\ch57x_ble_uart_mrs_app_only_test\obj/../app/ff.c:2038 (discriminator 1)
	} while (--n);
     eda:	428b      	cmp	r3, r1
     edc:	d1f6      	bne.n	ecc <sum_sfn+0x8>
C:\Users\alon\Desktop\github\iot-fan_at_cnblogs\CH577_CH578_CH579\AN\CH579EVT_USB_DISK_TEST\BLE\ch57x_ble_uart_mrs_app_only_test\obj/../app/ff.c:2040
	return sum;
}
     ede:	4770      	bx	lr

00000ee0 <get_ldnumber>:
get_ldnumber():
C:\Users\alon\Desktop\github\iot-fan_at_cnblogs\CH577_CH578_CH579\AN\CH579EVT_USB_DISK_TEST\BLE\ch57x_ble_uart_mrs_app_only_test\obj/../app/ff.c:3112
#if FF_STR_VOLUME_ID		/* Find string volume ID */
	const char *sp;
	char c;
#endif

	tt = tp = *path;
     ee0:	6802      	ldr	r2, [r0, #0]
C:\Users\alon\Desktop\github\iot-fan_at_cnblogs\CH577_CH578_CH579\AN\CH579EVT_USB_DISK_TEST\BLE\ch57x_ble_uart_mrs_app_only_test\obj/../app/ff.c:3103
{
     ee2:	b510      	push	{r4, lr}
C:\Users\alon\Desktop\github\iot-fan_at_cnblogs\CH577_CH578_CH579\AN\CH579EVT_USB_DISK_TEST\BLE\ch57x_ble_uart_mrs_app_only_test\obj/../app/ff.c:3113
	if (!tp) return vol;	/* Invalid path name? */
     ee4:	2a00      	cmp	r2, #0
     ee6:	d00b      	beq.n	f00 <get_ldnumber+0x20>
     ee8:	0013      	movs	r3, r2
C:\Users\alon\Desktop\github\iot-fan_at_cnblogs\CH577_CH578_CH579\AN\CH579EVT_USB_DISK_TEST\BLE\ch57x_ble_uart_mrs_app_only_test\obj/../app/ff.c:3114 (discriminator 2)
	do tc = *tt++; while ((UINT)tc >= (FF_USE_LFN ? ' ' : '!') && tc != ':');	/* Find a colon in the path */
     eea:	7819      	ldrb	r1, [r3, #0]
     eec:	3301      	adds	r3, #1
     eee:	b249      	sxtb	r1, r1
     ef0:	b2cc      	uxtb	r4, r1
     ef2:	2c1f      	cmp	r4, #31
     ef4:	d90c      	bls.n	f10 <get_ldnumber+0x30>
C:\Users\alon\Desktop\github\iot-fan_at_cnblogs\CH577_CH578_CH579\AN\CH579EVT_USB_DISK_TEST\BLE\ch57x_ble_uart_mrs_app_only_test\obj/../app/ff.c:3114 (discriminator 1)
     ef6:	293a      	cmp	r1, #58	; 0x3a
     ef8:	d1f7      	bne.n	eea <get_ldnumber+0xa>
C:\Users\alon\Desktop\github\iot-fan_at_cnblogs\CH577_CH578_CH579\AN\CH579EVT_USB_DISK_TEST\BLE\ch57x_ble_uart_mrs_app_only_test\obj/../app/ff.c:3118

	if (tc == ':') {	/* DOS/Windows style volume ID? */
		i = FF_VOLUMES;
		if (IsDigit(*tp) && tp + 2 == tt) {	/* Is there a numeric volume ID + colon? */
     efa:	1c91      	adds	r1, r2, #2
     efc:	428b      	cmp	r3, r1
     efe:	d002      	beq.n	f06 <get_ldnumber+0x26>
C:\Users\alon\Desktop\github\iot-fan_at_cnblogs\CH577_CH578_CH579\AN\CH579EVT_USB_DISK_TEST\BLE\ch57x_ble_uart_mrs_app_only_test\obj/../app/ff.c:3113
	if (!tp) return vol;	/* Invalid path name? */
     f00:	2001      	movs	r0, #1
     f02:	4240      	negs	r0, r0
     f04:	e005      	b.n	f12 <get_ldnumber+0x32>
C:\Users\alon\Desktop\github\iot-fan_at_cnblogs\CH577_CH578_CH579\AN\CH579EVT_USB_DISK_TEST\BLE\ch57x_ble_uart_mrs_app_only_test\obj/../app/ff.c:3134
					if (IsLower(tc)) tc -= 0x20;
				} while (c && (TCHAR)c == tc);
			} while ((c || tp != tt) && ++i < FF_VOLUMES);	/* Repeat for each id until pattern match */
		}
#endif
		if (i < FF_VOLUMES) {	/* If a volume ID is found, get the drive number and strip it */
     f06:	7812      	ldrb	r2, [r2, #0]
     f08:	b252      	sxtb	r2, r2
     f0a:	2a30      	cmp	r2, #48	; 0x30
     f0c:	d1f8      	bne.n	f00 <get_ldnumber+0x20>
C:\Users\alon\Desktop\github\iot-fan_at_cnblogs\CH577_CH578_CH579\AN\CH579EVT_USB_DISK_TEST\BLE\ch57x_ble_uart_mrs_app_only_test\obj/../app/ff.c:3136
			vol = i;		/* Drive number */
			*path = tt;		/* Snip the drive prefix off */
     f0e:	6003      	str	r3, [r0, #0]
C:\Users\alon\Desktop\github\iot-fan_at_cnblogs\CH577_CH578_CH579\AN\CH579EVT_USB_DISK_TEST\BLE\ch57x_ble_uart_mrs_app_only_test\obj/../app/ff.c:3164
#if FF_FS_RPATH != 0
	vol = CurrVol;	/* Default drive is current drive */
#else
	vol = 0;		/* Default drive is 0 */
#endif
	return vol;		/* Return the default drive */
     f10:	2000      	movs	r0, #0
C:\Users\alon\Desktop\github\iot-fan_at_cnblogs\CH577_CH578_CH579\AN\CH579EVT_USB_DISK_TEST\BLE\ch57x_ble_uart_mrs_app_only_test\obj/../app/ff.c:3165
}
     f12:	bd10      	pop	{r4, pc}

00000f14 <validate>:
validate():
C:\Users\alon\Desktop\github\iot-fan_at_cnblogs\CH577_CH578_CH579\AN\CH579EVT_USB_DISK_TEST\BLE\ch57x_ble_uart_mrs_app_only_test\obj/../app/ff.c:3430

static FRESULT validate (	/* Returns FR_OK or FR_INVALID_OBJECT */
	FFOBJID* obj,			/* Pointer to the FFOBJID, the 1st member in the FIL/DIR object, to check validity */
	FATFS** rfs				/* Pointer to pointer to the owner filesystem object to return */
)
{
     f14:	b570      	push	{r4, r5, r6, lr}
     f16:	0004      	movs	r4, r0
     f18:	000d      	movs	r5, r1
C:\Users\alon\Desktop\github\iot-fan_at_cnblogs\CH577_CH578_CH579\AN\CH579EVT_USB_DISK_TEST\BLE\ch57x_ble_uart_mrs_app_only_test\obj/../app/ff.c:3434
	FRESULT res = FR_INVALID_OBJECT;


	if (obj && obj->fs && obj->fs->fs_type && obj->id == obj->fs->id) {	/* Test if the object is valid */
     f1a:	2800      	cmp	r0, #0
     f1c:	d104      	bne.n	f28 <validate+0x14>
C:\Users\alon\Desktop\github\iot-fan_at_cnblogs\CH577_CH578_CH579\AN\CH579EVT_USB_DISK_TEST\BLE\ch57x_ble_uart_mrs_app_only_test\obj/../app/ff.c:3431
	FRESULT res = FR_INVALID_OBJECT;
     f1e:	2309      	movs	r3, #9
C:\Users\alon\Desktop\github\iot-fan_at_cnblogs\CH577_CH578_CH579\AN\CH579EVT_USB_DISK_TEST\BLE\ch57x_ble_uart_mrs_app_only_test\obj/../app/ff.c:3451
		if (!(disk_status(obj->fs->pdrv) & STA_NOINIT)) { /* Test if the phsical drive is kept initialized */
			res = FR_OK;
		}
#endif
	}
	*rfs = (res == FR_OK) ? obj->fs : 0;	/* Corresponding filesystem object */
     f20:	2200      	movs	r2, #0
C:\Users\alon\Desktop\github\iot-fan_at_cnblogs\CH577_CH578_CH579\AN\CH579EVT_USB_DISK_TEST\BLE\ch57x_ble_uart_mrs_app_only_test\obj/../app/ff.c:3453 (discriminator 4)
	return res;
}
     f22:	0018      	movs	r0, r3
C:\Users\alon\Desktop\github\iot-fan_at_cnblogs\CH577_CH578_CH579\AN\CH579EVT_USB_DISK_TEST\BLE\ch57x_ble_uart_mrs_app_only_test\obj/../app/ff.c:3451 (discriminator 4)
	*rfs = (res == FR_OK) ? obj->fs : 0;	/* Corresponding filesystem object */
     f24:	602a      	str	r2, [r5, #0]
C:\Users\alon\Desktop\github\iot-fan_at_cnblogs\CH577_CH578_CH579\AN\CH579EVT_USB_DISK_TEST\BLE\ch57x_ble_uart_mrs_app_only_test\obj/../app/ff.c:3453 (discriminator 4)
}
     f26:	bd70      	pop	{r4, r5, r6, pc}
C:\Users\alon\Desktop\github\iot-fan_at_cnblogs\CH577_CH578_CH579\AN\CH579EVT_USB_DISK_TEST\BLE\ch57x_ble_uart_mrs_app_only_test\obj/../app/ff.c:3434 (discriminator 1)
	if (obj && obj->fs && obj->fs->fs_type && obj->id == obj->fs->id) {	/* Test if the object is valid */
     f28:	6803      	ldr	r3, [r0, #0]
     f2a:	2b00      	cmp	r3, #0
     f2c:	d0f7      	beq.n	f1e <validate+0xa>
C:\Users\alon\Desktop\github\iot-fan_at_cnblogs\CH577_CH578_CH579\AN\CH579EVT_USB_DISK_TEST\BLE\ch57x_ble_uart_mrs_app_only_test\obj/../app/ff.c:3434 (discriminator 2)
     f2e:	781a      	ldrb	r2, [r3, #0]
     f30:	2a00      	cmp	r2, #0
     f32:	d0f4      	beq.n	f1e <validate+0xa>
C:\Users\alon\Desktop\github\iot-fan_at_cnblogs\CH577_CH578_CH579\AN\CH579EVT_USB_DISK_TEST\BLE\ch57x_ble_uart_mrs_app_only_test\obj/../app/ff.c:3434 (discriminator 3)
     f34:	8881      	ldrh	r1, [r0, #4]
     f36:	88da      	ldrh	r2, [r3, #6]
     f38:	4291      	cmp	r1, r2
     f3a:	d1f0      	bne.n	f1e <validate+0xa>
C:\Users\alon\Desktop\github\iot-fan_at_cnblogs\CH577_CH578_CH579\AN\CH579EVT_USB_DISK_TEST\BLE\ch57x_ble_uart_mrs_app_only_test\obj/../app/ff.c:3446
		if (!(disk_status(obj->fs->pdrv) & STA_NOINIT)) { /* Test if the phsical drive is kept initialized */
     f3c:	7858      	ldrb	r0, [r3, #1]
     f3e:	f7ff fed9 	bl	cf4 <disk_status>
     f42:	2201      	movs	r2, #1
     f44:	0003      	movs	r3, r0
     f46:	4013      	ands	r3, r2
     f48:	4210      	tst	r0, r2
     f4a:	d1e8      	bne.n	f1e <validate+0xa>
C:\Users\alon\Desktop\github\iot-fan_at_cnblogs\CH577_CH578_CH579\AN\CH579EVT_USB_DISK_TEST\BLE\ch57x_ble_uart_mrs_app_only_test\obj/../app/ff.c:3451
	*rfs = (res == FR_OK) ? obj->fs : 0;	/* Corresponding filesystem object */
     f4c:	6822      	ldr	r2, [r4, #0]
     f4e:	e7e8      	b.n	f22 <validate+0xe>

00000f50 <mem_cpy.part.0>:
mem_cpy():
C:\Users\alon\Desktop\github\iot-fan_at_cnblogs\CH577_CH578_CH579\AN\CH579EVT_USB_DISK_TEST\BLE\ch57x_ble_uart_mrs_app_only_test\obj/../app/ff.c:644
static void mem_cpy (void* dst, const void* src, UINT cnt)
     f50:	2300      	movs	r3, #0
     f52:	b510      	push	{r4, lr}
C:\Users\alon\Desktop\github\iot-fan_at_cnblogs\CH577_CH578_CH579\AN\CH579EVT_USB_DISK_TEST\BLE\ch57x_ble_uart_mrs_app_only_test\obj/../app/ff.c:651
			*d++ = *s++;
     f54:	5ccc      	ldrb	r4, [r1, r3]
     f56:	54c4      	strb	r4, [r0, r3]
C:\Users\alon\Desktop\github\iot-fan_at_cnblogs\CH577_CH578_CH579\AN\CH579EVT_USB_DISK_TEST\BLE\ch57x_ble_uart_mrs_app_only_test\obj/../app/ff.c:652
		} while (--cnt);
     f58:	3301      	adds	r3, #1
     f5a:	429a      	cmp	r2, r3
     f5c:	d1fa      	bne.n	f54 <mem_cpy.part.0+0x4>
C:\Users\alon\Desktop\github\iot-fan_at_cnblogs\CH577_CH578_CH579\AN\CH579EVT_USB_DISK_TEST\BLE\ch57x_ble_uart_mrs_app_only_test\obj/../app/ff.c:654
}
     f5e:	bd10      	pop	{r4, pc}

00000f60 <ld_clust.isra.0>:
ld_word():
C:\Users\alon\Desktop\github\iot-fan_at_cnblogs\CH577_CH578_CH579\AN\CH579EVT_USB_DISK_TEST\BLE\ch57x_ble_uart_mrs_app_only_test\obj/../app/ff.c:575
	rv = rv << 8 | ptr[0];
     f60:	7eca      	ldrb	r2, [r1, #27]
ld_clust():
C:\Users\alon\Desktop\github\iot-fan_at_cnblogs\CH577_CH578_CH579\AN\CH579EVT_USB_DISK_TEST\BLE\ch57x_ble_uart_mrs_app_only_test\obj/../app/ff.c:1823
static DWORD ld_clust (	/* Returns the top cluster value of the SFN entry */
     f62:	b510      	push	{r4, lr}
     f64:	0004      	movs	r4, r0
ld_word():
C:\Users\alon\Desktop\github\iot-fan_at_cnblogs\CH577_CH578_CH579\AN\CH579EVT_USB_DISK_TEST\BLE\ch57x_ble_uart_mrs_app_only_test\obj/../app/ff.c:575
	rv = rv << 8 | ptr[0];
     f66:	7e88      	ldrb	r0, [r1, #26]
     f68:	0212      	lsls	r2, r2, #8
ld_clust():
C:\Users\alon\Desktop\github\iot-fan_at_cnblogs\CH577_CH578_CH579\AN\CH579EVT_USB_DISK_TEST\BLE\ch57x_ble_uart_mrs_app_only_test\obj/../app/ff.c:1830
	cl = ld_word(dir + DIR_FstClusLO);
     f6a:	4310      	orrs	r0, r2
C:\Users\alon\Desktop\github\iot-fan_at_cnblogs\CH577_CH578_CH579\AN\CH579EVT_USB_DISK_TEST\BLE\ch57x_ble_uart_mrs_app_only_test\obj/../app/ff.c:1831
	if (fs->fs_type == FS_FAT32) {
     f6c:	2c03      	cmp	r4, #3
     f6e:	d105      	bne.n	f7c <ld_clust.isra.0+0x1c>
ld_word():
C:\Users\alon\Desktop\github\iot-fan_at_cnblogs\CH577_CH578_CH579\AN\CH579EVT_USB_DISK_TEST\BLE\ch57x_ble_uart_mrs_app_only_test\obj/../app/ff.c:575
	rv = rv << 8 | ptr[0];
     f70:	7d4a      	ldrb	r2, [r1, #21]
     f72:	7d0b      	ldrb	r3, [r1, #20]
     f74:	0212      	lsls	r2, r2, #8
ld_clust():
C:\Users\alon\Desktop\github\iot-fan_at_cnblogs\CH577_CH578_CH579\AN\CH579EVT_USB_DISK_TEST\BLE\ch57x_ble_uart_mrs_app_only_test\obj/../app/ff.c:1832
		cl |= (DWORD)ld_word(dir + DIR_FstClusHI) << 16;
     f76:	4313      	orrs	r3, r2
     f78:	041b      	lsls	r3, r3, #16
     f7a:	4318      	orrs	r0, r3
C:\Users\alon\Desktop\github\iot-fan_at_cnblogs\CH577_CH578_CH579\AN\CH579EVT_USB_DISK_TEST\BLE\ch57x_ble_uart_mrs_app_only_test\obj/../app/ff.c:1836
}
     f7c:	bd10      	pop	{r4, pc}

00000f7e <st_clust.isra.0>:
st_word():
C:\Users\alon\Desktop\github\iot-fan_at_cnblogs\CH577_CH578_CH579\AN\CH579EVT_USB_DISK_TEST\BLE\ch57x_ble_uart_mrs_app_only_test\obj/../app/ff.c:610
	*ptr++ = (BYTE)val; val >>= 8;
     f7e:	b293      	uxth	r3, r2
     f80:	0a1b      	lsrs	r3, r3, #8
     f82:	768a      	strb	r2, [r1, #26]
C:\Users\alon\Desktop\github\iot-fan_at_cnblogs\CH577_CH578_CH579\AN\CH579EVT_USB_DISK_TEST\BLE\ch57x_ble_uart_mrs_app_only_test\obj/../app/ff.c:611
	*ptr++ = (BYTE)val;
     f84:	76cb      	strb	r3, [r1, #27]
st_clust():
C:\Users\alon\Desktop\github\iot-fan_at_cnblogs\CH577_CH578_CH579\AN\CH579EVT_USB_DISK_TEST\BLE\ch57x_ble_uart_mrs_app_only_test\obj/../app/ff.c:1847
	if (fs->fs_type == FS_FAT32) {
     f86:	7803      	ldrb	r3, [r0, #0]
     f88:	2b03      	cmp	r3, #3
     f8a:	d103      	bne.n	f94 <st_clust.isra.0+0x16>
C:\Users\alon\Desktop\github\iot-fan_at_cnblogs\CH577_CH578_CH579\AN\CH579EVT_USB_DISK_TEST\BLE\ch57x_ble_uart_mrs_app_only_test\obj/../app/ff.c:1848
		st_word(dir + DIR_FstClusHI, (WORD)(cl >> 16));
     f8c:	0c12      	lsrs	r2, r2, #16
st_word():
C:\Users\alon\Desktop\github\iot-fan_at_cnblogs\CH577_CH578_CH579\AN\CH579EVT_USB_DISK_TEST\BLE\ch57x_ble_uart_mrs_app_only_test\obj/../app/ff.c:610
	*ptr++ = (BYTE)val; val >>= 8;
     f8e:	750a      	strb	r2, [r1, #20]
     f90:	0a12      	lsrs	r2, r2, #8
C:\Users\alon\Desktop\github\iot-fan_at_cnblogs\CH577_CH578_CH579\AN\CH579EVT_USB_DISK_TEST\BLE\ch57x_ble_uart_mrs_app_only_test\obj/../app/ff.c:611
	*ptr++ = (BYTE)val;
     f92:	754a      	strb	r2, [r1, #21]
st_clust():
C:\Users\alon\Desktop\github\iot-fan_at_cnblogs\CH577_CH578_CH579\AN\CH579EVT_USB_DISK_TEST\BLE\ch57x_ble_uart_mrs_app_only_test\obj/../app/ff.c:1850
}
     f94:	4770      	bx	lr

00000f96 <sync_window>:
sync_window():
C:\Users\alon\Desktop\github\iot-fan_at_cnblogs\CH577_CH578_CH579\AN\CH579EVT_USB_DISK_TEST\BLE\ch57x_ble_uart_mrs_app_only_test\obj/../app/ff.c:1035
{
     f96:	b570      	push	{r4, r5, r6, lr}
C:\Users\alon\Desktop\github\iot-fan_at_cnblogs\CH577_CH578_CH579\AN\CH579EVT_USB_DISK_TEST\BLE\ch57x_ble_uart_mrs_app_only_test\obj/../app/ff.c:1039
	if (fs->wflag) {	/* Is the disk access window dirty */
     f98:	78c3      	ldrb	r3, [r0, #3]
C:\Users\alon\Desktop\github\iot-fan_at_cnblogs\CH577_CH578_CH579\AN\CH579EVT_USB_DISK_TEST\BLE\ch57x_ble_uart_mrs_app_only_test\obj/../app/ff.c:1035
{
     f9a:	0004      	movs	r4, r0
C:\Users\alon\Desktop\github\iot-fan_at_cnblogs\CH577_CH578_CH579\AN\CH579EVT_USB_DISK_TEST\BLE\ch57x_ble_uart_mrs_app_only_test\obj/../app/ff.c:1039
	if (fs->wflag) {	/* Is the disk access window dirty */
     f9c:	2b00      	cmp	r3, #0
     f9e:	d102      	bne.n	fa6 <sync_window+0x10>
C:\Users\alon\Desktop\github\iot-fan_at_cnblogs\CH577_CH578_CH579\AN\CH579EVT_USB_DISK_TEST\BLE\ch57x_ble_uart_mrs_app_only_test\obj/../app/ff.c:1036
	FRESULT res = FR_OK;
     fa0:	2500      	movs	r5, #0
C:\Users\alon\Desktop\github\iot-fan_at_cnblogs\CH577_CH578_CH579\AN\CH579EVT_USB_DISK_TEST\BLE\ch57x_ble_uart_mrs_app_only_test\obj/../app/ff.c:1050
}
     fa2:	0028      	movs	r0, r5
     fa4:	bd70      	pop	{r4, r5, r6, pc}
C:\Users\alon\Desktop\github\iot-fan_at_cnblogs\CH577_CH578_CH579\AN\CH579EVT_USB_DISK_TEST\BLE\ch57x_ble_uart_mrs_app_only_test\obj/../app/ff.c:1040
		if (disk_write(fs->pdrv, fs->win, fs->winsect, 1) == RES_OK) {	/* Write back the window */
     fa6:	0006      	movs	r6, r0
     fa8:	3634      	adds	r6, #52	; 0x34
     faa:	2301      	movs	r3, #1
     fac:	0031      	movs	r1, r6
     fae:	7840      	ldrb	r0, [r0, #1]
     fb0:	6b22      	ldr	r2, [r4, #48]	; 0x30
     fb2:	f7ff ff3b 	bl	e2c <disk_write>
     fb6:	1e05      	subs	r5, r0, #0
     fb8:	d110      	bne.n	fdc <sync_window+0x46>
C:\Users\alon\Desktop\github\iot-fan_at_cnblogs\CH577_CH578_CH579\AN\CH579EVT_USB_DISK_TEST\BLE\ch57x_ble_uart_mrs_app_only_test\obj/../app/ff.c:1042
			if (fs->winsect - fs->fatbase < fs->fsize) {	/* Is it in the 1st FAT? */
     fba:	6b22      	ldr	r2, [r4, #48]	; 0x30
     fbc:	6a63      	ldr	r3, [r4, #36]	; 0x24
     fbe:	69e1      	ldr	r1, [r4, #28]
C:\Users\alon\Desktop\github\iot-fan_at_cnblogs\CH577_CH578_CH579\AN\CH579EVT_USB_DISK_TEST\BLE\ch57x_ble_uart_mrs_app_only_test\obj/../app/ff.c:1041
			fs->wflag = 0;	/* Clear window dirty flag */
     fc0:	70e0      	strb	r0, [r4, #3]
C:\Users\alon\Desktop\github\iot-fan_at_cnblogs\CH577_CH578_CH579\AN\CH579EVT_USB_DISK_TEST\BLE\ch57x_ble_uart_mrs_app_only_test\obj/../app/ff.c:1042
			if (fs->winsect - fs->fatbase < fs->fsize) {	/* Is it in the 1st FAT? */
     fc2:	1ad3      	subs	r3, r2, r3
     fc4:	428b      	cmp	r3, r1
     fc6:	d2eb      	bcs.n	fa0 <sync_window+0xa>
C:\Users\alon\Desktop\github\iot-fan_at_cnblogs\CH577_CH578_CH579\AN\CH579EVT_USB_DISK_TEST\BLE\ch57x_ble_uart_mrs_app_only_test\obj/../app/ff.c:1043
				if (fs->n_fats == 2) disk_write(fs->pdrv, fs->win, fs->winsect + fs->fsize, 1);	/* Reflect it to 2nd FAT if needed */
     fc8:	78a3      	ldrb	r3, [r4, #2]
     fca:	2b02      	cmp	r3, #2
     fcc:	d1e8      	bne.n	fa0 <sync_window+0xa>
     fce:	1852      	adds	r2, r2, r1
     fd0:	7860      	ldrb	r0, [r4, #1]
     fd2:	0031      	movs	r1, r6
     fd4:	3b01      	subs	r3, #1
     fd6:	f7ff ff29 	bl	e2c <disk_write>
     fda:	e7e2      	b.n	fa2 <sync_window+0xc>
C:\Users\alon\Desktop\github\iot-fan_at_cnblogs\CH577_CH578_CH579\AN\CH579EVT_USB_DISK_TEST\BLE\ch57x_ble_uart_mrs_app_only_test\obj/../app/ff.c:1046
			res = FR_DISK_ERR;
     fdc:	2501      	movs	r5, #1
     fde:	e7e0      	b.n	fa2 <sync_window+0xc>

00000fe0 <move_window>:
move_window():
C:\Users\alon\Desktop\github\iot-fan_at_cnblogs\CH577_CH578_CH579\AN\CH579EVT_USB_DISK_TEST\BLE\ch57x_ble_uart_mrs_app_only_test\obj/../app/ff.c:1058
{
     fe0:	b570      	push	{r4, r5, r6, lr}
     fe2:	0004      	movs	r4, r0
C:\Users\alon\Desktop\github\iot-fan_at_cnblogs\CH577_CH578_CH579\AN\CH579EVT_USB_DISK_TEST\BLE\ch57x_ble_uart_mrs_app_only_test\obj/../app/ff.c:1062
	if (sector != fs->winsect) {	/* Window offset changed? */
     fe4:	6b23      	ldr	r3, [r4, #48]	; 0x30
C:\Users\alon\Desktop\github\iot-fan_at_cnblogs\CH577_CH578_CH579\AN\CH579EVT_USB_DISK_TEST\BLE\ch57x_ble_uart_mrs_app_only_test\obj/../app/ff.c:1058
{
     fe6:	000d      	movs	r5, r1
C:\Users\alon\Desktop\github\iot-fan_at_cnblogs\CH577_CH578_CH579\AN\CH579EVT_USB_DISK_TEST\BLE\ch57x_ble_uart_mrs_app_only_test\obj/../app/ff.c:1059
	FRESULT res = FR_OK;
     fe8:	2000      	movs	r0, #0
C:\Users\alon\Desktop\github\iot-fan_at_cnblogs\CH577_CH578_CH579\AN\CH579EVT_USB_DISK_TEST\BLE\ch57x_ble_uart_mrs_app_only_test\obj/../app/ff.c:1062
	if (sector != fs->winsect) {	/* Window offset changed? */
     fea:	428b      	cmp	r3, r1
     fec:	d011      	beq.n	1012 <move_window+0x32>
C:\Users\alon\Desktop\github\iot-fan_at_cnblogs\CH577_CH578_CH579\AN\CH579EVT_USB_DISK_TEST\BLE\ch57x_ble_uart_mrs_app_only_test\obj/../app/ff.c:1064
		res = sync_window(fs);		/* Write-back changes */
     fee:	0020      	movs	r0, r4
     ff0:	f7ff ffd1 	bl	f96 <sync_window>
C:\Users\alon\Desktop\github\iot-fan_at_cnblogs\CH577_CH578_CH579\AN\CH579EVT_USB_DISK_TEST\BLE\ch57x_ble_uart_mrs_app_only_test\obj/../app/ff.c:1066
		if (res == FR_OK) {			/* Fill sector window with new data */
     ff4:	2800      	cmp	r0, #0
     ff6:	d10c      	bne.n	1012 <move_window+0x32>
C:\Users\alon\Desktop\github\iot-fan_at_cnblogs\CH577_CH578_CH579\AN\CH579EVT_USB_DISK_TEST\BLE\ch57x_ble_uart_mrs_app_only_test\obj/../app/ff.c:1067
			if (disk_read(fs->pdrv, fs->win, sector, 1) != RES_OK) {
     ff8:	0021      	movs	r1, r4
     ffa:	2301      	movs	r3, #1
     ffc:	002a      	movs	r2, r5
     ffe:	7860      	ldrb	r0, [r4, #1]
    1000:	3134      	adds	r1, #52	; 0x34
    1002:	f7ff fed3 	bl	dac <disk_read>
    1006:	2800      	cmp	r0, #0
    1008:	d002      	beq.n	1010 <move_window+0x30>
C:\Users\alon\Desktop\github\iot-fan_at_cnblogs\CH577_CH578_CH579\AN\CH579EVT_USB_DISK_TEST\BLE\ch57x_ble_uart_mrs_app_only_test\obj/../app/ff.c:1068
				sector = 0xFFFFFFFF;	/* Invalidate window if read data is not valid */
    100a:	2501      	movs	r5, #1
C:\Users\alon\Desktop\github\iot-fan_at_cnblogs\CH577_CH578_CH579\AN\CH579EVT_USB_DISK_TEST\BLE\ch57x_ble_uart_mrs_app_only_test\obj/../app/ff.c:1069
				res = FR_DISK_ERR;
    100c:	2001      	movs	r0, #1
C:\Users\alon\Desktop\github\iot-fan_at_cnblogs\CH577_CH578_CH579\AN\CH579EVT_USB_DISK_TEST\BLE\ch57x_ble_uart_mrs_app_only_test\obj/../app/ff.c:1068
				sector = 0xFFFFFFFF;	/* Invalidate window if read data is not valid */
    100e:	426d      	negs	r5, r5
C:\Users\alon\Desktop\github\iot-fan_at_cnblogs\CH577_CH578_CH579\AN\CH579EVT_USB_DISK_TEST\BLE\ch57x_ble_uart_mrs_app_only_test\obj/../app/ff.c:1071
			fs->winsect = sector;
    1010:	6325      	str	r5, [r4, #48]	; 0x30
C:\Users\alon\Desktop\github\iot-fan_at_cnblogs\CH577_CH578_CH579\AN\CH579EVT_USB_DISK_TEST\BLE\ch57x_ble_uart_mrs_app_only_test\obj/../app/ff.c:1075
}
    1012:	bd70      	pop	{r4, r5, r6, pc}

00001014 <check_fs>:
check_fs():
C:\Users\alon\Desktop\github\iot-fan_at_cnblogs\CH577_CH578_CH579\AN\CH579EVT_USB_DISK_TEST\BLE\ch57x_ble_uart_mrs_app_only_test\obj/../app/ff.c:3179
	fs->wflag = 0; fs->winsect = 0xFFFFFFFF;		/* Invaidate window */
    1014:	2300      	movs	r3, #0
C:\Users\alon\Desktop\github\iot-fan_at_cnblogs\CH577_CH578_CH579\AN\CH579EVT_USB_DISK_TEST\BLE\ch57x_ble_uart_mrs_app_only_test\obj/../app/ff.c:3178
{
    1016:	b570      	push	{r4, r5, r6, lr}
C:\Users\alon\Desktop\github\iot-fan_at_cnblogs\CH577_CH578_CH579\AN\CH579EVT_USB_DISK_TEST\BLE\ch57x_ble_uart_mrs_app_only_test\obj/../app/ff.c:3179
	fs->wflag = 0; fs->winsect = 0xFFFFFFFF;		/* Invaidate window */
    1018:	70c3      	strb	r3, [r0, #3]
    101a:	3b01      	subs	r3, #1
    101c:	6303      	str	r3, [r0, #48]	; 0x30
C:\Users\alon\Desktop\github\iot-fan_at_cnblogs\CH577_CH578_CH579\AN\CH579EVT_USB_DISK_TEST\BLE\ch57x_ble_uart_mrs_app_only_test\obj/../app/ff.c:3178
{
    101e:	0004      	movs	r4, r0
C:\Users\alon\Desktop\github\iot-fan_at_cnblogs\CH577_CH578_CH579\AN\CH579EVT_USB_DISK_TEST\BLE\ch57x_ble_uart_mrs_app_only_test\obj/../app/ff.c:3180
	if (move_window(fs, sect) != FR_OK) return 4;	/* Load boot record */
    1020:	f7ff ffde 	bl	fe0 <move_window>
    1024:	1e05      	subs	r5, r0, #0
    1026:	d124      	bne.n	1072 <check_fs+0x5e>
ld_word():
C:\Users\alon\Desktop\github\iot-fan_at_cnblogs\CH577_CH578_CH579\AN\CH579EVT_USB_DISK_TEST\BLE\ch57x_ble_uart_mrs_app_only_test\obj/../app/ff.c:574
	rv = ptr[1];
    1028:	4b15      	ldr	r3, [pc, #84]	; (1080 <check_fs+0x6c>)
C:\Users\alon\Desktop\github\iot-fan_at_cnblogs\CH577_CH578_CH579\AN\CH579EVT_USB_DISK_TEST\BLE\ch57x_ble_uart_mrs_app_only_test\obj/../app/ff.c:575
	rv = rv << 8 | ptr[0];
    102a:	5ce2      	ldrb	r2, [r4, r3]
    102c:	4b15      	ldr	r3, [pc, #84]	; (1084 <check_fs+0x70>)
    102e:	0212      	lsls	r2, r2, #8
    1030:	5ce3      	ldrb	r3, [r4, r3]
    1032:	4313      	orrs	r3, r2
check_fs():
C:\Users\alon\Desktop\github\iot-fan_at_cnblogs\CH577_CH578_CH579\AN\CH579EVT_USB_DISK_TEST\BLE\ch57x_ble_uart_mrs_app_only_test\obj/../app/ff.c:3182
	if (ld_word(fs->win + BS_55AA) != 0xAA55) return 3;	/* Check boot record signature (always here regardless of the sector size) */
    1034:	4a14      	ldr	r2, [pc, #80]	; (1088 <check_fs+0x74>)
    1036:	b21b      	sxth	r3, r3
    1038:	4293      	cmp	r3, r2
    103a:	d11c      	bne.n	1076 <check_fs+0x62>
C:\Users\alon\Desktop\github\iot-fan_at_cnblogs\CH577_CH578_CH579\AN\CH579EVT_USB_DISK_TEST\BLE\ch57x_ble_uart_mrs_app_only_test\obj/../app/ff.c:3187
	if (fs->win[BS_JmpBoot] == 0xE9 || fs->win[BS_JmpBoot] == 0xEB || fs->win[BS_JmpBoot] == 0xE8) {	/* Valid JumpBoot code? */
    103c:	0023      	movs	r3, r4
    103e:	3334      	adds	r3, #52	; 0x34
    1040:	781b      	ldrb	r3, [r3, #0]
    1042:	2beb      	cmp	r3, #235	; 0xeb
    1044:	d003      	beq.n	104e <check_fs+0x3a>
C:\Users\alon\Desktop\github\iot-fan_at_cnblogs\CH577_CH578_CH579\AN\CH579EVT_USB_DISK_TEST\BLE\ch57x_ble_uart_mrs_app_only_test\obj/../app/ff.c:3187 (discriminator 2)
    1046:	3318      	adds	r3, #24
    1048:	b2db      	uxtb	r3, r3
    104a:	2b01      	cmp	r3, #1
    104c:	d815      	bhi.n	107a <check_fs+0x66>
C:\Users\alon\Desktop\github\iot-fan_at_cnblogs\CH577_CH578_CH579\AN\CH579EVT_USB_DISK_TEST\BLE\ch57x_ble_uart_mrs_app_only_test\obj/../app/ff.c:3188
		if (!mem_cmp(fs->win + BS_FilSysType, "FAT", 3)) return 0;		/* Is it an FAT VBR? */
    104e:	0020      	movs	r0, r4
    1050:	2203      	movs	r2, #3
    1052:	490e      	ldr	r1, [pc, #56]	; (108c <check_fs+0x78>)
    1054:	306a      	adds	r0, #106	; 0x6a
    1056:	f7ff ff1c 	bl	e92 <mem_cmp>
    105a:	2800      	cmp	r0, #0
    105c:	d007      	beq.n	106e <check_fs+0x5a>
C:\Users\alon\Desktop\github\iot-fan_at_cnblogs\CH577_CH578_CH579\AN\CH579EVT_USB_DISK_TEST\BLE\ch57x_ble_uart_mrs_app_only_test\obj/../app/ff.c:3189
		if (!mem_cmp(fs->win + BS_FilSysType32, "FAT32", 5)) return 0;	/* Is it an FAT32 VBR? */
    105e:	0020      	movs	r0, r4
    1060:	2205      	movs	r2, #5
    1062:	490b      	ldr	r1, [pc, #44]	; (1090 <check_fs+0x7c>)
    1064:	3086      	adds	r0, #134	; 0x86
    1066:	f7ff ff14 	bl	e92 <mem_cmp>
    106a:	2800      	cmp	r0, #0
    106c:	d105      	bne.n	107a <check_fs+0x66>
C:\Users\alon\Desktop\github\iot-fan_at_cnblogs\CH577_CH578_CH579\AN\CH579EVT_USB_DISK_TEST\BLE\ch57x_ble_uart_mrs_app_only_test\obj/../app/ff.c:3192
}
    106e:	0028      	movs	r0, r5
    1070:	bd70      	pop	{r4, r5, r6, pc}
C:\Users\alon\Desktop\github\iot-fan_at_cnblogs\CH577_CH578_CH579\AN\CH579EVT_USB_DISK_TEST\BLE\ch57x_ble_uart_mrs_app_only_test\obj/../app/ff.c:3180
	if (move_window(fs, sect) != FR_OK) return 4;	/* Load boot record */
    1072:	2504      	movs	r5, #4
    1074:	e7fb      	b.n	106e <check_fs+0x5a>
C:\Users\alon\Desktop\github\iot-fan_at_cnblogs\CH577_CH578_CH579\AN\CH579EVT_USB_DISK_TEST\BLE\ch57x_ble_uart_mrs_app_only_test\obj/../app/ff.c:3182
	if (ld_word(fs->win + BS_55AA) != 0xAA55) return 3;	/* Check boot record signature (always here regardless of the sector size) */
    1076:	2503      	movs	r5, #3
    1078:	e7f9      	b.n	106e <check_fs+0x5a>
C:\Users\alon\Desktop\github\iot-fan_at_cnblogs\CH577_CH578_CH579\AN\CH579EVT_USB_DISK_TEST\BLE\ch57x_ble_uart_mrs_app_only_test\obj/../app/ff.c:3191
	return 2;	/* Valid BS but not FAT */
    107a:	2502      	movs	r5, #2
    107c:	e7f7      	b.n	106e <check_fs+0x5a>
    107e:	46c0      	nop			; (mov r8, r8)
    1080:	00000233 	.word	0x00000233
    1084:	00000232 	.word	0x00000232
    1088:	ffffaa55 	.word	0xffffaa55
    108c:	00004bbc 	.word	0x00004bbc
    1090:	00004bc0 	.word	0x00004bc0

00001094 <find_volume>:
find_volume():
C:\Users\alon\Desktop\github\iot-fan_at_cnblogs\CH577_CH578_CH579\AN\CH579EVT_USB_DISK_TEST\BLE\ch57x_ble_uart_mrs_app_only_test\obj/../app/ff.c:3217
	*rfs = 0;
    1094:	2300      	movs	r3, #0
C:\Users\alon\Desktop\github\iot-fan_at_cnblogs\CH577_CH578_CH579\AN\CH579EVT_USB_DISK_TEST\BLE\ch57x_ble_uart_mrs_app_only_test\obj/../app/ff.c:3206
{
    1096:	b5f0      	push	{r4, r5, r6, r7, lr}
C:\Users\alon\Desktop\github\iot-fan_at_cnblogs\CH577_CH578_CH579\AN\CH579EVT_USB_DISK_TEST\BLE\ch57x_ble_uart_mrs_app_only_test\obj/../app/ff.c:3217
	*rfs = 0;
    1098:	600b      	str	r3, [r1, #0]
C:\Users\alon\Desktop\github\iot-fan_at_cnblogs\CH577_CH578_CH579\AN\CH579EVT_USB_DISK_TEST\BLE\ch57x_ble_uart_mrs_app_only_test\obj/../app/ff.c:3206
{
    109a:	b08d      	sub	sp, #52	; 0x34
    109c:	000e      	movs	r6, r1
    109e:	9201      	str	r2, [sp, #4]
C:\Users\alon\Desktop\github\iot-fan_at_cnblogs\CH577_CH578_CH579\AN\CH579EVT_USB_DISK_TEST\BLE\ch57x_ble_uart_mrs_app_only_test\obj/../app/ff.c:3218
	vol = get_ldnumber(path);
    10a0:	f7ff ff1e 	bl	ee0 <get_ldnumber>
C:\Users\alon\Desktop\github\iot-fan_at_cnblogs\CH577_CH578_CH579\AN\CH579EVT_USB_DISK_TEST\BLE\ch57x_ble_uart_mrs_app_only_test\obj/../app/ff.c:3219
	if (vol < 0) return FR_INVALID_DRIVE;
    10a4:	240b      	movs	r4, #11
C:\Users\alon\Desktop\github\iot-fan_at_cnblogs\CH577_CH578_CH579\AN\CH579EVT_USB_DISK_TEST\BLE\ch57x_ble_uart_mrs_app_only_test\obj/../app/ff.c:3218
	vol = get_ldnumber(path);
    10a6:	1e05      	subs	r5, r0, #0
C:\Users\alon\Desktop\github\iot-fan_at_cnblogs\CH577_CH578_CH579\AN\CH579EVT_USB_DISK_TEST\BLE\ch57x_ble_uart_mrs_app_only_test\obj/../app/ff.c:3219
	if (vol < 0) return FR_INVALID_DRIVE;
    10a8:	db19      	blt.n	10de <find_volume+0x4a>
C:\Users\alon\Desktop\github\iot-fan_at_cnblogs\CH577_CH578_CH579\AN\CH579EVT_USB_DISK_TEST\BLE\ch57x_ble_uart_mrs_app_only_test\obj/../app/ff.c:3222
	fs = FatFs[vol];					/* Get pointer to the filesystem object */
    10aa:	4bac      	ldr	r3, [pc, #688]	; (135c <find_volume+0x2c8>)
    10ac:	0082      	lsls	r2, r0, #2
    10ae:	58d7      	ldr	r7, [r2, r3]
C:\Users\alon\Desktop\github\iot-fan_at_cnblogs\CH577_CH578_CH579\AN\CH579EVT_USB_DISK_TEST\BLE\ch57x_ble_uart_mrs_app_only_test\obj/../app/ff.c:3223
	if (!fs) return FR_NOT_ENABLED;		/* Is the filesystem object available? */
    10b0:	3401      	adds	r4, #1
    10b2:	2f00      	cmp	r7, #0
    10b4:	d013      	beq.n	10de <find_volume+0x4a>
C:\Users\alon\Desktop\github\iot-fan_at_cnblogs\CH577_CH578_CH579\AN\CH579EVT_USB_DISK_TEST\BLE\ch57x_ble_uart_mrs_app_only_test\obj/../app/ff.c:3227
	*rfs = fs;							/* Return pointer to the filesystem object */
    10b6:	6037      	str	r7, [r6, #0]
C:\Users\alon\Desktop\github\iot-fan_at_cnblogs\CH577_CH578_CH579\AN\CH579EVT_USB_DISK_TEST\BLE\ch57x_ble_uart_mrs_app_only_test\obj/../app/ff.c:3229
	mode &= (BYTE)~FA_READ;				/* Desired access mode, write access or not */
    10b8:	2601      	movs	r6, #1
    10ba:	9c01      	ldr	r4, [sp, #4]
C:\Users\alon\Desktop\github\iot-fan_at_cnblogs\CH577_CH578_CH579\AN\CH579EVT_USB_DISK_TEST\BLE\ch57x_ble_uart_mrs_app_only_test\obj/../app/ff.c:3230
	if (fs->fs_type != 0) {				/* If the volume has been mounted */
    10bc:	783b      	ldrb	r3, [r7, #0]
C:\Users\alon\Desktop\github\iot-fan_at_cnblogs\CH577_CH578_CH579\AN\CH579EVT_USB_DISK_TEST\BLE\ch57x_ble_uart_mrs_app_only_test\obj/../app/ff.c:3229
	mode &= (BYTE)~FA_READ;				/* Desired access mode, write access or not */
    10be:	43b4      	bics	r4, r6
C:\Users\alon\Desktop\github\iot-fan_at_cnblogs\CH577_CH578_CH579\AN\CH579EVT_USB_DISK_TEST\BLE\ch57x_ble_uart_mrs_app_only_test\obj/../app/ff.c:3230
	if (fs->fs_type != 0) {				/* If the volume has been mounted */
    10c0:	2b00      	cmp	r3, #0
    10c2:	d00f      	beq.n	10e4 <find_volume+0x50>
C:\Users\alon\Desktop\github\iot-fan_at_cnblogs\CH577_CH578_CH579\AN\CH579EVT_USB_DISK_TEST\BLE\ch57x_ble_uart_mrs_app_only_test\obj/../app/ff.c:3231
		stat = disk_status(fs->pdrv);
    10c4:	7878      	ldrb	r0, [r7, #1]
    10c6:	f7ff fe15 	bl	cf4 <disk_status>
C:\Users\alon\Desktop\github\iot-fan_at_cnblogs\CH577_CH578_CH579\AN\CH579EVT_USB_DISK_TEST\BLE\ch57x_ble_uart_mrs_app_only_test\obj/../app/ff.c:3232
		if (!(stat & STA_NOINIT)) {		/* and the physical drive is kept initialized */
    10ca:	4230      	tst	r0, r6
    10cc:	d10a      	bne.n	10e4 <find_volume+0x50>
C:\Users\alon\Desktop\github\iot-fan_at_cnblogs\CH577_CH578_CH579\AN\CH579EVT_USB_DISK_TEST\BLE\ch57x_ble_uart_mrs_app_only_test\obj/../app/ff.c:3233
			if (!FF_FS_READONLY && mode && (stat & STA_PROTECT)) {	/* Check write protection if needed */
    10ce:	2c00      	cmp	r4, #0
    10d0:	d005      	beq.n	10de <find_volume+0x4a>
    10d2:	2304      	movs	r3, #4
    10d4:	0004      	movs	r4, r0
    10d6:	401c      	ands	r4, r3
C:\Users\alon\Desktop\github\iot-fan_at_cnblogs\CH577_CH578_CH579\AN\CH579EVT_USB_DISK_TEST\BLE\ch57x_ble_uart_mrs_app_only_test\obj/../app/ff.c:3233 (discriminator 1)
    10d8:	4218      	tst	r0, r3
    10da:	d000      	beq.n	10de <find_volume+0x4a>
C:\Users\alon\Desktop\github\iot-fan_at_cnblogs\CH577_CH578_CH579\AN\CH579EVT_USB_DISK_TEST\BLE\ch57x_ble_uart_mrs_app_only_test\obj/../app/ff.c:3234
				return FR_WRITE_PROTECTED;
    10dc:	240a      	movs	r4, #10
C:\Users\alon\Desktop\github\iot-fan_at_cnblogs\CH577_CH578_CH579\AN\CH579EVT_USB_DISK_TEST\BLE\ch57x_ble_uart_mrs_app_only_test\obj/../app/ff.c:3417
}
    10de:	0020      	movs	r0, r4
    10e0:	b00d      	add	sp, #52	; 0x34
    10e2:	bdf0      	pop	{r4, r5, r6, r7, pc}
C:\Users\alon\Desktop\github\iot-fan_at_cnblogs\CH577_CH578_CH579\AN\CH579EVT_USB_DISK_TEST\BLE\ch57x_ble_uart_mrs_app_only_test\obj/../app/ff.c:3243
	fs->fs_type = 0;					/* Clear the filesystem object */
    10e4:	2300      	movs	r3, #0
C:\Users\alon\Desktop\github\iot-fan_at_cnblogs\CH577_CH578_CH579\AN\CH579EVT_USB_DISK_TEST\BLE\ch57x_ble_uart_mrs_app_only_test\obj/../app/ff.c:3244
	fs->pdrv = LD2PD(vol);				/* Bind the logical drive and a physical drive */
    10e6:	b2e8      	uxtb	r0, r5
C:\Users\alon\Desktop\github\iot-fan_at_cnblogs\CH577_CH578_CH579\AN\CH579EVT_USB_DISK_TEST\BLE\ch57x_ble_uart_mrs_app_only_test\obj/../app/ff.c:3243
	fs->fs_type = 0;					/* Clear the filesystem object */
    10e8:	703b      	strb	r3, [r7, #0]
C:\Users\alon\Desktop\github\iot-fan_at_cnblogs\CH577_CH578_CH579\AN\CH579EVT_USB_DISK_TEST\BLE\ch57x_ble_uart_mrs_app_only_test\obj/../app/ff.c:3244
	fs->pdrv = LD2PD(vol);				/* Bind the logical drive and a physical drive */
    10ea:	7078      	strb	r0, [r7, #1]
C:\Users\alon\Desktop\github\iot-fan_at_cnblogs\CH577_CH578_CH579\AN\CH579EVT_USB_DISK_TEST\BLE\ch57x_ble_uart_mrs_app_only_test\obj/../app/ff.c:3245
	stat = disk_initialize(fs->pdrv);	/* Initialize the physical drive */
    10ec:	f7ff fe16 	bl	d1c <disk_initialize>
C:\Users\alon\Desktop\github\iot-fan_at_cnblogs\CH577_CH578_CH579\AN\CH579EVT_USB_DISK_TEST\BLE\ch57x_ble_uart_mrs_app_only_test\obj/../app/ff.c:3246
	if (stat & STA_NOINIT) { 			/* Check if the initialization succeeded */
    10f0:	07c3      	lsls	r3, r0, #31
    10f2:	d500      	bpl.n	10f6 <find_volume+0x62>
    10f4:	e129      	b.n	134a <find_volume+0x2b6>
C:\Users\alon\Desktop\github\iot-fan_at_cnblogs\CH577_CH578_CH579\AN\CH579EVT_USB_DISK_TEST\BLE\ch57x_ble_uart_mrs_app_only_test\obj/../app/ff.c:3249
	if (!FF_FS_READONLY && mode && (stat & STA_PROTECT)) { /* Check disk write protection if needed */
    10f6:	2c00      	cmp	r4, #0
    10f8:	d001      	beq.n	10fe <find_volume+0x6a>
C:\Users\alon\Desktop\github\iot-fan_at_cnblogs\CH577_CH578_CH579\AN\CH579EVT_USB_DISK_TEST\BLE\ch57x_ble_uart_mrs_app_only_test\obj/../app/ff.c:3249 (discriminator 1)
    10fa:	0743      	lsls	r3, r0, #29
    10fc:	d4ee      	bmi.n	10dc <find_volume+0x48>
C:\Users\alon\Desktop\github\iot-fan_at_cnblogs\CH577_CH578_CH579\AN\CH579EVT_USB_DISK_TEST\BLE\ch57x_ble_uart_mrs_app_only_test\obj/../app/ff.c:3259
	fmt = check_fs(fs, bsect);			/* Load sector 0 and check if it is an FAT-VBR as SFD */
    10fe:	2100      	movs	r1, #0
    1100:	0038      	movs	r0, r7
    1102:	f7ff ff87 	bl	1014 <check_fs>
C:\Users\alon\Desktop\github\iot-fan_at_cnblogs\CH577_CH578_CH579\AN\CH579EVT_USB_DISK_TEST\BLE\ch57x_ble_uart_mrs_app_only_test\obj/../app/ff.c:3260
	if (fmt == 2 || (fmt < 2 && LD2PT(vol) != 0)) {	/* Not an FAT-VBR or forced partition number */
    1106:	2802      	cmp	r0, #2
    1108:	d128      	bne.n	115c <find_volume+0xc8>
    110a:	003c      	movs	r4, r7
    110c:	ad08      	add	r5, sp, #32
    110e:	002e      	movs	r6, r5
    1110:	4b93      	ldr	r3, [pc, #588]	; (1360 <find_volume+0x2cc>)
    1112:	34f7      	adds	r4, #247	; 0xf7
    1114:	18fb      	adds	r3, r7, r3
    1116:	34ff      	adds	r4, #255	; 0xff
    1118:	9301      	str	r3, [sp, #4]
C:\Users\alon\Desktop\github\iot-fan_at_cnblogs\CH577_CH578_CH579\AN\CH579EVT_USB_DISK_TEST\BLE\ch57x_ble_uart_mrs_app_only_test\obj/../app/ff.c:3263
			br[i] = pt[PTE_System] ? ld_dword(pt + PTE_StLba) : 0;
    111a:	2000      	movs	r0, #0
    111c:	7823      	ldrb	r3, [r4, #0]
    111e:	4283      	cmp	r3, r0
    1120:	d002      	beq.n	1128 <find_volume+0x94>
C:\Users\alon\Desktop\github\iot-fan_at_cnblogs\CH577_CH578_CH579\AN\CH579EVT_USB_DISK_TEST\BLE\ch57x_ble_uart_mrs_app_only_test\obj/../app/ff.c:3263 (discriminator 1)
    1122:	1d20      	adds	r0, r4, #4
    1124:	f7ff fe9c 	bl	e60 <ld_dword>
C:\Users\alon\Desktop\github\iot-fan_at_cnblogs\CH577_CH578_CH579\AN\CH579EVT_USB_DISK_TEST\BLE\ch57x_ble_uart_mrs_app_only_test\obj/../app/ff.c:3261 (discriminator 4)
		for (i = 0; i < 4; i++) {		/* Get partition offset */
    1128:	9b01      	ldr	r3, [sp, #4]
    112a:	3410      	adds	r4, #16
C:\Users\alon\Desktop\github\iot-fan_at_cnblogs\CH577_CH578_CH579\AN\CH579EVT_USB_DISK_TEST\BLE\ch57x_ble_uart_mrs_app_only_test\obj/../app/ff.c:3263 (discriminator 4)
			br[i] = pt[PTE_System] ? ld_dword(pt + PTE_StLba) : 0;
    112c:	c501      	stmia	r5!, {r0}
C:\Users\alon\Desktop\github\iot-fan_at_cnblogs\CH577_CH578_CH579\AN\CH579EVT_USB_DISK_TEST\BLE\ch57x_ble_uart_mrs_app_only_test\obj/../app/ff.c:3261 (discriminator 4)
		for (i = 0; i < 4; i++) {		/* Get partition offset */
    112e:	42a3      	cmp	r3, r4
    1130:	d1f3      	bne.n	111a <find_volume+0x86>
    1132:	2400      	movs	r4, #0
C:\Users\alon\Desktop\github\iot-fan_at_cnblogs\CH577_CH578_CH579\AN\CH579EVT_USB_DISK_TEST\BLE\ch57x_ble_uart_mrs_app_only_test\obj/../app/ff.c:3269
			fmt = bsect ? check_fs(fs, bsect) : 3;	/* Check the partition */
    1134:	2503      	movs	r5, #3
C:\Users\alon\Desktop\github\iot-fan_at_cnblogs\CH577_CH578_CH579\AN\CH579EVT_USB_DISK_TEST\BLE\ch57x_ble_uart_mrs_app_only_test\obj/../app/ff.c:3268
			bsect = br[i];
    1136:	00a3      	lsls	r3, r4, #2
    1138:	58f3      	ldr	r3, [r6, r3]
C:\Users\alon\Desktop\github\iot-fan_at_cnblogs\CH577_CH578_CH579\AN\CH579EVT_USB_DISK_TEST\BLE\ch57x_ble_uart_mrs_app_only_test\obj/../app/ff.c:3269
			fmt = bsect ? check_fs(fs, bsect) : 3;	/* Check the partition */
    113a:	0028      	movs	r0, r5
C:\Users\alon\Desktop\github\iot-fan_at_cnblogs\CH577_CH578_CH579\AN\CH579EVT_USB_DISK_TEST\BLE\ch57x_ble_uart_mrs_app_only_test\obj/../app/ff.c:3268
			bsect = br[i];
    113c:	9301      	str	r3, [sp, #4]
C:\Users\alon\Desktop\github\iot-fan_at_cnblogs\CH577_CH578_CH579\AN\CH579EVT_USB_DISK_TEST\BLE\ch57x_ble_uart_mrs_app_only_test\obj/../app/ff.c:3269
			fmt = bsect ? check_fs(fs, bsect) : 3;	/* Check the partition */
    113e:	2b00      	cmp	r3, #0
    1140:	d005      	beq.n	114e <find_volume+0xba>
C:\Users\alon\Desktop\github\iot-fan_at_cnblogs\CH577_CH578_CH579\AN\CH579EVT_USB_DISK_TEST\BLE\ch57x_ble_uart_mrs_app_only_test\obj/../app/ff.c:3269 (discriminator 1)
    1142:	0019      	movs	r1, r3
    1144:	0038      	movs	r0, r7
    1146:	f7ff ff65 	bl	1014 <check_fs>
C:\Users\alon\Desktop\github\iot-fan_at_cnblogs\CH577_CH578_CH579\AN\CH579EVT_USB_DISK_TEST\BLE\ch57x_ble_uart_mrs_app_only_test\obj/../app/ff.c:3270 (discriminator 1)
		} while (LD2PT(vol) == 0 && fmt >= 2 && ++i < 4);
    114a:	2801      	cmp	r0, #1
    114c:	d90f      	bls.n	116e <find_volume+0xda>
    114e:	3401      	adds	r4, #1
    1150:	2c04      	cmp	r4, #4
    1152:	d1f0      	bne.n	1136 <find_volume+0xa2>
C:\Users\alon\Desktop\github\iot-fan_at_cnblogs\CH577_CH578_CH579\AN\CH579EVT_USB_DISK_TEST\BLE\ch57x_ble_uart_mrs_app_only_test\obj/../app/ff.c:3272
	if (fmt == 4) return FR_DISK_ERR;		/* An error occured in the disk I/O layer */
    1154:	2401      	movs	r4, #1
    1156:	2804      	cmp	r0, #4
    1158:	d107      	bne.n	116a <find_volume+0xd6>
    115a:	e7c0      	b.n	10de <find_volume+0x4a>
    115c:	2401      	movs	r4, #1
    115e:	2804      	cmp	r0, #4
    1160:	d0bd      	beq.n	10de <find_volume+0x4a>
C:\Users\alon\Desktop\github\iot-fan_at_cnblogs\CH577_CH578_CH579\AN\CH579EVT_USB_DISK_TEST\BLE\ch57x_ble_uart_mrs_app_only_test\obj/../app/ff.c:3258
	bsect = 0;
    1162:	2300      	movs	r3, #0
    1164:	9301      	str	r3, [sp, #4]
C:\Users\alon\Desktop\github\iot-fan_at_cnblogs\CH577_CH578_CH579\AN\CH579EVT_USB_DISK_TEST\BLE\ch57x_ble_uart_mrs_app_only_test\obj/../app/ff.c:3273
	if (fmt >= 2) return FR_NO_FILESYSTEM;	/* No FAT volume is found */
    1166:	42a0      	cmp	r0, r4
    1168:	d901      	bls.n	116e <find_volume+0xda>
    116a:	240d      	movs	r4, #13
    116c:	e7b7      	b.n	10de <find_volume+0x4a>
ld_word():
C:\Users\alon\Desktop\github\iot-fan_at_cnblogs\CH577_CH578_CH579\AN\CH579EVT_USB_DISK_TEST\BLE\ch57x_ble_uart_mrs_app_only_test\obj/../app/ff.c:574
	rv = ptr[1];
    116e:	003b      	movs	r3, r7
    1170:	3340      	adds	r3, #64	; 0x40
C:\Users\alon\Desktop\github\iot-fan_at_cnblogs\CH577_CH578_CH579\AN\CH579EVT_USB_DISK_TEST\BLE\ch57x_ble_uart_mrs_app_only_test\obj/../app/ff.c:575
	rv = rv << 8 | ptr[0];
    1172:	781a      	ldrb	r2, [r3, #0]
    1174:	3b01      	subs	r3, #1
    1176:	781b      	ldrb	r3, [r3, #0]
    1178:	0212      	lsls	r2, r2, #8
    117a:	4313      	orrs	r3, r2
find_volume():
C:\Users\alon\Desktop\github\iot-fan_at_cnblogs\CH577_CH578_CH579\AN\CH579EVT_USB_DISK_TEST\BLE\ch57x_ble_uart_mrs_app_only_test\obj/../app/ff.c:3325
		if (ld_word(fs->win + BPB_BytsPerSec) != SS(fs)) return FR_NO_FILESYSTEM;	/* (BPB_BytsPerSec must be equal to the physical sector size) */
    117c:	2280      	movs	r2, #128	; 0x80
    117e:	b21b      	sxth	r3, r3
    1180:	0152      	lsls	r2, r2, #5
    1182:	4293      	cmp	r3, r2
    1184:	d1f1      	bne.n	116a <find_volume+0xd6>
ld_word():
C:\Users\alon\Desktop\github\iot-fan_at_cnblogs\CH577_CH578_CH579\AN\CH579EVT_USB_DISK_TEST\BLE\ch57x_ble_uart_mrs_app_only_test\obj/../app/ff.c:574
	rv = ptr[1];
    1186:	003b      	movs	r3, r7
C:\Users\alon\Desktop\github\iot-fan_at_cnblogs\CH577_CH578_CH579\AN\CH579EVT_USB_DISK_TEST\BLE\ch57x_ble_uart_mrs_app_only_test\obj/../app/ff.c:575
	rv = rv << 8 | ptr[0];
    1188:	003a      	movs	r2, r7
C:\Users\alon\Desktop\github\iot-fan_at_cnblogs\CH577_CH578_CH579\AN\CH579EVT_USB_DISK_TEST\BLE\ch57x_ble_uart_mrs_app_only_test\obj/../app/ff.c:574
	rv = ptr[1];
    118a:	334b      	adds	r3, #75	; 0x4b
C:\Users\alon\Desktop\github\iot-fan_at_cnblogs\CH577_CH578_CH579\AN\CH579EVT_USB_DISK_TEST\BLE\ch57x_ble_uart_mrs_app_only_test\obj/../app/ff.c:575
	rv = rv << 8 | ptr[0];
    118c:	781b      	ldrb	r3, [r3, #0]
    118e:	324a      	adds	r2, #74	; 0x4a
    1190:	7810      	ldrb	r0, [r2, #0]
    1192:	021b      	lsls	r3, r3, #8
    1194:	4318      	orrs	r0, r3
find_volume():
C:\Users\alon\Desktop\github\iot-fan_at_cnblogs\CH577_CH578_CH579\AN\CH579EVT_USB_DISK_TEST\BLE\ch57x_ble_uart_mrs_app_only_test\obj/../app/ff.c:3328
		if (fasize == 0) fasize = ld_dword(fs->win + BPB_FATSz32);
    1196:	d100      	bne.n	119a <find_volume+0x106>
    1198:	e0c0      	b.n	131c <find_volume+0x288>
C:\Users\alon\Desktop\github\iot-fan_at_cnblogs\CH577_CH578_CH579\AN\CH579EVT_USB_DISK_TEST\BLE\ch57x_ble_uart_mrs_app_only_test\obj/../app/ff.c:3328 (discriminator 1)
    119a:	9002      	str	r0, [sp, #8]
C:\Users\alon\Desktop\github\iot-fan_at_cnblogs\CH577_CH578_CH579\AN\CH579EVT_USB_DISK_TEST\BLE\ch57x_ble_uart_mrs_app_only_test\obj/../app/ff.c:3329 (discriminator 1)
		fs->fsize = fasize;
    119c:	9b02      	ldr	r3, [sp, #8]
    119e:	61fb      	str	r3, [r7, #28]
C:\Users\alon\Desktop\github\iot-fan_at_cnblogs\CH577_CH578_CH579\AN\CH579EVT_USB_DISK_TEST\BLE\ch57x_ble_uart_mrs_app_only_test\obj/../app/ff.c:3331 (discriminator 1)
		fs->n_fats = fs->win[BPB_NumFATs];				/* Number of FATs */
    11a0:	003b      	movs	r3, r7
    11a2:	3344      	adds	r3, #68	; 0x44
    11a4:	781c      	ldrb	r4, [r3, #0]
C:\Users\alon\Desktop\github\iot-fan_at_cnblogs\CH577_CH578_CH579\AN\CH579EVT_USB_DISK_TEST\BLE\ch57x_ble_uart_mrs_app_only_test\obj/../app/ff.c:3332 (discriminator 1)
		if (fs->n_fats != 1 && fs->n_fats != 2) return FR_NO_FILESYSTEM;	/* (Must be 1 or 2) */
    11a6:	1e63      	subs	r3, r4, #1
C:\Users\alon\Desktop\github\iot-fan_at_cnblogs\CH577_CH578_CH579\AN\CH579EVT_USB_DISK_TEST\BLE\ch57x_ble_uart_mrs_app_only_test\obj/../app/ff.c:3331 (discriminator 1)
		fs->n_fats = fs->win[BPB_NumFATs];				/* Number of FATs */
    11a8:	70bc      	strb	r4, [r7, #2]
C:\Users\alon\Desktop\github\iot-fan_at_cnblogs\CH577_CH578_CH579\AN\CH579EVT_USB_DISK_TEST\BLE\ch57x_ble_uart_mrs_app_only_test\obj/../app/ff.c:3332 (discriminator 1)
		if (fs->n_fats != 1 && fs->n_fats != 2) return FR_NO_FILESYSTEM;	/* (Must be 1 or 2) */
    11aa:	2b01      	cmp	r3, #1
    11ac:	d8dd      	bhi.n	116a <find_volume+0xd6>
C:\Users\alon\Desktop\github\iot-fan_at_cnblogs\CH577_CH578_CH579\AN\CH579EVT_USB_DISK_TEST\BLE\ch57x_ble_uart_mrs_app_only_test\obj/../app/ff.c:3335
		fs->csize = fs->win[BPB_SecPerClus];			/* Cluster size */
    11ae:	003b      	movs	r3, r7
    11b0:	3341      	adds	r3, #65	; 0x41
    11b2:	781e      	ldrb	r6, [r3, #0]
    11b4:	b2b3      	uxth	r3, r6
    11b6:	817b      	strh	r3, [r7, #10]
C:\Users\alon\Desktop\github\iot-fan_at_cnblogs\CH577_CH578_CH579\AN\CH579EVT_USB_DISK_TEST\BLE\ch57x_ble_uart_mrs_app_only_test\obj/../app/ff.c:3336
		if (fs->csize == 0 || (fs->csize & (fs->csize - 1))) return FR_NO_FILESYSTEM;	/* (Must be power of 2) */
    11b8:	2b00      	cmp	r3, #0
    11ba:	d0d6      	beq.n	116a <find_volume+0xd6>
C:\Users\alon\Desktop\github\iot-fan_at_cnblogs\CH577_CH578_CH579\AN\CH579EVT_USB_DISK_TEST\BLE\ch57x_ble_uart_mrs_app_only_test\obj/../app/ff.c:3336 (discriminator 2)
    11bc:	1e73      	subs	r3, r6, #1
    11be:	421e      	tst	r6, r3
    11c0:	d1d3      	bne.n	116a <find_volume+0xd6>
ld_word():
C:\Users\alon\Desktop\github\iot-fan_at_cnblogs\CH577_CH578_CH579\AN\CH579EVT_USB_DISK_TEST\BLE\ch57x_ble_uart_mrs_app_only_test\obj/../app/ff.c:574
	rv = ptr[1];
    11c2:	003b      	movs	r3, r7
    11c4:	3346      	adds	r3, #70	; 0x46
C:\Users\alon\Desktop\github\iot-fan_at_cnblogs\CH577_CH578_CH579\AN\CH579EVT_USB_DISK_TEST\BLE\ch57x_ble_uart_mrs_app_only_test\obj/../app/ff.c:575
	rv = rv << 8 | ptr[0];
    11c6:	781a      	ldrb	r2, [r3, #0]
    11c8:	3b01      	subs	r3, #1
    11ca:	781b      	ldrb	r3, [r3, #0]
    11cc:	0212      	lsls	r2, r2, #8
    11ce:	4313      	orrs	r3, r2
    11d0:	b21a      	sxth	r2, r3
    11d2:	9207      	str	r2, [sp, #28]
    11d4:	9303      	str	r3, [sp, #12]
find_volume():
C:\Users\alon\Desktop\github\iot-fan_at_cnblogs\CH577_CH578_CH579\AN\CH579EVT_USB_DISK_TEST\BLE\ch57x_ble_uart_mrs_app_only_test\obj/../app/ff.c:3338
		fs->n_rootdir = ld_word(fs->win + BPB_RootEntCnt);	/* Number of root directory entries */
    11d6:	813b      	strh	r3, [r7, #8]
C:\Users\alon\Desktop\github\iot-fan_at_cnblogs\CH577_CH578_CH579\AN\CH579EVT_USB_DISK_TEST\BLE\ch57x_ble_uart_mrs_app_only_test\obj/../app/ff.c:3339
		if (fs->n_rootdir % (SS(fs) / SZDIRE)) return FR_NO_FILESYSTEM;	/* (Must be sector aligned) */
    11d8:	065b      	lsls	r3, r3, #25
    11da:	d1c6      	bne.n	116a <find_volume+0xd6>
ld_word():
C:\Users\alon\Desktop\github\iot-fan_at_cnblogs\CH577_CH578_CH579\AN\CH579EVT_USB_DISK_TEST\BLE\ch57x_ble_uart_mrs_app_only_test\obj/../app/ff.c:574
	rv = ptr[1];
    11dc:	003b      	movs	r3, r7
    11de:	3348      	adds	r3, #72	; 0x48
C:\Users\alon\Desktop\github\iot-fan_at_cnblogs\CH577_CH578_CH579\AN\CH579EVT_USB_DISK_TEST\BLE\ch57x_ble_uart_mrs_app_only_test\obj/../app/ff.c:575
	rv = rv << 8 | ptr[0];
    11e0:	781d      	ldrb	r5, [r3, #0]
    11e2:	3b01      	subs	r3, #1
    11e4:	7818      	ldrb	r0, [r3, #0]
    11e6:	022d      	lsls	r5, r5, #8
    11e8:	4328      	orrs	r0, r5
find_volume():
C:\Users\alon\Desktop\github\iot-fan_at_cnblogs\CH577_CH578_CH579\AN\CH579EVT_USB_DISK_TEST\BLE\ch57x_ble_uart_mrs_app_only_test\obj/../app/ff.c:3342
		if (tsect == 0) tsect = ld_dword(fs->win + BPB_TotSec32);
    11ea:	d103      	bne.n	11f4 <find_volume+0x160>
C:\Users\alon\Desktop\github\iot-fan_at_cnblogs\CH577_CH578_CH579\AN\CH579EVT_USB_DISK_TEST\BLE\ch57x_ble_uart_mrs_app_only_test\obj/../app/ff.c:3342 (discriminator 1)
    11ec:	0038      	movs	r0, r7
    11ee:	3054      	adds	r0, #84	; 0x54
    11f0:	f7ff fe36 	bl	e60 <ld_dword>
ld_word():
C:\Users\alon\Desktop\github\iot-fan_at_cnblogs\CH577_CH578_CH579\AN\CH579EVT_USB_DISK_TEST\BLE\ch57x_ble_uart_mrs_app_only_test\obj/../app/ff.c:574
	rv = ptr[1];
    11f4:	003b      	movs	r3, r7
C:\Users\alon\Desktop\github\iot-fan_at_cnblogs\CH577_CH578_CH579\AN\CH579EVT_USB_DISK_TEST\BLE\ch57x_ble_uart_mrs_app_only_test\obj/../app/ff.c:575
	rv = rv << 8 | ptr[0];
    11f6:	003a      	movs	r2, r7
C:\Users\alon\Desktop\github\iot-fan_at_cnblogs\CH577_CH578_CH579\AN\CH579EVT_USB_DISK_TEST\BLE\ch57x_ble_uart_mrs_app_only_test\obj/../app/ff.c:574
	rv = ptr[1];
    11f8:	3343      	adds	r3, #67	; 0x43
C:\Users\alon\Desktop\github\iot-fan_at_cnblogs\CH577_CH578_CH579\AN\CH579EVT_USB_DISK_TEST\BLE\ch57x_ble_uart_mrs_app_only_test\obj/../app/ff.c:575
	rv = rv << 8 | ptr[0];
    11fa:	781b      	ldrb	r3, [r3, #0]
    11fc:	3242      	adds	r2, #66	; 0x42
    11fe:	7812      	ldrb	r2, [r2, #0]
    1200:	021b      	lsls	r3, r3, #8
    1202:	431a      	orrs	r2, r3
    1204:	9205      	str	r2, [sp, #20]
find_volume():
C:\Users\alon\Desktop\github\iot-fan_at_cnblogs\CH577_CH578_CH579\AN\CH579EVT_USB_DISK_TEST\BLE\ch57x_ble_uart_mrs_app_only_test\obj/../app/ff.c:3345
		if (nrsv == 0) return FR_NO_FILESYSTEM;			/* (Must not be 0) */
    1206:	d0b0      	beq.n	116a <find_volume+0xd6>
C:\Users\alon\Desktop\github\iot-fan_at_cnblogs\CH577_CH578_CH579\AN\CH579EVT_USB_DISK_TEST\BLE\ch57x_ble_uart_mrs_app_only_test\obj/../app/ff.c:3333
		fasize *= fs->n_fats;							/* Number of sectors for FAT area */
    1208:	9b02      	ldr	r3, [sp, #8]
    120a:	4363      	muls	r3, r4
    120c:	9306      	str	r3, [sp, #24]
C:\Users\alon\Desktop\github\iot-fan_at_cnblogs\CH577_CH578_CH579\AN\CH579EVT_USB_DISK_TEST\BLE\ch57x_ble_uart_mrs_app_only_test\obj/../app/ff.c:3348
		sysect = nrsv + fasize + fs->n_rootdir / (SS(fs) / SZDIRE);	/* RSV + FAT + DIR */
    120e:	9b03      	ldr	r3, [sp, #12]
    1210:	09db      	lsrs	r3, r3, #7
    1212:	189b      	adds	r3, r3, r2
    1214:	9a06      	ldr	r2, [sp, #24]
    1216:	189b      	adds	r3, r3, r2
    1218:	9304      	str	r3, [sp, #16]
C:\Users\alon\Desktop\github\iot-fan_at_cnblogs\CH577_CH578_CH579\AN\CH579EVT_USB_DISK_TEST\BLE\ch57x_ble_uart_mrs_app_only_test\obj/../app/ff.c:3349
		if (tsect < sysect) return FR_NO_FILESYSTEM;	/* (Invalid volume size) */
    121a:	4298      	cmp	r0, r3
    121c:	d3a5      	bcc.n	116a <find_volume+0xd6>
C:\Users\alon\Desktop\github\iot-fan_at_cnblogs\CH577_CH578_CH579\AN\CH579EVT_USB_DISK_TEST\BLE\ch57x_ble_uart_mrs_app_only_test\obj/../app/ff.c:3350
		nclst = (tsect - sysect) / fs->csize;			/* Number of clusters */
    121e:	1ac5      	subs	r5, r0, r3
    1220:	0031      	movs	r1, r6
    1222:	0028      	movs	r0, r5
    1224:	f7fe ff52 	bl	cc <__udivsi3>
    1228:	0004      	movs	r4, r0
C:\Users\alon\Desktop\github\iot-fan_at_cnblogs\CH577_CH578_CH579\AN\CH579EVT_USB_DISK_TEST\BLE\ch57x_ble_uart_mrs_app_only_test\obj/../app/ff.c:3351
		if (nclst == 0) return FR_NO_FILESYSTEM;		/* (Invalid volume size) */
    122a:	42b5      	cmp	r5, r6
    122c:	d39d      	bcc.n	116a <find_volume+0xd6>
C:\Users\alon\Desktop\github\iot-fan_at_cnblogs\CH577_CH578_CH579\AN\CH579EVT_USB_DISK_TEST\BLE\ch57x_ble_uart_mrs_app_only_test\obj/../app/ff.c:3353
		if (nclst <= MAX_FAT32) fmt = FS_FAT32;
    122e:	4b4d      	ldr	r3, [pc, #308]	; (1364 <find_volume+0x2d0>)
    1230:	4298      	cmp	r0, r3
    1232:	d89a      	bhi.n	116a <find_volume+0xd6>
C:\Users\alon\Desktop\github\iot-fan_at_cnblogs\CH577_CH578_CH579\AN\CH579EVT_USB_DISK_TEST\BLE\ch57x_ble_uart_mrs_app_only_test\obj/../app/ff.c:3354
		if (nclst <= MAX_FAT16) fmt = FS_FAT16;
    1234:	4b4c      	ldr	r3, [pc, #304]	; (1368 <find_volume+0x2d4>)
    1236:	4298      	cmp	r0, r3
    1238:	d800      	bhi.n	123c <find_volume+0x1a8>
    123a:	e088      	b.n	134e <find_volume+0x2ba>
C:\Users\alon\Desktop\github\iot-fan_at_cnblogs\CH577_CH578_CH579\AN\CH579EVT_USB_DISK_TEST\BLE\ch57x_ble_uart_mrs_app_only_test\obj/../app/ff.c:3353
		if (nclst <= MAX_FAT32) fmt = FS_FAT32;
    123c:	2503      	movs	r5, #3
C:\Users\alon\Desktop\github\iot-fan_at_cnblogs\CH577_CH578_CH579\AN\CH579EVT_USB_DISK_TEST\BLE\ch57x_ble_uart_mrs_app_only_test\obj/../app/ff.c:3361
		fs->fatbase = bsect + nrsv; 					/* FAT start sector */
    123e:	9a01      	ldr	r2, [sp, #4]
C:\Users\alon\Desktop\github\iot-fan_at_cnblogs\CH577_CH578_CH579\AN\CH579EVT_USB_DISK_TEST\BLE\ch57x_ble_uart_mrs_app_only_test\obj/../app/ff.c:3360
		fs->volbase = bsect;							/* Volume start sector */
    1240:	9b01      	ldr	r3, [sp, #4]
C:\Users\alon\Desktop\github\iot-fan_at_cnblogs\CH577_CH578_CH579\AN\CH579EVT_USB_DISK_TEST\BLE\ch57x_ble_uart_mrs_app_only_test\obj/../app/ff.c:3361
		fs->fatbase = bsect + nrsv; 					/* FAT start sector */
    1242:	4694      	mov	ip, r2
C:\Users\alon\Desktop\github\iot-fan_at_cnblogs\CH577_CH578_CH579\AN\CH579EVT_USB_DISK_TEST\BLE\ch57x_ble_uart_mrs_app_only_test\obj/../app/ff.c:3360
		fs->volbase = bsect;							/* Volume start sector */
    1244:	623b      	str	r3, [r7, #32]
C:\Users\alon\Desktop\github\iot-fan_at_cnblogs\CH577_CH578_CH579\AN\CH579EVT_USB_DISK_TEST\BLE\ch57x_ble_uart_mrs_app_only_test\obj/../app/ff.c:3362
		fs->database = bsect + sysect;					/* Data start sector */
    1246:	9a04      	ldr	r2, [sp, #16]
C:\Users\alon\Desktop\github\iot-fan_at_cnblogs\CH577_CH578_CH579\AN\CH579EVT_USB_DISK_TEST\BLE\ch57x_ble_uart_mrs_app_only_test\obj/../app/ff.c:3361
		fs->fatbase = bsect + nrsv; 					/* FAT start sector */
    1248:	9b05      	ldr	r3, [sp, #20]
C:\Users\alon\Desktop\github\iot-fan_at_cnblogs\CH577_CH578_CH579\AN\CH579EVT_USB_DISK_TEST\BLE\ch57x_ble_uart_mrs_app_only_test\obj/../app/ff.c:3359
		fs->n_fatent = nclst + 2;						/* Number of FAT entries */
    124a:	3402      	adds	r4, #2
C:\Users\alon\Desktop\github\iot-fan_at_cnblogs\CH577_CH578_CH579\AN\CH579EVT_USB_DISK_TEST\BLE\ch57x_ble_uart_mrs_app_only_test\obj/../app/ff.c:3361
		fs->fatbase = bsect + nrsv; 					/* FAT start sector */
    124c:	4463      	add	r3, ip
C:\Users\alon\Desktop\github\iot-fan_at_cnblogs\CH577_CH578_CH579\AN\CH579EVT_USB_DISK_TEST\BLE\ch57x_ble_uart_mrs_app_only_test\obj/../app/ff.c:3362
		fs->database = bsect + sysect;					/* Data start sector */
    124e:	4462      	add	r2, ip
C:\Users\alon\Desktop\github\iot-fan_at_cnblogs\CH577_CH578_CH579\AN\CH579EVT_USB_DISK_TEST\BLE\ch57x_ble_uart_mrs_app_only_test\obj/../app/ff.c:3359
		fs->n_fatent = nclst + 2;						/* Number of FAT entries */
    1250:	61bc      	str	r4, [r7, #24]
C:\Users\alon\Desktop\github\iot-fan_at_cnblogs\CH577_CH578_CH579\AN\CH579EVT_USB_DISK_TEST\BLE\ch57x_ble_uart_mrs_app_only_test\obj/../app/ff.c:3361
		fs->fatbase = bsect + nrsv; 					/* FAT start sector */
    1252:	627b      	str	r3, [r7, #36]	; 0x24
C:\Users\alon\Desktop\github\iot-fan_at_cnblogs\CH577_CH578_CH579\AN\CH579EVT_USB_DISK_TEST\BLE\ch57x_ble_uart_mrs_app_only_test\obj/../app/ff.c:3362
		fs->database = bsect + sysect;					/* Data start sector */
    1254:	62fa      	str	r2, [r7, #44]	; 0x2c
C:\Users\alon\Desktop\github\iot-fan_at_cnblogs\CH577_CH578_CH579\AN\CH579EVT_USB_DISK_TEST\BLE\ch57x_ble_uart_mrs_app_only_test\obj/../app/ff.c:3363
		if (fmt == FS_FAT32) {
    1256:	2d03      	cmp	r5, #3
    1258:	d165      	bne.n	1326 <find_volume+0x292>
ld_word():
C:\Users\alon\Desktop\github\iot-fan_at_cnblogs\CH577_CH578_CH579\AN\CH579EVT_USB_DISK_TEST\BLE\ch57x_ble_uart_mrs_app_only_test\obj/../app/ff.c:574
	rv = ptr[1];
    125a:	003b      	movs	r3, r7
    125c:	335f      	adds	r3, #95	; 0x5f
C:\Users\alon\Desktop\github\iot-fan_at_cnblogs\CH577_CH578_CH579\AN\CH579EVT_USB_DISK_TEST\BLE\ch57x_ble_uart_mrs_app_only_test\obj/../app/ff.c:575
	rv = rv << 8 | ptr[0];
    125e:	781a      	ldrb	r2, [r3, #0]
    1260:	3b01      	subs	r3, #1
    1262:	781b      	ldrb	r3, [r3, #0]
    1264:	0212      	lsls	r2, r2, #8
    1266:	4313      	orrs	r3, r2
find_volume():
C:\Users\alon\Desktop\github\iot-fan_at_cnblogs\CH577_CH578_CH579\AN\CH579EVT_USB_DISK_TEST\BLE\ch57x_ble_uart_mrs_app_only_test\obj/../app/ff.c:3364
			if (ld_word(fs->win + BPB_FSVer32) != 0) return FR_NO_FILESYSTEM;	/* (Must be FAT32 revision 0.0) */
    1268:	9a07      	ldr	r2, [sp, #28]
    126a:	431a      	orrs	r2, r3
    126c:	b213      	sxth	r3, r2
    126e:	2b00      	cmp	r3, #0
    1270:	d000      	beq.n	1274 <find_volume+0x1e0>
    1272:	e77a      	b.n	116a <find_volume+0xd6>
C:\Users\alon\Desktop\github\iot-fan_at_cnblogs\CH577_CH578_CH579\AN\CH579EVT_USB_DISK_TEST\BLE\ch57x_ble_uart_mrs_app_only_test\obj/../app/ff.c:3366
			fs->dirbase = ld_dword(fs->win + BPB_RootClus32);	/* Root directory start cluster */
    1274:	0038      	movs	r0, r7
    1276:	3060      	adds	r0, #96	; 0x60
    1278:	f7ff fdf2 	bl	e60 <ld_dword>
C:\Users\alon\Desktop\github\iot-fan_at_cnblogs\CH577_CH578_CH579\AN\CH579EVT_USB_DISK_TEST\BLE\ch57x_ble_uart_mrs_app_only_test\obj/../app/ff.c:3367
			szbfat = fs->n_fatent * 4;					/* (Needed FAT size) */
    127c:	00a4      	lsls	r4, r4, #2
C:\Users\alon\Desktop\github\iot-fan_at_cnblogs\CH577_CH578_CH579\AN\CH579EVT_USB_DISK_TEST\BLE\ch57x_ble_uart_mrs_app_only_test\obj/../app/ff.c:3366
			fs->dirbase = ld_dword(fs->win + BPB_RootClus32);	/* Root directory start cluster */
    127e:	62b8      	str	r0, [r7, #40]	; 0x28
C:\Users\alon\Desktop\github\iot-fan_at_cnblogs\CH577_CH578_CH579\AN\CH579EVT_USB_DISK_TEST\BLE\ch57x_ble_uart_mrs_app_only_test\obj/../app/ff.c:3374
		if (fs->fsize < (szbfat + (SS(fs) - 1)) / SS(fs)) return FR_NO_FILESYSTEM;	/* (BPB_FATSz must not be less than the size needed) */
    1280:	4b3a      	ldr	r3, [pc, #232]	; (136c <find_volume+0x2d8>)
    1282:	18e4      	adds	r4, r4, r3
    1284:	9b02      	ldr	r3, [sp, #8]
    1286:	0b24      	lsrs	r4, r4, #12
    1288:	429c      	cmp	r4, r3
    128a:	d900      	bls.n	128e <find_volume+0x1fa>
    128c:	e76d      	b.n	116a <find_volume+0xd6>
C:\Users\alon\Desktop\github\iot-fan_at_cnblogs\CH577_CH578_CH579\AN\CH579EVT_USB_DISK_TEST\BLE\ch57x_ble_uart_mrs_app_only_test\obj/../app/ff.c:3378
		fs->last_clst = fs->free_clst = 0xFFFFFFFF;		/* Initialize cluster allocation information */
    128e:	2301      	movs	r3, #1
    1290:	425b      	negs	r3, r3
    1292:	617b      	str	r3, [r7, #20]
    1294:	613b      	str	r3, [r7, #16]
C:\Users\alon\Desktop\github\iot-fan_at_cnblogs\CH577_CH578_CH579\AN\CH579EVT_USB_DISK_TEST\BLE\ch57x_ble_uart_mrs_app_only_test\obj/../app/ff.c:3379
		fs->fsi_flag = 0x80;
    1296:	3381      	adds	r3, #129	; 0x81
    1298:	713b      	strb	r3, [r7, #4]
C:\Users\alon\Desktop\github\iot-fan_at_cnblogs\CH577_CH578_CH579\AN\CH579EVT_USB_DISK_TEST\BLE\ch57x_ble_uart_mrs_app_only_test\obj/../app/ff.c:3381
		if (fmt == FS_FAT32				/* Allow to update FSInfo only if BPB_FSInfo32 == 1 */
    129a:	2d03      	cmp	r5, #3
    129c:	d135      	bne.n	130a <find_volume+0x276>
ld_word():
C:\Users\alon\Desktop\github\iot-fan_at_cnblogs\CH577_CH578_CH579\AN\CH579EVT_USB_DISK_TEST\BLE\ch57x_ble_uart_mrs_app_only_test\obj/../app/ff.c:574
	rv = ptr[1];
    129e:	003b      	movs	r3, r7
    12a0:	3365      	adds	r3, #101	; 0x65
C:\Users\alon\Desktop\github\iot-fan_at_cnblogs\CH577_CH578_CH579\AN\CH579EVT_USB_DISK_TEST\BLE\ch57x_ble_uart_mrs_app_only_test\obj/../app/ff.c:575
	rv = rv << 8 | ptr[0];
    12a2:	781a      	ldrb	r2, [r3, #0]
    12a4:	3b01      	subs	r3, #1
    12a6:	781b      	ldrb	r3, [r3, #0]
    12a8:	0212      	lsls	r2, r2, #8
    12aa:	4313      	orrs	r3, r2
find_volume():
C:\Users\alon\Desktop\github\iot-fan_at_cnblogs\CH577_CH578_CH579\AN\CH579EVT_USB_DISK_TEST\BLE\ch57x_ble_uart_mrs_app_only_test\obj/../app/ff.c:3382
			&& ld_word(fs->win + BPB_FSInfo32) == 1
    12ac:	2b01      	cmp	r3, #1
    12ae:	d12c      	bne.n	130a <find_volume+0x276>
C:\Users\alon\Desktop\github\iot-fan_at_cnblogs\CH577_CH578_CH579\AN\CH579EVT_USB_DISK_TEST\BLE\ch57x_ble_uart_mrs_app_only_test\obj/../app/ff.c:3383
			&& move_window(fs, bsect + 1) == FR_OK)
    12b0:	9901      	ldr	r1, [sp, #4]
    12b2:	0038      	movs	r0, r7
    12b4:	3101      	adds	r1, #1
    12b6:	f7ff fe93 	bl	fe0 <move_window>
    12ba:	2800      	cmp	r0, #0
    12bc:	d125      	bne.n	130a <find_volume+0x276>
ld_word():
C:\Users\alon\Desktop\github\iot-fan_at_cnblogs\CH577_CH578_CH579\AN\CH579EVT_USB_DISK_TEST\BLE\ch57x_ble_uart_mrs_app_only_test\obj/../app/ff.c:574
	rv = ptr[1];
    12be:	4b2c      	ldr	r3, [pc, #176]	; (1370 <find_volume+0x2dc>)
find_volume():
C:\Users\alon\Desktop\github\iot-fan_at_cnblogs\CH577_CH578_CH579\AN\CH579EVT_USB_DISK_TEST\BLE\ch57x_ble_uart_mrs_app_only_test\obj/../app/ff.c:3385
			fs->fsi_flag = 0;
    12c0:	7138      	strb	r0, [r7, #4]
ld_word():
C:\Users\alon\Desktop\github\iot-fan_at_cnblogs\CH577_CH578_CH579\AN\CH579EVT_USB_DISK_TEST\BLE\ch57x_ble_uart_mrs_app_only_test\obj/../app/ff.c:575
	rv = rv << 8 | ptr[0];
    12c2:	5cfa      	ldrb	r2, [r7, r3]
    12c4:	4b2b      	ldr	r3, [pc, #172]	; (1374 <find_volume+0x2e0>)
    12c6:	0212      	lsls	r2, r2, #8
    12c8:	5cfb      	ldrb	r3, [r7, r3]
    12ca:	4313      	orrs	r3, r2
find_volume():
C:\Users\alon\Desktop\github\iot-fan_at_cnblogs\CH577_CH578_CH579\AN\CH579EVT_USB_DISK_TEST\BLE\ch57x_ble_uart_mrs_app_only_test\obj/../app/ff.c:3386
			if (ld_word(fs->win + BS_55AA) == 0xAA55	/* Load FSInfo data if available */
    12cc:	4a2a      	ldr	r2, [pc, #168]	; (1378 <find_volume+0x2e4>)
    12ce:	b21b      	sxth	r3, r3
    12d0:	4293      	cmp	r3, r2
    12d2:	d11a      	bne.n	130a <find_volume+0x276>
C:\Users\alon\Desktop\github\iot-fan_at_cnblogs\CH577_CH578_CH579\AN\CH579EVT_USB_DISK_TEST\BLE\ch57x_ble_uart_mrs_app_only_test\obj/../app/ff.c:3387
				&& ld_dword(fs->win + FSI_LeadSig) == 0x41615252
    12d4:	0038      	movs	r0, r7
    12d6:	3034      	adds	r0, #52	; 0x34
    12d8:	f7ff fdc2 	bl	e60 <ld_dword>
    12dc:	4b27      	ldr	r3, [pc, #156]	; (137c <find_volume+0x2e8>)
    12de:	4298      	cmp	r0, r3
    12e0:	d113      	bne.n	130a <find_volume+0x276>
C:\Users\alon\Desktop\github\iot-fan_at_cnblogs\CH577_CH578_CH579\AN\CH579EVT_USB_DISK_TEST\BLE\ch57x_ble_uart_mrs_app_only_test\obj/../app/ff.c:3388
				&& ld_dword(fs->win + FSI_StrucSig) == 0x61417272)
    12e2:	2386      	movs	r3, #134	; 0x86
    12e4:	009b      	lsls	r3, r3, #2
    12e6:	18f8      	adds	r0, r7, r3
    12e8:	f7ff fdba 	bl	e60 <ld_dword>
    12ec:	4b24      	ldr	r3, [pc, #144]	; (1380 <find_volume+0x2ec>)
    12ee:	4298      	cmp	r0, r3
    12f0:	d10b      	bne.n	130a <find_volume+0x276>
C:\Users\alon\Desktop\github\iot-fan_at_cnblogs\CH577_CH578_CH579\AN\CH579EVT_USB_DISK_TEST\BLE\ch57x_ble_uart_mrs_app_only_test\obj/../app/ff.c:3391
				fs->free_clst = ld_dword(fs->win + FSI_Free_Count);
    12f2:	2387      	movs	r3, #135	; 0x87
    12f4:	009b      	lsls	r3, r3, #2
    12f6:	18f8      	adds	r0, r7, r3
    12f8:	f7ff fdb2 	bl	e60 <ld_dword>
C:\Users\alon\Desktop\github\iot-fan_at_cnblogs\CH577_CH578_CH579\AN\CH579EVT_USB_DISK_TEST\BLE\ch57x_ble_uart_mrs_app_only_test\obj/../app/ff.c:3394
				fs->last_clst = ld_dword(fs->win + FSI_Nxt_Free);
    12fc:	2388      	movs	r3, #136	; 0x88
    12fe:	009b      	lsls	r3, r3, #2
C:\Users\alon\Desktop\github\iot-fan_at_cnblogs\CH577_CH578_CH579\AN\CH579EVT_USB_DISK_TEST\BLE\ch57x_ble_uart_mrs_app_only_test\obj/../app/ff.c:3391
				fs->free_clst = ld_dword(fs->win + FSI_Free_Count);
    1300:	6178      	str	r0, [r7, #20]
C:\Users\alon\Desktop\github\iot-fan_at_cnblogs\CH577_CH578_CH579\AN\CH579EVT_USB_DISK_TEST\BLE\ch57x_ble_uart_mrs_app_only_test\obj/../app/ff.c:3394
				fs->last_clst = ld_dword(fs->win + FSI_Nxt_Free);
    1302:	18f8      	adds	r0, r7, r3
    1304:	f7ff fdac 	bl	e60 <ld_dword>
    1308:	6138      	str	r0, [r7, #16]
C:\Users\alon\Desktop\github\iot-fan_at_cnblogs\CH577_CH578_CH579\AN\CH579EVT_USB_DISK_TEST\BLE\ch57x_ble_uart_mrs_app_only_test\obj/../app/ff.c:3403
	fs->id = ++Fsid;		/* Volume mount ID */
    130a:	4a1e      	ldr	r2, [pc, #120]	; (1384 <find_volume+0x2f0>)
C:\Users\alon\Desktop\github\iot-fan_at_cnblogs\CH577_CH578_CH579\AN\CH579EVT_USB_DISK_TEST\BLE\ch57x_ble_uart_mrs_app_only_test\obj/../app/ff.c:3416
	return FR_OK;
    130c:	2400      	movs	r4, #0
C:\Users\alon\Desktop\github\iot-fan_at_cnblogs\CH577_CH578_CH579\AN\CH579EVT_USB_DISK_TEST\BLE\ch57x_ble_uart_mrs_app_only_test\obj/../app/ff.c:3403
	fs->id = ++Fsid;		/* Volume mount ID */
    130e:	8813      	ldrh	r3, [r2, #0]
C:\Users\alon\Desktop\github\iot-fan_at_cnblogs\CH577_CH578_CH579\AN\CH579EVT_USB_DISK_TEST\BLE\ch57x_ble_uart_mrs_app_only_test\obj/../app/ff.c:3402
	fs->fs_type = fmt;		/* FAT sub-type */
    1310:	703d      	strb	r5, [r7, #0]
C:\Users\alon\Desktop\github\iot-fan_at_cnblogs\CH577_CH578_CH579\AN\CH579EVT_USB_DISK_TEST\BLE\ch57x_ble_uart_mrs_app_only_test\obj/../app/ff.c:3403
	fs->id = ++Fsid;		/* Volume mount ID */
    1312:	3301      	adds	r3, #1
    1314:	b29b      	uxth	r3, r3
    1316:	8013      	strh	r3, [r2, #0]
    1318:	80fb      	strh	r3, [r7, #6]
C:\Users\alon\Desktop\github\iot-fan_at_cnblogs\CH577_CH578_CH579\AN\CH579EVT_USB_DISK_TEST\BLE\ch57x_ble_uart_mrs_app_only_test\obj/../app/ff.c:3416
	return FR_OK;
    131a:	e6e0      	b.n	10de <find_volume+0x4a>
C:\Users\alon\Desktop\github\iot-fan_at_cnblogs\CH577_CH578_CH579\AN\CH579EVT_USB_DISK_TEST\BLE\ch57x_ble_uart_mrs_app_only_test\obj/../app/ff.c:3328 (discriminator 1)
		if (fasize == 0) fasize = ld_dword(fs->win + BPB_FATSz32);
    131c:	0038      	movs	r0, r7
    131e:	3058      	adds	r0, #88	; 0x58
    1320:	f7ff fd9e 	bl	e60 <ld_dword>
    1324:	e739      	b.n	119a <find_volume+0x106>
C:\Users\alon\Desktop\github\iot-fan_at_cnblogs\CH577_CH578_CH579\AN\CH579EVT_USB_DISK_TEST\BLE\ch57x_ble_uart_mrs_app_only_test\obj/../app/ff.c:3369
			if (fs->n_rootdir == 0)	return FR_NO_FILESYSTEM;	/* (BPB_RootEntCnt must not be 0) */
    1326:	9a03      	ldr	r2, [sp, #12]
    1328:	2a00      	cmp	r2, #0
    132a:	d100      	bne.n	132e <find_volume+0x29a>
    132c:	e71d      	b.n	116a <find_volume+0xd6>
C:\Users\alon\Desktop\github\iot-fan_at_cnblogs\CH577_CH578_CH579\AN\CH579EVT_USB_DISK_TEST\BLE\ch57x_ble_uart_mrs_app_only_test\obj/../app/ff.c:3370
			fs->dirbase = fs->fatbase + fasize;			/* Root directory start sector */
    132e:	9a06      	ldr	r2, [sp, #24]
    1330:	189b      	adds	r3, r3, r2
    1332:	62bb      	str	r3, [r7, #40]	; 0x28
C:\Users\alon\Desktop\github\iot-fan_at_cnblogs\CH577_CH578_CH579\AN\CH579EVT_USB_DISK_TEST\BLE\ch57x_ble_uart_mrs_app_only_test\obj/../app/ff.c:3372
				fs->n_fatent * 2 : fs->n_fatent * 3 / 2 + (fs->n_fatent & 1);
    1334:	2d02      	cmp	r5, #2
    1336:	d101      	bne.n	133c <find_volume+0x2a8>
C:\Users\alon\Desktop\github\iot-fan_at_cnblogs\CH577_CH578_CH579\AN\CH579EVT_USB_DISK_TEST\BLE\ch57x_ble_uart_mrs_app_only_test\obj/../app/ff.c:3372 (discriminator 1)
    1338:	0064      	lsls	r4, r4, #1
    133a:	e7a1      	b.n	1280 <find_volume+0x1ec>
C:\Users\alon\Desktop\github\iot-fan_at_cnblogs\CH577_CH578_CH579\AN\CH579EVT_USB_DISK_TEST\BLE\ch57x_ble_uart_mrs_app_only_test\obj/../app/ff.c:3372 (discriminator 2)
    133c:	2003      	movs	r0, #3
    133e:	2301      	movs	r3, #1
    1340:	4360      	muls	r0, r4
    1342:	401c      	ands	r4, r3
    1344:	0840      	lsrs	r0, r0, #1
    1346:	1904      	adds	r4, r0, r4
    1348:	e79a      	b.n	1280 <find_volume+0x1ec>
C:\Users\alon\Desktop\github\iot-fan_at_cnblogs\CH577_CH578_CH579\AN\CH579EVT_USB_DISK_TEST\BLE\ch57x_ble_uart_mrs_app_only_test\obj/../app/ff.c:3247
		return FR_NOT_READY;			/* Failed to initialize due to no medium or hard error */
    134a:	2403      	movs	r4, #3
    134c:	e6c7      	b.n	10de <find_volume+0x4a>
C:\Users\alon\Desktop\github\iot-fan_at_cnblogs\CH577_CH578_CH579\AN\CH579EVT_USB_DISK_TEST\BLE\ch57x_ble_uart_mrs_app_only_test\obj/../app/ff.c:3355
		if (nclst <= MAX_FAT12) fmt = FS_FAT12;
    134e:	4d0e      	ldr	r5, [pc, #56]	; (1388 <find_volume+0x2f4>)
    1350:	4285      	cmp	r5, r0
    1352:	41ad      	sbcs	r5, r5
    1354:	426d      	negs	r5, r5
    1356:	3501      	adds	r5, #1
    1358:	e771      	b.n	123e <find_volume+0x1aa>
    135a:	46c0      	nop			; (mov r8, r8)
    135c:	200041ec 	.word	0x200041ec
    1360:	00000236 	.word	0x00000236
    1364:	0ffffff5 	.word	0x0ffffff5
    1368:	0000fff5 	.word	0x0000fff5
    136c:	00000fff 	.word	0x00000fff
    1370:	00000233 	.word	0x00000233
    1374:	00000232 	.word	0x00000232
    1378:	ffffaa55 	.word	0xffffaa55
    137c:	41615252 	.word	0x41615252
    1380:	61417272 	.word	0x61417272
    1384:	200041f0 	.word	0x200041f0
    1388:	00000ff5 	.word	0x00000ff5

0000138c <put_fat>:
put_fat():
C:\Users\alon\Desktop\github\iot-fan_at_cnblogs\CH577_CH578_CH579\AN\CH579EVT_USB_DISK_TEST\BLE\ch57x_ble_uart_mrs_app_only_test\obj/../app/ff.c:1221
{
    138c:	b5f0      	push	{r4, r5, r6, r7, lr}
    138e:	0007      	movs	r7, r0
    1390:	000d      	movs	r5, r1
    1392:	0014      	movs	r4, r2
C:\Users\alon\Desktop\github\iot-fan_at_cnblogs\CH577_CH578_CH579\AN\CH579EVT_USB_DISK_TEST\BLE\ch57x_ble_uart_mrs_app_only_test\obj/../app/ff.c:1224
	FRESULT res = FR_INT_ERR;
    1394:	2602      	movs	r6, #2
C:\Users\alon\Desktop\github\iot-fan_at_cnblogs\CH577_CH578_CH579\AN\CH579EVT_USB_DISK_TEST\BLE\ch57x_ble_uart_mrs_app_only_test\obj/../app/ff.c:1221
{
    1396:	b085      	sub	sp, #20
C:\Users\alon\Desktop\github\iot-fan_at_cnblogs\CH577_CH578_CH579\AN\CH579EVT_USB_DISK_TEST\BLE\ch57x_ble_uart_mrs_app_only_test\obj/../app/ff.c:1227
	if (clst >= 2 && clst < fs->n_fatent) {	/* Check if in valid range */
    1398:	2901      	cmp	r1, #1
    139a:	d948      	bls.n	142e <put_fat+0xa2>
C:\Users\alon\Desktop\github\iot-fan_at_cnblogs\CH577_CH578_CH579\AN\CH579EVT_USB_DISK_TEST\BLE\ch57x_ble_uart_mrs_app_only_test\obj/../app/ff.c:1227 (discriminator 1)
    139c:	6983      	ldr	r3, [r0, #24]
    139e:	428b      	cmp	r3, r1
    13a0:	d945      	bls.n	142e <put_fat+0xa2>
C:\Users\alon\Desktop\github\iot-fan_at_cnblogs\CH577_CH578_CH579\AN\CH579EVT_USB_DISK_TEST\BLE\ch57x_ble_uart_mrs_app_only_test\obj/../app/ff.c:1228
		switch (fs->fs_type) {
    13a2:	7803      	ldrb	r3, [r0, #0]
    13a4:	9300      	str	r3, [sp, #0]
    13a6:	42b3      	cmp	r3, r6
    13a8:	d04b      	beq.n	1442 <put_fat+0xb6>
    13aa:	2b03      	cmp	r3, #3
    13ac:	d05b      	beq.n	1466 <put_fat+0xda>
    13ae:	2b01      	cmp	r3, #1
    13b0:	d13d      	bne.n	142e <put_fat+0xa2>
C:\Users\alon\Desktop\github\iot-fan_at_cnblogs\CH577_CH578_CH579\AN\CH579EVT_USB_DISK_TEST\BLE\ch57x_ble_uart_mrs_app_only_test\obj/../app/ff.c:1230
			bc = (UINT)clst; bc += bc / 2;	/* bc: byte offset of the entry */
    13b2:	084b      	lsrs	r3, r1, #1
    13b4:	185b      	adds	r3, r3, r1
    13b6:	9301      	str	r3, [sp, #4]
C:\Users\alon\Desktop\github\iot-fan_at_cnblogs\CH577_CH578_CH579\AN\CH579EVT_USB_DISK_TEST\BLE\ch57x_ble_uart_mrs_app_only_test\obj/../app/ff.c:1231
			res = move_window(fs, fs->fatbase + (bc / SS(fs)));
    13b8:	0b19      	lsrs	r1, r3, #12
    13ba:	6a43      	ldr	r3, [r0, #36]	; 0x24
    13bc:	18c9      	adds	r1, r1, r3
    13be:	f7ff fe0f 	bl	fe0 <move_window>
    13c2:	1e06      	subs	r6, r0, #0
C:\Users\alon\Desktop\github\iot-fan_at_cnblogs\CH577_CH578_CH579\AN\CH579EVT_USB_DISK_TEST\BLE\ch57x_ble_uart_mrs_app_only_test\obj/../app/ff.c:1232
			if (res != FR_OK) break;
    13c4:	d133      	bne.n	142e <put_fat+0xa2>
C:\Users\alon\Desktop\github\iot-fan_at_cnblogs\CH577_CH578_CH579\AN\CH579EVT_USB_DISK_TEST\BLE\ch57x_ble_uart_mrs_app_only_test\obj/../app/ff.c:1233
			p = fs->win + bc++ % SS(fs);
    13c6:	003b      	movs	r3, r7
    13c8:	3334      	adds	r3, #52	; 0x34
    13ca:	9302      	str	r3, [sp, #8]
    13cc:	9b01      	ldr	r3, [sp, #4]
    13ce:	9a02      	ldr	r2, [sp, #8]
    13d0:	3301      	adds	r3, #1
    13d2:	9303      	str	r3, [sp, #12]
    13d4:	9b01      	ldr	r3, [sp, #4]
C:\Users\alon\Desktop\github\iot-fan_at_cnblogs\CH577_CH578_CH579\AN\CH579EVT_USB_DISK_TEST\BLE\ch57x_ble_uart_mrs_app_only_test\obj/../app/ff.c:1234
			*p = (clst & 1) ? ((*p & 0x0F) | ((BYTE)val << 4)) : (BYTE)val;		/* Put 1st byte */
    13d6:	9900      	ldr	r1, [sp, #0]
C:\Users\alon\Desktop\github\iot-fan_at_cnblogs\CH577_CH578_CH579\AN\CH579EVT_USB_DISK_TEST\BLE\ch57x_ble_uart_mrs_app_only_test\obj/../app/ff.c:1233
			p = fs->win + bc++ % SS(fs);
    13d8:	051b      	lsls	r3, r3, #20
    13da:	0d1b      	lsrs	r3, r3, #20
    13dc:	18d3      	adds	r3, r2, r3
C:\Users\alon\Desktop\github\iot-fan_at_cnblogs\CH577_CH578_CH579\AN\CH579EVT_USB_DISK_TEST\BLE\ch57x_ble_uart_mrs_app_only_test\obj/../app/ff.c:1234
			*p = (clst & 1) ? ((*p & 0x0F) | ((BYTE)val << 4)) : (BYTE)val;		/* Put 1st byte */
    13de:	9a00      	ldr	r2, [sp, #0]
    13e0:	402a      	ands	r2, r5
    13e2:	9201      	str	r2, [sp, #4]
    13e4:	b2e2      	uxtb	r2, r4
    13e6:	420d      	tst	r5, r1
    13e8:	d008      	beq.n	13fc <put_fat+0x70>
    13ea:	210f      	movs	r1, #15
    13ec:	20ff      	movs	r0, #255	; 0xff
    13ee:	781a      	ldrb	r2, [r3, #0]
    13f0:	0100      	lsls	r0, r0, #4
    13f2:	400a      	ands	r2, r1
    13f4:	0121      	lsls	r1, r4, #4
    13f6:	4001      	ands	r1, r0
    13f8:	430a      	orrs	r2, r1
    13fa:	b2d2      	uxtb	r2, r2
    13fc:	701a      	strb	r2, [r3, #0]
C:\Users\alon\Desktop\github\iot-fan_at_cnblogs\CH577_CH578_CH579\AN\CH579EVT_USB_DISK_TEST\BLE\ch57x_ble_uart_mrs_app_only_test\obj/../app/ff.c:1235
			fs->wflag = 1;
    13fe:	2301      	movs	r3, #1
    1400:	70fb      	strb	r3, [r7, #3]
C:\Users\alon\Desktop\github\iot-fan_at_cnblogs\CH577_CH578_CH579\AN\CH579EVT_USB_DISK_TEST\BLE\ch57x_ble_uart_mrs_app_only_test\obj/../app/ff.c:1236
			res = move_window(fs, fs->fatbase + (bc / SS(fs)));
    1402:	9b03      	ldr	r3, [sp, #12]
    1404:	0038      	movs	r0, r7
    1406:	0b19      	lsrs	r1, r3, #12
    1408:	6a7b      	ldr	r3, [r7, #36]	; 0x24
    140a:	18c9      	adds	r1, r1, r3
    140c:	f7ff fde8 	bl	fe0 <move_window>
    1410:	1e06      	subs	r6, r0, #0
C:\Users\alon\Desktop\github\iot-fan_at_cnblogs\CH577_CH578_CH579\AN\CH579EVT_USB_DISK_TEST\BLE\ch57x_ble_uart_mrs_app_only_test\obj/../app/ff.c:1237
			if (res != FR_OK) break;
    1412:	d10c      	bne.n	142e <put_fat+0xa2>
C:\Users\alon\Desktop\github\iot-fan_at_cnblogs\CH577_CH578_CH579\AN\CH579EVT_USB_DISK_TEST\BLE\ch57x_ble_uart_mrs_app_only_test\obj/../app/ff.c:1238
			p = fs->win + bc % SS(fs);
    1414:	9b03      	ldr	r3, [sp, #12]
    1416:	0518      	lsls	r0, r3, #20
    1418:	9b02      	ldr	r3, [sp, #8]
    141a:	0d00      	lsrs	r0, r0, #20
    141c:	1818      	adds	r0, r3, r0
C:\Users\alon\Desktop\github\iot-fan_at_cnblogs\CH577_CH578_CH579\AN\CH579EVT_USB_DISK_TEST\BLE\ch57x_ble_uart_mrs_app_only_test\obj/../app/ff.c:1239
			*p = (clst & 1) ? (BYTE)(val >> 4) : ((*p & 0xF0) | ((BYTE)(val >> 8) & 0x0F));	/* Put 2nd byte */
    141e:	9b01      	ldr	r3, [sp, #4]
    1420:	2b00      	cmp	r3, #0
    1422:	d007      	beq.n	1434 <put_fat+0xa8>
    1424:	0924      	lsrs	r4, r4, #4
    1426:	b2e4      	uxtb	r4, r4
    1428:	7004      	strb	r4, [r0, #0]
C:\Users\alon\Desktop\github\iot-fan_at_cnblogs\CH577_CH578_CH579\AN\CH579EVT_USB_DISK_TEST\BLE\ch57x_ble_uart_mrs_app_only_test\obj/../app/ff.c:1260
			fs->wflag = 1;
    142a:	2301      	movs	r3, #1
    142c:	70fb      	strb	r3, [r7, #3]
C:\Users\alon\Desktop\github\iot-fan_at_cnblogs\CH577_CH578_CH579\AN\CH579EVT_USB_DISK_TEST\BLE\ch57x_ble_uart_mrs_app_only_test\obj/../app/ff.c:1265
}
    142e:	0030      	movs	r0, r6
    1430:	b005      	add	sp, #20
    1432:	bdf0      	pop	{r4, r5, r6, r7, pc}
C:\Users\alon\Desktop\github\iot-fan_at_cnblogs\CH577_CH578_CH579\AN\CH579EVT_USB_DISK_TEST\BLE\ch57x_ble_uart_mrs_app_only_test\obj/../app/ff.c:1239
			*p = (clst & 1) ? (BYTE)(val >> 4) : ((*p & 0xF0) | ((BYTE)(val >> 8) & 0x0F));	/* Put 2nd byte */
    1434:	220f      	movs	r2, #15
    1436:	7803      	ldrb	r3, [r0, #0]
    1438:	0a24      	lsrs	r4, r4, #8
    143a:	4393      	bics	r3, r2
    143c:	4014      	ands	r4, r2
    143e:	431c      	orrs	r4, r3
    1440:	e7f2      	b.n	1428 <put_fat+0x9c>
C:\Users\alon\Desktop\github\iot-fan_at_cnblogs\CH577_CH578_CH579\AN\CH579EVT_USB_DISK_TEST\BLE\ch57x_ble_uart_mrs_app_only_test\obj/../app/ff.c:1244
			res = move_window(fs, fs->fatbase + (clst / (SS(fs) / 2)));
    1442:	6a43      	ldr	r3, [r0, #36]	; 0x24
    1444:	0ac9      	lsrs	r1, r1, #11
    1446:	18c9      	adds	r1, r1, r3
    1448:	f7ff fdca 	bl	fe0 <move_window>
    144c:	1e06      	subs	r6, r0, #0
C:\Users\alon\Desktop\github\iot-fan_at_cnblogs\CH577_CH578_CH579\AN\CH579EVT_USB_DISK_TEST\BLE\ch57x_ble_uart_mrs_app_only_test\obj/../app/ff.c:1245
			if (res != FR_OK) break;
    144e:	d1ee      	bne.n	142e <put_fat+0xa2>
C:\Users\alon\Desktop\github\iot-fan_at_cnblogs\CH577_CH578_CH579\AN\CH579EVT_USB_DISK_TEST\BLE\ch57x_ble_uart_mrs_app_only_test\obj/../app/ff.c:1246
			st_word(fs->win + clst * 2 % SS(fs), (WORD)val);	/* Simple WORD array */
    1450:	003b      	movs	r3, r7
    1452:	4911      	ldr	r1, [pc, #68]	; (1498 <put_fat+0x10c>)
    1454:	006d      	lsls	r5, r5, #1
    1456:	3334      	adds	r3, #52	; 0x34
    1458:	400d      	ands	r5, r1
    145a:	195d      	adds	r5, r3, r5
st_word():
C:\Users\alon\Desktop\github\iot-fan_at_cnblogs\CH577_CH578_CH579\AN\CH579EVT_USB_DISK_TEST\BLE\ch57x_ble_uart_mrs_app_only_test\obj/../app/ff.c:610
	*ptr++ = (BYTE)val; val >>= 8;
    145c:	702c      	strb	r4, [r5, #0]
    145e:	b2a4      	uxth	r4, r4
    1460:	0a24      	lsrs	r4, r4, #8
C:\Users\alon\Desktop\github\iot-fan_at_cnblogs\CH577_CH578_CH579\AN\CH579EVT_USB_DISK_TEST\BLE\ch57x_ble_uart_mrs_app_only_test\obj/../app/ff.c:611
	*ptr++ = (BYTE)val;
    1462:	706c      	strb	r4, [r5, #1]
put_fat():
C:\Users\alon\Desktop\github\iot-fan_at_cnblogs\CH577_CH578_CH579\AN\CH579EVT_USB_DISK_TEST\BLE\ch57x_ble_uart_mrs_app_only_test\obj/../app/ff.c:1247
			fs->wflag = 1;
    1464:	e7e1      	b.n	142a <put_fat+0x9e>
C:\Users\alon\Desktop\github\iot-fan_at_cnblogs\CH577_CH578_CH579\AN\CH579EVT_USB_DISK_TEST\BLE\ch57x_ble_uart_mrs_app_only_test\obj/../app/ff.c:1254
			res = move_window(fs, fs->fatbase + (clst / (SS(fs) / 4)));
    1466:	6a43      	ldr	r3, [r0, #36]	; 0x24
    1468:	0a89      	lsrs	r1, r1, #10
    146a:	18c9      	adds	r1, r1, r3
    146c:	f7ff fdb8 	bl	fe0 <move_window>
    1470:	1e06      	subs	r6, r0, #0
C:\Users\alon\Desktop\github\iot-fan_at_cnblogs\CH577_CH578_CH579\AN\CH579EVT_USB_DISK_TEST\BLE\ch57x_ble_uart_mrs_app_only_test\obj/../app/ff.c:1255
			if (res != FR_OK) break;
    1472:	d1dc      	bne.n	142e <put_fat+0xa2>
C:\Users\alon\Desktop\github\iot-fan_at_cnblogs\CH577_CH578_CH579\AN\CH579EVT_USB_DISK_TEST\BLE\ch57x_ble_uart_mrs_app_only_test\obj/../app/ff.c:1257
				val = (val & 0x0FFFFFFF) | (ld_dword(fs->win + clst * 4 % SS(fs)) & 0xF0000000);
    1474:	003b      	movs	r3, r7
    1476:	4909      	ldr	r1, [pc, #36]	; (149c <put_fat+0x110>)
    1478:	00ad      	lsls	r5, r5, #2
    147a:	3334      	adds	r3, #52	; 0x34
    147c:	400d      	ands	r5, r1
    147e:	195d      	adds	r5, r3, r5
    1480:	0028      	movs	r0, r5
    1482:	f7ff fced 	bl	e60 <ld_dword>
    1486:	0124      	lsls	r4, r4, #4
    1488:	0f01      	lsrs	r1, r0, #28
    148a:	0924      	lsrs	r4, r4, #4
    148c:	0709      	lsls	r1, r1, #28
C:\Users\alon\Desktop\github\iot-fan_at_cnblogs\CH577_CH578_CH579\AN\CH579EVT_USB_DISK_TEST\BLE\ch57x_ble_uart_mrs_app_only_test\obj/../app/ff.c:1259
			st_dword(fs->win + clst * 4 % SS(fs), val);
    148e:	0028      	movs	r0, r5
C:\Users\alon\Desktop\github\iot-fan_at_cnblogs\CH577_CH578_CH579\AN\CH579EVT_USB_DISK_TEST\BLE\ch57x_ble_uart_mrs_app_only_test\obj/../app/ff.c:1257
				val = (val & 0x0FFFFFFF) | (ld_dword(fs->win + clst * 4 % SS(fs)) & 0xF0000000);
    1490:	4321      	orrs	r1, r4
C:\Users\alon\Desktop\github\iot-fan_at_cnblogs\CH577_CH578_CH579\AN\CH579EVT_USB_DISK_TEST\BLE\ch57x_ble_uart_mrs_app_only_test\obj/../app/ff.c:1259
			st_dword(fs->win + clst * 4 % SS(fs), val);
    1492:	f7ff fcf0 	bl	e76 <st_dword>
    1496:	e7c8      	b.n	142a <put_fat+0x9e>
    1498:	00000ffe 	.word	0x00000ffe
    149c:	00000ffc 	.word	0x00000ffc

000014a0 <get_fat.isra.0>:
get_fat():
C:\Users\alon\Desktop\github\iot-fan_at_cnblogs\CH577_CH578_CH579\AN\CH579EVT_USB_DISK_TEST\BLE\ch57x_ble_uart_mrs_app_only_test\obj/../app/ff.c:1139
static DWORD get_fat (		/* 0xFFFFFFFF:Disk error, 1:Internal error, 2..0x7FFFFFFF:Cluster status */
    14a0:	b5f7      	push	{r0, r1, r2, r4, r5, r6, r7, lr}
C:\Users\alon\Desktop\github\iot-fan_at_cnblogs\CH577_CH578_CH579\AN\CH579EVT_USB_DISK_TEST\BLE\ch57x_ble_uart_mrs_app_only_test\obj/../app/ff.c:1150
		val = 1;	/* Internal error */
    14a2:	2601      	movs	r6, #1
C:\Users\alon\Desktop\github\iot-fan_at_cnblogs\CH577_CH578_CH579\AN\CH579EVT_USB_DISK_TEST\BLE\ch57x_ble_uart_mrs_app_only_test\obj/../app/ff.c:1139
static DWORD get_fat (		/* 0xFFFFFFFF:Disk error, 1:Internal error, 2..0x7FFFFFFF:Cluster status */
    14a4:	0004      	movs	r4, r0
    14a6:	000d      	movs	r5, r1
C:\Users\alon\Desktop\github\iot-fan_at_cnblogs\CH577_CH578_CH579\AN\CH579EVT_USB_DISK_TEST\BLE\ch57x_ble_uart_mrs_app_only_test\obj/../app/ff.c:1149
	if (clst < 2 || clst >= fs->n_fatent) {	/* Check if in valid range */
    14a8:	42b1      	cmp	r1, r6
    14aa:	d914      	bls.n	14d6 <get_fat.isra.0+0x36>
    14ac:	6983      	ldr	r3, [r0, #24]
    14ae:	4299      	cmp	r1, r3
    14b0:	d211      	bcs.n	14d6 <get_fat.isra.0+0x36>
C:\Users\alon\Desktop\github\iot-fan_at_cnblogs\CH577_CH578_CH579\AN\CH579EVT_USB_DISK_TEST\BLE\ch57x_ble_uart_mrs_app_only_test\obj/../app/ff.c:1155
		switch (fs->fs_type) {
    14b2:	7803      	ldrb	r3, [r0, #0]
    14b4:	2b02      	cmp	r3, #2
    14b6:	d02e      	beq.n	1516 <get_fat.isra.0+0x76>
    14b8:	2b03      	cmp	r3, #3
    14ba:	d03d      	beq.n	1538 <get_fat.isra.0+0x98>
    14bc:	42b3      	cmp	r3, r6
    14be:	d10a      	bne.n	14d6 <get_fat.isra.0+0x36>
C:\Users\alon\Desktop\github\iot-fan_at_cnblogs\CH577_CH578_CH579\AN\CH579EVT_USB_DISK_TEST\BLE\ch57x_ble_uart_mrs_app_only_test\obj/../app/ff.c:1157
			bc = (UINT)clst; bc += bc / 2;
    14c0:	084f      	lsrs	r7, r1, #1
C:\Users\alon\Desktop\github\iot-fan_at_cnblogs\CH577_CH578_CH579\AN\CH579EVT_USB_DISK_TEST\BLE\ch57x_ble_uart_mrs_app_only_test\obj/../app/ff.c:1158
			if (move_window(fs, fs->fatbase + (bc / SS(fs))) != FR_OK) break;
    14c2:	6a43      	ldr	r3, [r0, #36]	; 0x24
C:\Users\alon\Desktop\github\iot-fan_at_cnblogs\CH577_CH578_CH579\AN\CH579EVT_USB_DISK_TEST\BLE\ch57x_ble_uart_mrs_app_only_test\obj/../app/ff.c:1157
			bc = (UINT)clst; bc += bc / 2;
    14c4:	187f      	adds	r7, r7, r1
C:\Users\alon\Desktop\github\iot-fan_at_cnblogs\CH577_CH578_CH579\AN\CH579EVT_USB_DISK_TEST\BLE\ch57x_ble_uart_mrs_app_only_test\obj/../app/ff.c:1158
			if (move_window(fs, fs->fatbase + (bc / SS(fs))) != FR_OK) break;
    14c6:	0b39      	lsrs	r1, r7, #12
    14c8:	18c9      	adds	r1, r1, r3
    14ca:	f7ff fd89 	bl	fe0 <move_window>
    14ce:	2800      	cmp	r0, #0
    14d0:	d003      	beq.n	14da <get_fat.isra.0+0x3a>
C:\Users\alon\Desktop\github\iot-fan_at_cnblogs\CH577_CH578_CH579\AN\CH579EVT_USB_DISK_TEST\BLE\ch57x_ble_uart_mrs_app_only_test\obj/../app/ff.c:1153
		val = 0xFFFFFFFF;	/* Default value falls on disk error */
    14d2:	2601      	movs	r6, #1
    14d4:	4276      	negs	r6, r6
C:\Users\alon\Desktop\github\iot-fan_at_cnblogs\CH577_CH578_CH579\AN\CH579EVT_USB_DISK_TEST\BLE\ch57x_ble_uart_mrs_app_only_test\obj/../app/ff.c:1206
}
    14d6:	0030      	movs	r0, r6
    14d8:	bdfe      	pop	{r1, r2, r3, r4, r5, r6, r7, pc}
C:\Users\alon\Desktop\github\iot-fan_at_cnblogs\CH577_CH578_CH579\AN\CH579EVT_USB_DISK_TEST\BLE\ch57x_ble_uart_mrs_app_only_test\obj/../app/ff.c:1159
			wc = fs->win[bc++ % SS(fs)];		/* Get 1st byte of the entry */
    14da:	1c7b      	adds	r3, r7, #1
    14dc:	053f      	lsls	r7, r7, #20
C:\Users\alon\Desktop\github\iot-fan_at_cnblogs\CH577_CH578_CH579\AN\CH579EVT_USB_DISK_TEST\BLE\ch57x_ble_uart_mrs_app_only_test\obj/../app/ff.c:1160
			if (move_window(fs, fs->fatbase + (bc / SS(fs))) != FR_OK) break;
    14de:	0b19      	lsrs	r1, r3, #12
C:\Users\alon\Desktop\github\iot-fan_at_cnblogs\CH577_CH578_CH579\AN\CH579EVT_USB_DISK_TEST\BLE\ch57x_ble_uart_mrs_app_only_test\obj/../app/ff.c:1159
			wc = fs->win[bc++ % SS(fs)];		/* Get 1st byte of the entry */
    14e0:	9301      	str	r3, [sp, #4]
    14e2:	0d3f      	lsrs	r7, r7, #20
C:\Users\alon\Desktop\github\iot-fan_at_cnblogs\CH577_CH578_CH579\AN\CH579EVT_USB_DISK_TEST\BLE\ch57x_ble_uart_mrs_app_only_test\obj/../app/ff.c:1160
			if (move_window(fs, fs->fatbase + (bc / SS(fs))) != FR_OK) break;
    14e4:	6a63      	ldr	r3, [r4, #36]	; 0x24
C:\Users\alon\Desktop\github\iot-fan_at_cnblogs\CH577_CH578_CH579\AN\CH579EVT_USB_DISK_TEST\BLE\ch57x_ble_uart_mrs_app_only_test\obj/../app/ff.c:1159
			wc = fs->win[bc++ % SS(fs)];		/* Get 1st byte of the entry */
    14e6:	19e7      	adds	r7, r4, r7
    14e8:	3734      	adds	r7, #52	; 0x34
C:\Users\alon\Desktop\github\iot-fan_at_cnblogs\CH577_CH578_CH579\AN\CH579EVT_USB_DISK_TEST\BLE\ch57x_ble_uart_mrs_app_only_test\obj/../app/ff.c:1160
			if (move_window(fs, fs->fatbase + (bc / SS(fs))) != FR_OK) break;
    14ea:	0020      	movs	r0, r4
    14ec:	18c9      	adds	r1, r1, r3
C:\Users\alon\Desktop\github\iot-fan_at_cnblogs\CH577_CH578_CH579\AN\CH579EVT_USB_DISK_TEST\BLE\ch57x_ble_uart_mrs_app_only_test\obj/../app/ff.c:1159
			wc = fs->win[bc++ % SS(fs)];		/* Get 1st byte of the entry */
    14ee:	783f      	ldrb	r7, [r7, #0]
C:\Users\alon\Desktop\github\iot-fan_at_cnblogs\CH577_CH578_CH579\AN\CH579EVT_USB_DISK_TEST\BLE\ch57x_ble_uart_mrs_app_only_test\obj/../app/ff.c:1160
			if (move_window(fs, fs->fatbase + (bc / SS(fs))) != FR_OK) break;
    14f0:	f7ff fd76 	bl	fe0 <move_window>
    14f4:	2800      	cmp	r0, #0
    14f6:	d1ec      	bne.n	14d2 <get_fat.isra.0+0x32>
C:\Users\alon\Desktop\github\iot-fan_at_cnblogs\CH577_CH578_CH579\AN\CH579EVT_USB_DISK_TEST\BLE\ch57x_ble_uart_mrs_app_only_test\obj/../app/ff.c:1161
			wc |= fs->win[bc % SS(fs)] << 8;	/* Merge 2nd byte of the entry */
    14f8:	9b01      	ldr	r3, [sp, #4]
    14fa:	0518      	lsls	r0, r3, #20
    14fc:	0d00      	lsrs	r0, r0, #20
    14fe:	1824      	adds	r4, r4, r0
    1500:	3434      	adds	r4, #52	; 0x34
    1502:	7820      	ldrb	r0, [r4, #0]
    1504:	0200      	lsls	r0, r0, #8
    1506:	4307      	orrs	r7, r0
C:\Users\alon\Desktop\github\iot-fan_at_cnblogs\CH577_CH578_CH579\AN\CH579EVT_USB_DISK_TEST\BLE\ch57x_ble_uart_mrs_app_only_test\obj/../app/ff.c:1162
			val = (clst & 1) ? (wc >> 4) : (wc & 0xFFF);	/* Adjust bit position */
    1508:	4235      	tst	r5, r6
    150a:	d001      	beq.n	1510 <get_fat.isra.0+0x70>
    150c:	093e      	lsrs	r6, r7, #4
    150e:	e7e2      	b.n	14d6 <get_fat.isra.0+0x36>
    1510:	053f      	lsls	r7, r7, #20
    1512:	0d3e      	lsrs	r6, r7, #20
    1514:	e7df      	b.n	14d6 <get_fat.isra.0+0x36>
C:\Users\alon\Desktop\github\iot-fan_at_cnblogs\CH577_CH578_CH579\AN\CH579EVT_USB_DISK_TEST\BLE\ch57x_ble_uart_mrs_app_only_test\obj/../app/ff.c:1166
			if (move_window(fs, fs->fatbase + (clst / (SS(fs) / 2))) != FR_OK) break;
    1516:	6a43      	ldr	r3, [r0, #36]	; 0x24
    1518:	0ac9      	lsrs	r1, r1, #11
    151a:	18c9      	adds	r1, r1, r3
    151c:	f7ff fd60 	bl	fe0 <move_window>
    1520:	2800      	cmp	r0, #0
    1522:	d1d6      	bne.n	14d2 <get_fat.isra.0+0x32>
C:\Users\alon\Desktop\github\iot-fan_at_cnblogs\CH577_CH578_CH579\AN\CH579EVT_USB_DISK_TEST\BLE\ch57x_ble_uart_mrs_app_only_test\obj/../app/ff.c:1167
			val = ld_word(fs->win + clst * 2 % SS(fs));		/* Simple WORD array */
    1524:	490d      	ldr	r1, [pc, #52]	; (155c <get_fat.isra.0+0xbc>)
    1526:	006d      	lsls	r5, r5, #1
    1528:	3434      	adds	r4, #52	; 0x34
    152a:	400d      	ands	r5, r1
    152c:	1964      	adds	r4, r4, r5
ld_word():
C:\Users\alon\Desktop\github\iot-fan_at_cnblogs\CH577_CH578_CH579\AN\CH579EVT_USB_DISK_TEST\BLE\ch57x_ble_uart_mrs_app_only_test\obj/../app/ff.c:575
	rv = rv << 8 | ptr[0];
    152e:	7866      	ldrb	r6, [r4, #1]
    1530:	7820      	ldrb	r0, [r4, #0]
    1532:	0236      	lsls	r6, r6, #8
get_fat():
C:\Users\alon\Desktop\github\iot-fan_at_cnblogs\CH577_CH578_CH579\AN\CH579EVT_USB_DISK_TEST\BLE\ch57x_ble_uart_mrs_app_only_test\obj/../app/ff.c:1167
			val = ld_word(fs->win + clst * 2 % SS(fs));		/* Simple WORD array */
    1534:	4306      	orrs	r6, r0
C:\Users\alon\Desktop\github\iot-fan_at_cnblogs\CH577_CH578_CH579\AN\CH579EVT_USB_DISK_TEST\BLE\ch57x_ble_uart_mrs_app_only_test\obj/../app/ff.c:1168
			break;
    1536:	e7ce      	b.n	14d6 <get_fat.isra.0+0x36>
C:\Users\alon\Desktop\github\iot-fan_at_cnblogs\CH577_CH578_CH579\AN\CH579EVT_USB_DISK_TEST\BLE\ch57x_ble_uart_mrs_app_only_test\obj/../app/ff.c:1171
			if (move_window(fs, fs->fatbase + (clst / (SS(fs) / 4))) != FR_OK) break;
    1538:	6a43      	ldr	r3, [r0, #36]	; 0x24
    153a:	0a89      	lsrs	r1, r1, #10
    153c:	18c9      	adds	r1, r1, r3
    153e:	f7ff fd4f 	bl	fe0 <move_window>
    1542:	2800      	cmp	r0, #0
    1544:	d1c5      	bne.n	14d2 <get_fat.isra.0+0x32>
C:\Users\alon\Desktop\github\iot-fan_at_cnblogs\CH577_CH578_CH579\AN\CH579EVT_USB_DISK_TEST\BLE\ch57x_ble_uart_mrs_app_only_test\obj/../app/ff.c:1172
			val = ld_dword(fs->win + clst * 4 % SS(fs)) & 0x0FFFFFFF;	/* Simple DWORD array but mask out upper 4 bits */
    1546:	0020      	movs	r0, r4
    1548:	4c05      	ldr	r4, [pc, #20]	; (1560 <get_fat.isra.0+0xc0>)
    154a:	00ad      	lsls	r5, r5, #2
    154c:	3034      	adds	r0, #52	; 0x34
    154e:	4025      	ands	r5, r4
    1550:	1940      	adds	r0, r0, r5
    1552:	f7ff fc85 	bl	e60 <ld_dword>
    1556:	0106      	lsls	r6, r0, #4
    1558:	0936      	lsrs	r6, r6, #4
C:\Users\alon\Desktop\github\iot-fan_at_cnblogs\CH577_CH578_CH579\AN\CH579EVT_USB_DISK_TEST\BLE\ch57x_ble_uart_mrs_app_only_test\obj/../app/ff.c:1173
			break;
    155a:	e7bc      	b.n	14d6 <get_fat.isra.0+0x36>
    155c:	00000ffe 	.word	0x00000ffe
    1560:	00000ffc 	.word	0x00000ffc

00001564 <dir_sdi>:
dir_sdi():
C:\Users\alon\Desktop\github\iot-fan_at_cnblogs\CH577_CH578_CH579\AN\CH579EVT_USB_DISK_TEST\BLE\ch57x_ble_uart_mrs_app_only_test\obj/../app/ff.c:1682
	if (ofs >= (DWORD)((FF_FS_EXFAT && fs->fs_type == FS_EXFAT) ? MAX_DIR_EX : MAX_DIR) || ofs % SZDIRE) {	/* Check range of offset and alignment */
    1564:	2380      	movs	r3, #128	; 0x80
C:\Users\alon\Desktop\github\iot-fan_at_cnblogs\CH577_CH578_CH579\AN\CH579EVT_USB_DISK_TEST\BLE\ch57x_ble_uart_mrs_app_only_test\obj/../app/ff.c:1677
{
    1566:	b5f7      	push	{r0, r1, r2, r4, r5, r6, r7, lr}
C:\Users\alon\Desktop\github\iot-fan_at_cnblogs\CH577_CH578_CH579\AN\CH579EVT_USB_DISK_TEST\BLE\ch57x_ble_uart_mrs_app_only_test\obj/../app/ff.c:1682
	if (ofs >= (DWORD)((FF_FS_EXFAT && fs->fs_type == FS_EXFAT) ? MAX_DIR_EX : MAX_DIR) || ofs % SZDIRE) {	/* Check range of offset and alignment */
    1568:	039b      	lsls	r3, r3, #14
C:\Users\alon\Desktop\github\iot-fan_at_cnblogs\CH577_CH578_CH579\AN\CH579EVT_USB_DISK_TEST\BLE\ch57x_ble_uart_mrs_app_only_test\obj/../app/ff.c:1677
{
    156a:	0005      	movs	r5, r0
    156c:	000c      	movs	r4, r1
C:\Users\alon\Desktop\github\iot-fan_at_cnblogs\CH577_CH578_CH579\AN\CH579EVT_USB_DISK_TEST\BLE\ch57x_ble_uart_mrs_app_only_test\obj/../app/ff.c:1682
	if (ofs >= (DWORD)((FF_FS_EXFAT && fs->fs_type == FS_EXFAT) ? MAX_DIR_EX : MAX_DIR) || ofs % SZDIRE) {	/* Check range of offset and alignment */
    156e:	4299      	cmp	r1, r3
    1570:	d301      	bcc.n	1576 <dir_sdi+0x12>
C:\Users\alon\Desktop\github\iot-fan_at_cnblogs\CH577_CH578_CH579\AN\CH579EVT_USB_DISK_TEST\BLE\ch57x_ble_uart_mrs_app_only_test\obj/../app/ff.c:1683
		return FR_INT_ERR;
    1572:	2002      	movs	r0, #2
C:\Users\alon\Desktop\github\iot-fan_at_cnblogs\CH577_CH578_CH579\AN\CH579EVT_USB_DISK_TEST\BLE\ch57x_ble_uart_mrs_app_only_test\obj/../app/ff.c:1712
}
    1574:	bdfe      	pop	{r1, r2, r3, r4, r5, r6, r7, pc}
C:\Users\alon\Desktop\github\iot-fan_at_cnblogs\CH577_CH578_CH579\AN\CH579EVT_USB_DISK_TEST\BLE\ch57x_ble_uart_mrs_app_only_test\obj/../app/ff.c:1682 (discriminator 1)
	if (ofs >= (DWORD)((FF_FS_EXFAT && fs->fs_type == FS_EXFAT) ? MAX_DIR_EX : MAX_DIR) || ofs % SZDIRE) {	/* Check range of offset and alignment */
    1576:	06cb      	lsls	r3, r1, #27
    1578:	d1fb      	bne.n	1572 <dir_sdi+0xe>
C:\Users\alon\Desktop\github\iot-fan_at_cnblogs\CH577_CH578_CH579\AN\CH579EVT_USB_DISK_TEST\BLE\ch57x_ble_uart_mrs_app_only_test\obj/../app/ff.c:1686
	clst = dp->obj.sclust;		/* Table start cluster (0:root) */
    157a:	6887      	ldr	r7, [r0, #8]
C:\Users\alon\Desktop\github\iot-fan_at_cnblogs\CH577_CH578_CH579\AN\CH579EVT_USB_DISK_TEST\BLE\ch57x_ble_uart_mrs_app_only_test\obj/../app/ff.c:1679
	FATFS *fs = dp->obj.fs;
    157c:	6806      	ldr	r6, [r0, #0]
C:\Users\alon\Desktop\github\iot-fan_at_cnblogs\CH577_CH578_CH579\AN\CH579EVT_USB_DISK_TEST\BLE\ch57x_ble_uart_mrs_app_only_test\obj/../app/ff.c:1685
	dp->dptr = ofs;				/* Set current offset */
    157e:	6101      	str	r1, [r0, #16]
C:\Users\alon\Desktop\github\iot-fan_at_cnblogs\CH577_CH578_CH579\AN\CH579EVT_USB_DISK_TEST\BLE\ch57x_ble_uart_mrs_app_only_test\obj/../app/ff.c:1687
	if (clst == 0 && fs->fs_type >= FS_FAT32) {	/* Replace cluster# 0 with root cluster# */
    1580:	2f00      	cmp	r7, #0
    1582:	d11a      	bne.n	15ba <dir_sdi+0x56>
C:\Users\alon\Desktop\github\iot-fan_at_cnblogs\CH577_CH578_CH579\AN\CH579EVT_USB_DISK_TEST\BLE\ch57x_ble_uart_mrs_app_only_test\obj/../app/ff.c:1687 (discriminator 1)
    1584:	7833      	ldrb	r3, [r6, #0]
    1586:	2b02      	cmp	r3, #2
    1588:	d902      	bls.n	1590 <dir_sdi+0x2c>
C:\Users\alon\Desktop\github\iot-fan_at_cnblogs\CH577_CH578_CH579\AN\CH579EVT_USB_DISK_TEST\BLE\ch57x_ble_uart_mrs_app_only_test\obj/../app/ff.c:1688
		clst = fs->dirbase;
    158a:	6ab3      	ldr	r3, [r6, #40]	; 0x28
C:\Users\alon\Desktop\github\iot-fan_at_cnblogs\CH577_CH578_CH579\AN\CH579EVT_USB_DISK_TEST\BLE\ch57x_ble_uart_mrs_app_only_test\obj/../app/ff.c:1692
	if (clst == 0) {	/* Static table (root-directory on the FAT volume) */
    158c:	2b00      	cmp	r3, #0
    158e:	d113      	bne.n	15b8 <dir_sdi+0x54>
C:\Users\alon\Desktop\github\iot-fan_at_cnblogs\CH577_CH578_CH579\AN\CH579EVT_USB_DISK_TEST\BLE\ch57x_ble_uart_mrs_app_only_test\obj/../app/ff.c:1693
		if (ofs / SZDIRE >= fs->n_rootdir) return FR_INT_ERR;	/* Is index out of range? */
    1590:	8932      	ldrh	r2, [r6, #8]
    1592:	0963      	lsrs	r3, r4, #5
    1594:	4293      	cmp	r3, r2
    1596:	d2ec      	bcs.n	1572 <dir_sdi+0xe>
C:\Users\alon\Desktop\github\iot-fan_at_cnblogs\CH577_CH578_CH579\AN\CH579EVT_USB_DISK_TEST\BLE\ch57x_ble_uart_mrs_app_only_test\obj/../app/ff.c:1694
		dp->sect = fs->dirbase;
    1598:	6ab3      	ldr	r3, [r6, #40]	; 0x28
    159a:	61ab      	str	r3, [r5, #24]
C:\Users\alon\Desktop\github\iot-fan_at_cnblogs\CH577_CH578_CH579\AN\CH579EVT_USB_DISK_TEST\BLE\ch57x_ble_uart_mrs_app_only_test\obj/../app/ff.c:1707
	if (dp->sect == 0) return FR_INT_ERR;
    159c:	69aa      	ldr	r2, [r5, #24]
C:\Users\alon\Desktop\github\iot-fan_at_cnblogs\CH577_CH578_CH579\AN\CH579EVT_USB_DISK_TEST\BLE\ch57x_ble_uart_mrs_app_only_test\obj/../app/ff.c:1706
	dp->clust = clst;					/* Current cluster# */
    159e:	616f      	str	r7, [r5, #20]
C:\Users\alon\Desktop\github\iot-fan_at_cnblogs\CH577_CH578_CH579\AN\CH579EVT_USB_DISK_TEST\BLE\ch57x_ble_uart_mrs_app_only_test\obj/../app/ff.c:1707
	if (dp->sect == 0) return FR_INT_ERR;
    15a0:	2a00      	cmp	r2, #0
    15a2:	d0e6      	beq.n	1572 <dir_sdi+0xe>
C:\Users\alon\Desktop\github\iot-fan_at_cnblogs\CH577_CH578_CH579\AN\CH579EVT_USB_DISK_TEST\BLE\ch57x_ble_uart_mrs_app_only_test\obj/../app/ff.c:1708
	dp->sect += ofs / SS(fs);			/* Sector# of the directory entry */
    15a4:	0b23      	lsrs	r3, r4, #12
C:\Users\alon\Desktop\github\iot-fan_at_cnblogs\CH577_CH578_CH579\AN\CH579EVT_USB_DISK_TEST\BLE\ch57x_ble_uart_mrs_app_only_test\obj/../app/ff.c:1709
	dp->dir = fs->win + (ofs % SS(fs));	/* Pointer to the entry in the win[] */
    15a6:	0524      	lsls	r4, r4, #20
    15a8:	3634      	adds	r6, #52	; 0x34
    15aa:	0d24      	lsrs	r4, r4, #20
C:\Users\alon\Desktop\github\iot-fan_at_cnblogs\CH577_CH578_CH579\AN\CH579EVT_USB_DISK_TEST\BLE\ch57x_ble_uart_mrs_app_only_test\obj/../app/ff.c:1708
	dp->sect += ofs / SS(fs);			/* Sector# of the directory entry */
    15ac:	189b      	adds	r3, r3, r2
C:\Users\alon\Desktop\github\iot-fan_at_cnblogs\CH577_CH578_CH579\AN\CH579EVT_USB_DISK_TEST\BLE\ch57x_ble_uart_mrs_app_only_test\obj/../app/ff.c:1709
	dp->dir = fs->win + (ofs % SS(fs));	/* Pointer to the entry in the win[] */
    15ae:	1934      	adds	r4, r6, r4
C:\Users\alon\Desktop\github\iot-fan_at_cnblogs\CH577_CH578_CH579\AN\CH579EVT_USB_DISK_TEST\BLE\ch57x_ble_uart_mrs_app_only_test\obj/../app/ff.c:1711
	return FR_OK;
    15b0:	2000      	movs	r0, #0
C:\Users\alon\Desktop\github\iot-fan_at_cnblogs\CH577_CH578_CH579\AN\CH579EVT_USB_DISK_TEST\BLE\ch57x_ble_uart_mrs_app_only_test\obj/../app/ff.c:1708
	dp->sect += ofs / SS(fs);			/* Sector# of the directory entry */
    15b2:	61ab      	str	r3, [r5, #24]
C:\Users\alon\Desktop\github\iot-fan_at_cnblogs\CH577_CH578_CH579\AN\CH579EVT_USB_DISK_TEST\BLE\ch57x_ble_uart_mrs_app_only_test\obj/../app/ff.c:1709
	dp->dir = fs->win + (ofs % SS(fs));	/* Pointer to the entry in the win[] */
    15b4:	61ec      	str	r4, [r5, #28]
C:\Users\alon\Desktop\github\iot-fan_at_cnblogs\CH577_CH578_CH579\AN\CH579EVT_USB_DISK_TEST\BLE\ch57x_ble_uart_mrs_app_only_test\obj/../app/ff.c:1711
	return FR_OK;
    15b6:	e7dd      	b.n	1574 <dir_sdi+0x10>
    15b8:	001f      	movs	r7, r3
C:\Users\alon\Desktop\github\iot-fan_at_cnblogs\CH577_CH578_CH579\AN\CH579EVT_USB_DISK_TEST\BLE\ch57x_ble_uart_mrs_app_only_test\obj/../app/ff.c:1697
		csz = (DWORD)fs->csize * SS(fs);	/* Bytes per cluster */
    15ba:	8973      	ldrh	r3, [r6, #10]
    15bc:	031b      	lsls	r3, r3, #12
    15be:	9301      	str	r3, [sp, #4]
C:\Users\alon\Desktop\github\iot-fan_at_cnblogs\CH577_CH578_CH579\AN\CH579EVT_USB_DISK_TEST\BLE\ch57x_ble_uart_mrs_app_only_test\obj/../app/ff.c:1698
		while (ofs >= csz) {				/* Follow cluster chain */
    15c0:	9b01      	ldr	r3, [sp, #4]
C:\Users\alon\Desktop\github\iot-fan_at_cnblogs\CH577_CH578_CH579\AN\CH579EVT_USB_DISK_TEST\BLE\ch57x_ble_uart_mrs_app_only_test\obj/../app/ff.c:1699
			clst = get_fat(&dp->obj, clst);				/* Get next cluster */
    15c2:	0039      	movs	r1, r7
C:\Users\alon\Desktop\github\iot-fan_at_cnblogs\CH577_CH578_CH579\AN\CH579EVT_USB_DISK_TEST\BLE\ch57x_ble_uart_mrs_app_only_test\obj/../app/ff.c:1698
		while (ofs >= csz) {				/* Follow cluster chain */
    15c4:	429c      	cmp	r4, r3
    15c6:	d204      	bcs.n	15d2 <dir_sdi+0x6e>
C:\Users\alon\Desktop\github\iot-fan_at_cnblogs\CH577_CH578_CH579\AN\CH579EVT_USB_DISK_TEST\BLE\ch57x_ble_uart_mrs_app_only_test\obj/../app/ff.c:1704
		dp->sect = clst2sect(fs, clst);
    15c8:	0030      	movs	r0, r6
    15ca:	f7ff fc6f 	bl	eac <clst2sect>
    15ce:	61a8      	str	r0, [r5, #24]
    15d0:	e7e4      	b.n	159c <dir_sdi+0x38>
C:\Users\alon\Desktop\github\iot-fan_at_cnblogs\CH577_CH578_CH579\AN\CH579EVT_USB_DISK_TEST\BLE\ch57x_ble_uart_mrs_app_only_test\obj/../app/ff.c:1699
			clst = get_fat(&dp->obj, clst);				/* Get next cluster */
    15d2:	6828      	ldr	r0, [r5, #0]
    15d4:	f7ff ff64 	bl	14a0 <get_fat.isra.0>
    15d8:	0007      	movs	r7, r0
C:\Users\alon\Desktop\github\iot-fan_at_cnblogs\CH577_CH578_CH579\AN\CH579EVT_USB_DISK_TEST\BLE\ch57x_ble_uart_mrs_app_only_test\obj/../app/ff.c:1700
			if (clst == 0xFFFFFFFF) return FR_DISK_ERR;	/* Disk error */
    15da:	1c43      	adds	r3, r0, #1
    15dc:	d007      	beq.n	15ee <dir_sdi+0x8a>
C:\Users\alon\Desktop\github\iot-fan_at_cnblogs\CH577_CH578_CH579\AN\CH579EVT_USB_DISK_TEST\BLE\ch57x_ble_uart_mrs_app_only_test\obj/../app/ff.c:1701
			if (clst < 2 || clst >= fs->n_fatent) return FR_INT_ERR;	/* Reached to end of table or internal error */
    15de:	2801      	cmp	r0, #1
    15e0:	d9c7      	bls.n	1572 <dir_sdi+0xe>
C:\Users\alon\Desktop\github\iot-fan_at_cnblogs\CH577_CH578_CH579\AN\CH579EVT_USB_DISK_TEST\BLE\ch57x_ble_uart_mrs_app_only_test\obj/../app/ff.c:1701 (discriminator 2)
    15e2:	69b3      	ldr	r3, [r6, #24]
    15e4:	4283      	cmp	r3, r0
    15e6:	d9c4      	bls.n	1572 <dir_sdi+0xe>
C:\Users\alon\Desktop\github\iot-fan_at_cnblogs\CH577_CH578_CH579\AN\CH579EVT_USB_DISK_TEST\BLE\ch57x_ble_uart_mrs_app_only_test\obj/../app/ff.c:1702
			ofs -= csz;
    15e8:	9b01      	ldr	r3, [sp, #4]
    15ea:	1ae4      	subs	r4, r4, r3
    15ec:	e7e8      	b.n	15c0 <dir_sdi+0x5c>
C:\Users\alon\Desktop\github\iot-fan_at_cnblogs\CH577_CH578_CH579\AN\CH579EVT_USB_DISK_TEST\BLE\ch57x_ble_uart_mrs_app_only_test\obj/../app/ff.c:1700
			if (clst == 0xFFFFFFFF) return FR_DISK_ERR;	/* Disk error */
    15ee:	2001      	movs	r0, #1
    15f0:	e7c0      	b.n	1574 <dir_sdi+0x10>

000015f2 <create_chain>:
create_chain():
C:\Users\alon\Desktop\github\iot-fan_at_cnblogs\CH577_CH578_CH579\AN\CH579EVT_USB_DISK_TEST\BLE\ch57x_ble_uart_mrs_app_only_test\obj/../app/ff.c:1505
{
    15f2:	b5f7      	push	{r0, r1, r2, r4, r5, r6, r7, lr}
    15f4:	1e0f      	subs	r7, r1, #0
C:\Users\alon\Desktop\github\iot-fan_at_cnblogs\CH577_CH578_CH579\AN\CH579EVT_USB_DISK_TEST\BLE\ch57x_ble_uart_mrs_app_only_test\obj/../app/ff.c:1508
	FATFS *fs = obj->fs;
    15f6:	6805      	ldr	r5, [r0, #0]
C:\Users\alon\Desktop\github\iot-fan_at_cnblogs\CH577_CH578_CH579\AN\CH579EVT_USB_DISK_TEST\BLE\ch57x_ble_uart_mrs_app_only_test\obj/../app/ff.c:1505
{
    15f8:	9001      	str	r0, [sp, #4]
C:\Users\alon\Desktop\github\iot-fan_at_cnblogs\CH577_CH578_CH579\AN\CH579EVT_USB_DISK_TEST\BLE\ch57x_ble_uart_mrs_app_only_test\obj/../app/ff.c:1511
	if (clst == 0) {	/* Create a new chain */
    15fa:	d107      	bne.n	160c <create_chain+0x1a>
C:\Users\alon\Desktop\github\iot-fan_at_cnblogs\CH577_CH578_CH579\AN\CH579EVT_USB_DISK_TEST\BLE\ch57x_ble_uart_mrs_app_only_test\obj/../app/ff.c:1512
		scl = fs->last_clst;				/* Suggested cluster to start to find */
    15fc:	692e      	ldr	r6, [r5, #16]
C:\Users\alon\Desktop\github\iot-fan_at_cnblogs\CH577_CH578_CH579\AN\CH579EVT_USB_DISK_TEST\BLE\ch57x_ble_uart_mrs_app_only_test\obj/../app/ff.c:1513
		if (scl == 0 || scl >= fs->n_fatent) scl = 1;
    15fe:	2e00      	cmp	r6, #0
    1600:	d002      	beq.n	1608 <create_chain+0x16>
C:\Users\alon\Desktop\github\iot-fan_at_cnblogs\CH577_CH578_CH579\AN\CH579EVT_USB_DISK_TEST\BLE\ch57x_ble_uart_mrs_app_only_test\obj/../app/ff.c:1513 (discriminator 2)
    1602:	69ab      	ldr	r3, [r5, #24]
    1604:	42b3      	cmp	r3, r6
    1606:	d810      	bhi.n	162a <create_chain+0x38>
C:\Users\alon\Desktop\github\iot-fan_at_cnblogs\CH577_CH578_CH579\AN\CH579EVT_USB_DISK_TEST\BLE\ch57x_ble_uart_mrs_app_only_test\obj/../app/ff.c:1513
    1608:	2601      	movs	r6, #1
    160a:	e00e      	b.n	162a <create_chain+0x38>
C:\Users\alon\Desktop\github\iot-fan_at_cnblogs\CH577_CH578_CH579\AN\CH579EVT_USB_DISK_TEST\BLE\ch57x_ble_uart_mrs_app_only_test\obj/../app/ff.c:1516
		cs = get_fat(obj, clst);			/* Check the cluster status */
    160c:	0028      	movs	r0, r5
    160e:	f7ff ff47 	bl	14a0 <get_fat.isra.0>
    1612:	0004      	movs	r4, r0
C:\Users\alon\Desktop\github\iot-fan_at_cnblogs\CH577_CH578_CH579\AN\CH579EVT_USB_DISK_TEST\BLE\ch57x_ble_uart_mrs_app_only_test\obj/../app/ff.c:1517
		if (cs < 2) return 1;				/* Test for insanity */
    1614:	2801      	cmp	r0, #1
    1616:	d802      	bhi.n	161e <create_chain+0x2c>
    1618:	2401      	movs	r4, #1
C:\Users\alon\Desktop\github\iot-fan_at_cnblogs\CH577_CH578_CH579\AN\CH579EVT_USB_DISK_TEST\BLE\ch57x_ble_uart_mrs_app_only_test\obj/../app/ff.c:1592
}
    161a:	0020      	movs	r0, r4
    161c:	bdfe      	pop	{r1, r2, r3, r4, r5, r6, r7, pc}
C:\Users\alon\Desktop\github\iot-fan_at_cnblogs\CH577_CH578_CH579\AN\CH579EVT_USB_DISK_TEST\BLE\ch57x_ble_uart_mrs_app_only_test\obj/../app/ff.c:1518
		if (cs == 0xFFFFFFFF) return cs;	/* Test for disk error */
    161e:	1c43      	adds	r3, r0, #1
    1620:	d057      	beq.n	16d2 <create_chain+0xe0>
C:\Users\alon\Desktop\github\iot-fan_at_cnblogs\CH577_CH578_CH579\AN\CH579EVT_USB_DISK_TEST\BLE\ch57x_ble_uart_mrs_app_only_test\obj/../app/ff.c:1519
		if (cs < fs->n_fatent) return cs;	/* It is already followed by next cluster */
    1622:	69ab      	ldr	r3, [r5, #24]
    1624:	003e      	movs	r6, r7
    1626:	4283      	cmp	r3, r0
    1628:	d8f7      	bhi.n	161a <create_chain+0x28>
C:\Users\alon\Desktop\github\iot-fan_at_cnblogs\CH577_CH578_CH579\AN\CH579EVT_USB_DISK_TEST\BLE\ch57x_ble_uart_mrs_app_only_test\obj/../app/ff.c:1522
	if (fs->free_clst == 0) return 0;		/* No free cluster */
    162a:	696b      	ldr	r3, [r5, #20]
    162c:	2b00      	cmp	r3, #0
    162e:	d101      	bne.n	1634 <create_chain+0x42>
    1630:	2400      	movs	r4, #0
    1632:	e7f2      	b.n	161a <create_chain+0x28>
C:\Users\alon\Desktop\github\iot-fan_at_cnblogs\CH577_CH578_CH579\AN\CH579EVT_USB_DISK_TEST\BLE\ch57x_ble_uart_mrs_app_only_test\obj/../app/ff.c:1552
		if (scl == clst) {						/* Stretching an existing chain? */
    1634:	42be      	cmp	r6, r7
    1636:	d116      	bne.n	1666 <create_chain+0x74>
C:\Users\alon\Desktop\github\iot-fan_at_cnblogs\CH577_CH578_CH579\AN\CH579EVT_USB_DISK_TEST\BLE\ch57x_ble_uart_mrs_app_only_test\obj/../app/ff.c:1554
			if (ncl >= fs->n_fatent) ncl = 2;
    1638:	69ab      	ldr	r3, [r5, #24]
    163a:	1c74      	adds	r4, r6, #1
    163c:	42a3      	cmp	r3, r4
    163e:	d800      	bhi.n	1642 <create_chain+0x50>
    1640:	2402      	movs	r4, #2
C:\Users\alon\Desktop\github\iot-fan_at_cnblogs\CH577_CH578_CH579\AN\CH579EVT_USB_DISK_TEST\BLE\ch57x_ble_uart_mrs_app_only_test\obj/../app/ff.c:1555
			cs = get_fat(obj, ncl);				/* Get next cluster status */
    1642:	9b01      	ldr	r3, [sp, #4]
    1644:	0021      	movs	r1, r4
    1646:	6818      	ldr	r0, [r3, #0]
    1648:	f7ff ff2a 	bl	14a0 <get_fat.isra.0>
C:\Users\alon\Desktop\github\iot-fan_at_cnblogs\CH577_CH578_CH579\AN\CH579EVT_USB_DISK_TEST\BLE\ch57x_ble_uart_mrs_app_only_test\obj/../app/ff.c:1556
			if (cs == 1 || cs == 0xFFFFFFFF) return cs;	/* Test for error */
    164c:	2801      	cmp	r0, #1
    164e:	d0e3      	beq.n	1618 <create_chain+0x26>
C:\Users\alon\Desktop\github\iot-fan_at_cnblogs\CH577_CH578_CH579\AN\CH579EVT_USB_DISK_TEST\BLE\ch57x_ble_uart_mrs_app_only_test\obj/../app/ff.c:1556 (discriminator 2)
    1650:	1c43      	adds	r3, r0, #1
    1652:	d03e      	beq.n	16d2 <create_chain+0xe0>
C:\Users\alon\Desktop\github\iot-fan_at_cnblogs\CH577_CH578_CH579\AN\CH579EVT_USB_DISK_TEST\BLE\ch57x_ble_uart_mrs_app_only_test\obj/../app/ff.c:1557
			if (cs != 0) {						/* Not free? */
    1654:	2800      	cmp	r0, #0
    1656:	d01c      	beq.n	1692 <create_chain+0xa0>
C:\Users\alon\Desktop\github\iot-fan_at_cnblogs\CH577_CH578_CH579\AN\CH579EVT_USB_DISK_TEST\BLE\ch57x_ble_uart_mrs_app_only_test\obj/../app/ff.c:1558
				cs = fs->last_clst;				/* Start at suggested cluster if it is valid */
    1658:	692b      	ldr	r3, [r5, #16]
C:\Users\alon\Desktop\github\iot-fan_at_cnblogs\CH577_CH578_CH579\AN\CH579EVT_USB_DISK_TEST\BLE\ch57x_ble_uart_mrs_app_only_test\obj/../app/ff.c:1559
				if (cs >= 2 && cs < fs->n_fatent) scl = cs;
    165a:	2b01      	cmp	r3, #1
    165c:	d903      	bls.n	1666 <create_chain+0x74>
C:\Users\alon\Desktop\github\iot-fan_at_cnblogs\CH577_CH578_CH579\AN\CH579EVT_USB_DISK_TEST\BLE\ch57x_ble_uart_mrs_app_only_test\obj/../app/ff.c:1559 (discriminator 1)
    165e:	69aa      	ldr	r2, [r5, #24]
    1660:	4293      	cmp	r3, r2
    1662:	d200      	bcs.n	1666 <create_chain+0x74>
C:\Users\alon\Desktop\github\iot-fan_at_cnblogs\CH577_CH578_CH579\AN\CH579EVT_USB_DISK_TEST\BLE\ch57x_ble_uart_mrs_app_only_test\obj/../app/ff.c:1559
    1664:	001e      	movs	r6, r3
    1666:	0034      	movs	r4, r6
C:\Users\alon\Desktop\github\iot-fan_at_cnblogs\CH577_CH578_CH579\AN\CH579EVT_USB_DISK_TEST\BLE\ch57x_ble_uart_mrs_app_only_test\obj/../app/ff.c:1567
				if (ncl >= fs->n_fatent) {		/* Check wrap-around */
    1668:	69ab      	ldr	r3, [r5, #24]
C:\Users\alon\Desktop\github\iot-fan_at_cnblogs\CH577_CH578_CH579\AN\CH579EVT_USB_DISK_TEST\BLE\ch57x_ble_uart_mrs_app_only_test\obj/../app/ff.c:1566
				ncl++;							/* Next cluster */
    166a:	3401      	adds	r4, #1
C:\Users\alon\Desktop\github\iot-fan_at_cnblogs\CH577_CH578_CH579\AN\CH579EVT_USB_DISK_TEST\BLE\ch57x_ble_uart_mrs_app_only_test\obj/../app/ff.c:1567
				if (ncl >= fs->n_fatent) {		/* Check wrap-around */
    166c:	42a3      	cmp	r3, r4
    166e:	d802      	bhi.n	1676 <create_chain+0x84>
C:\Users\alon\Desktop\github\iot-fan_at_cnblogs\CH577_CH578_CH579\AN\CH579EVT_USB_DISK_TEST\BLE\ch57x_ble_uart_mrs_app_only_test\obj/../app/ff.c:1569
					if (ncl > scl) return 0;	/* No free cluster found? */
    1670:	2e01      	cmp	r6, #1
    1672:	d9dd      	bls.n	1630 <create_chain+0x3e>
C:\Users\alon\Desktop\github\iot-fan_at_cnblogs\CH577_CH578_CH579\AN\CH579EVT_USB_DISK_TEST\BLE\ch57x_ble_uart_mrs_app_only_test\obj/../app/ff.c:1568
					ncl = 2;
    1674:	2402      	movs	r4, #2
C:\Users\alon\Desktop\github\iot-fan_at_cnblogs\CH577_CH578_CH579\AN\CH579EVT_USB_DISK_TEST\BLE\ch57x_ble_uart_mrs_app_only_test\obj/../app/ff.c:1571
				cs = get_fat(obj, ncl);			/* Get the cluster status */
    1676:	9b01      	ldr	r3, [sp, #4]
    1678:	0021      	movs	r1, r4
    167a:	6818      	ldr	r0, [r3, #0]
    167c:	f7ff ff10 	bl	14a0 <get_fat.isra.0>
C:\Users\alon\Desktop\github\iot-fan_at_cnblogs\CH577_CH578_CH579\AN\CH579EVT_USB_DISK_TEST\BLE\ch57x_ble_uart_mrs_app_only_test\obj/../app/ff.c:1572
				if (cs == 0) break;				/* Found a free cluster? */
    1680:	2800      	cmp	r0, #0
    1682:	d008      	beq.n	1696 <create_chain+0xa4>
C:\Users\alon\Desktop\github\iot-fan_at_cnblogs\CH577_CH578_CH579\AN\CH579EVT_USB_DISK_TEST\BLE\ch57x_ble_uart_mrs_app_only_test\obj/../app/ff.c:1573
				if (cs == 1 || cs == 0xFFFFFFFF) return cs;	/* Test for error */
    1684:	2801      	cmp	r0, #1
    1686:	d0c7      	beq.n	1618 <create_chain+0x26>
C:\Users\alon\Desktop\github\iot-fan_at_cnblogs\CH577_CH578_CH579\AN\CH579EVT_USB_DISK_TEST\BLE\ch57x_ble_uart_mrs_app_only_test\obj/../app/ff.c:1573 (discriminator 2)
    1688:	1c43      	adds	r3, r0, #1
    168a:	d022      	beq.n	16d2 <create_chain+0xe0>
C:\Users\alon\Desktop\github\iot-fan_at_cnblogs\CH577_CH578_CH579\AN\CH579EVT_USB_DISK_TEST\BLE\ch57x_ble_uart_mrs_app_only_test\obj/../app/ff.c:1574
				if (ncl == scl) return 0;		/* No free cluster found? */
    168c:	42b4      	cmp	r4, r6
    168e:	d1eb      	bne.n	1668 <create_chain+0x76>
    1690:	e7ce      	b.n	1630 <create_chain+0x3e>
C:\Users\alon\Desktop\github\iot-fan_at_cnblogs\CH577_CH578_CH579\AN\CH579EVT_USB_DISK_TEST\BLE\ch57x_ble_uart_mrs_app_only_test\obj/../app/ff.c:1563
		if (ncl == 0) {	/* The new cluster cannot be contiguous and find another fragment */
    1692:	2c00      	cmp	r4, #0
    1694:	d0e7      	beq.n	1666 <create_chain+0x74>
C:\Users\alon\Desktop\github\iot-fan_at_cnblogs\CH577_CH578_CH579\AN\CH579EVT_USB_DISK_TEST\BLE\ch57x_ble_uart_mrs_app_only_test\obj/../app/ff.c:1577
		res = put_fat(fs, ncl, 0xFFFFFFFF);		/* Mark the new cluster 'EOC' */
    1696:	2201      	movs	r2, #1
    1698:	0021      	movs	r1, r4
    169a:	0028      	movs	r0, r5
    169c:	4252      	negs	r2, r2
    169e:	f7ff fe75 	bl	138c <put_fat>
C:\Users\alon\Desktop\github\iot-fan_at_cnblogs\CH577_CH578_CH579\AN\CH579EVT_USB_DISK_TEST\BLE\ch57x_ble_uart_mrs_app_only_test\obj/../app/ff.c:1578
		if (res == FR_OK && clst != 0) {
    16a2:	2800      	cmp	r0, #0
    16a4:	d113      	bne.n	16ce <create_chain+0xdc>
C:\Users\alon\Desktop\github\iot-fan_at_cnblogs\CH577_CH578_CH579\AN\CH579EVT_USB_DISK_TEST\BLE\ch57x_ble_uart_mrs_app_only_test\obj/../app/ff.c:1578 (discriminator 1)
    16a6:	2f00      	cmp	r7, #0
    16a8:	d10a      	bne.n	16c0 <create_chain+0xce>
C:\Users\alon\Desktop\github\iot-fan_at_cnblogs\CH577_CH578_CH579\AN\CH579EVT_USB_DISK_TEST\BLE\ch57x_ble_uart_mrs_app_only_test\obj/../app/ff.c:1585
		if (fs->free_clst <= fs->n_fatent - 2) fs->free_clst--;
    16aa:	69aa      	ldr	r2, [r5, #24]
    16ac:	696b      	ldr	r3, [r5, #20]
    16ae:	3a02      	subs	r2, #2
C:\Users\alon\Desktop\github\iot-fan_at_cnblogs\CH577_CH578_CH579\AN\CH579EVT_USB_DISK_TEST\BLE\ch57x_ble_uart_mrs_app_only_test\obj/../app/ff.c:1584
		fs->last_clst = ncl;
    16b0:	612c      	str	r4, [r5, #16]
C:\Users\alon\Desktop\github\iot-fan_at_cnblogs\CH577_CH578_CH579\AN\CH579EVT_USB_DISK_TEST\BLE\ch57x_ble_uart_mrs_app_only_test\obj/../app/ff.c:1585
		if (fs->free_clst <= fs->n_fatent - 2) fs->free_clst--;
    16b2:	4293      	cmp	r3, r2
    16b4:	d910      	bls.n	16d8 <create_chain+0xe6>
C:\Users\alon\Desktop\github\iot-fan_at_cnblogs\CH577_CH578_CH579\AN\CH579EVT_USB_DISK_TEST\BLE\ch57x_ble_uart_mrs_app_only_test\obj/../app/ff.c:1586
		fs->fsi_flag |= 1;
    16b6:	2301      	movs	r3, #1
    16b8:	792a      	ldrb	r2, [r5, #4]
    16ba:	4313      	orrs	r3, r2
    16bc:	712b      	strb	r3, [r5, #4]
    16be:	e7ac      	b.n	161a <create_chain+0x28>
C:\Users\alon\Desktop\github\iot-fan_at_cnblogs\CH577_CH578_CH579\AN\CH579EVT_USB_DISK_TEST\BLE\ch57x_ble_uart_mrs_app_only_test\obj/../app/ff.c:1579
			res = put_fat(fs, clst, ncl);		/* Link it from the previous one if needed */
    16c0:	0022      	movs	r2, r4
    16c2:	0039      	movs	r1, r7
    16c4:	0028      	movs	r0, r5
    16c6:	f7ff fe61 	bl	138c <put_fat>
C:\Users\alon\Desktop\github\iot-fan_at_cnblogs\CH577_CH578_CH579\AN\CH579EVT_USB_DISK_TEST\BLE\ch57x_ble_uart_mrs_app_only_test\obj/../app/ff.c:1583
	if (res == FR_OK) {			/* Update FSINFO if function succeeded. */
    16ca:	2800      	cmp	r0, #0
    16cc:	d0ed      	beq.n	16aa <create_chain+0xb8>
C:\Users\alon\Desktop\github\iot-fan_at_cnblogs\CH577_CH578_CH579\AN\CH579EVT_USB_DISK_TEST\BLE\ch57x_ble_uart_mrs_app_only_test\obj/../app/ff.c:1588
		ncl = (res == FR_DISK_ERR) ? 0xFFFFFFFF : 1;	/* Failed. Generate error status */
    16ce:	2801      	cmp	r0, #1
    16d0:	d1a2      	bne.n	1618 <create_chain+0x26>
    16d2:	2401      	movs	r4, #1
    16d4:	4264      	negs	r4, r4
    16d6:	e7a0      	b.n	161a <create_chain+0x28>
C:\Users\alon\Desktop\github\iot-fan_at_cnblogs\CH577_CH578_CH579\AN\CH579EVT_USB_DISK_TEST\BLE\ch57x_ble_uart_mrs_app_only_test\obj/../app/ff.c:1585 (discriminator 1)
		if (fs->free_clst <= fs->n_fatent - 2) fs->free_clst--;
    16d8:	3b01      	subs	r3, #1
    16da:	616b      	str	r3, [r5, #20]
    16dc:	e7eb      	b.n	16b6 <create_chain+0xc4>

000016de <remove_chain>:
remove_chain():
C:\Users\alon\Desktop\github\iot-fan_at_cnblogs\CH577_CH578_CH579\AN\CH579EVT_USB_DISK_TEST\BLE\ch57x_ble_uart_mrs_app_only_test\obj/../app/ff.c:1411
{
    16de:	b5f8      	push	{r3, r4, r5, r6, r7, lr}
    16e0:	000c      	movs	r4, r1
    16e2:	0006      	movs	r6, r0
    16e4:	0011      	movs	r1, r2
C:\Users\alon\Desktop\github\iot-fan_at_cnblogs\CH577_CH578_CH579\AN\CH579EVT_USB_DISK_TEST\BLE\ch57x_ble_uart_mrs_app_only_test\obj/../app/ff.c:1414
	FATFS *fs = obj->fs;
    16e6:	6805      	ldr	r5, [r0, #0]
C:\Users\alon\Desktop\github\iot-fan_at_cnblogs\CH577_CH578_CH579\AN\CH579EVT_USB_DISK_TEST\BLE\ch57x_ble_uart_mrs_app_only_test\obj/../app/ff.c:1422
	if (clst < 2 || clst >= fs->n_fatent) return FR_INT_ERR;	/* Check if in valid range */
    16e8:	2c01      	cmp	r4, #1
    16ea:	d92d      	bls.n	1748 <remove_chain+0x6a>
C:\Users\alon\Desktop\github\iot-fan_at_cnblogs\CH577_CH578_CH579\AN\CH579EVT_USB_DISK_TEST\BLE\ch57x_ble_uart_mrs_app_only_test\obj/../app/ff.c:1422 (discriminator 2)
    16ec:	69ab      	ldr	r3, [r5, #24]
    16ee:	42a3      	cmp	r3, r4
    16f0:	d92a      	bls.n	1748 <remove_chain+0x6a>
C:\Users\alon\Desktop\github\iot-fan_at_cnblogs\CH577_CH578_CH579\AN\CH579EVT_USB_DISK_TEST\BLE\ch57x_ble_uart_mrs_app_only_test\obj/../app/ff.c:1425
	if (pclst != 0 && (!FF_FS_EXFAT || fs->fs_type != FS_EXFAT || obj->stat != 2)) {
    16f2:	2a00      	cmp	r2, #0
    16f4:	d006      	beq.n	1704 <remove_chain+0x26>
C:\Users\alon\Desktop\github\iot-fan_at_cnblogs\CH577_CH578_CH579\AN\CH579EVT_USB_DISK_TEST\BLE\ch57x_ble_uart_mrs_app_only_test\obj/../app/ff.c:1426
		res = put_fat(fs, pclst, 0xFFFFFFFF);
    16f6:	2201      	movs	r2, #1
    16f8:	0028      	movs	r0, r5
    16fa:	4252      	negs	r2, r2
    16fc:	f7ff fe46 	bl	138c <put_fat>
C:\Users\alon\Desktop\github\iot-fan_at_cnblogs\CH577_CH578_CH579\AN\CH579EVT_USB_DISK_TEST\BLE\ch57x_ble_uart_mrs_app_only_test\obj/../app/ff.c:1427
		if (res != FR_OK) return res;
    1700:	2800      	cmp	r0, #0
    1702:	d107      	bne.n	1714 <remove_chain+0x36>
C:\Users\alon\Desktop\github\iot-fan_at_cnblogs\CH577_CH578_CH579\AN\CH579EVT_USB_DISK_TEST\BLE\ch57x_ble_uart_mrs_app_only_test\obj/../app/ff.c:1432
		nxt = get_fat(obj, clst);			/* Get cluster status */
    1704:	0021      	movs	r1, r4
    1706:	6830      	ldr	r0, [r6, #0]
    1708:	f7ff feca 	bl	14a0 <get_fat.isra.0>
    170c:	0027      	movs	r7, r4
    170e:	1e04      	subs	r4, r0, #0
C:\Users\alon\Desktop\github\iot-fan_at_cnblogs\CH577_CH578_CH579\AN\CH579EVT_USB_DISK_TEST\BLE\ch57x_ble_uart_mrs_app_only_test\obj/../app/ff.c:1433
		if (nxt == 0) break;				/* Empty cluster? */
    1710:	d101      	bne.n	1716 <remove_chain+0x38>
C:\Users\alon\Desktop\github\iot-fan_at_cnblogs\CH577_CH578_CH579\AN\CH579EVT_USB_DISK_TEST\BLE\ch57x_ble_uart_mrs_app_only_test\obj/../app/ff.c:1491
	return FR_OK;
    1712:	2000      	movs	r0, #0
C:\Users\alon\Desktop\github\iot-fan_at_cnblogs\CH577_CH578_CH579\AN\CH579EVT_USB_DISK_TEST\BLE\ch57x_ble_uart_mrs_app_only_test\obj/../app/ff.c:1492
}
    1714:	bdf8      	pop	{r3, r4, r5, r6, r7, pc}
C:\Users\alon\Desktop\github\iot-fan_at_cnblogs\CH577_CH578_CH579\AN\CH579EVT_USB_DISK_TEST\BLE\ch57x_ble_uart_mrs_app_only_test\obj/../app/ff.c:1434
		if (nxt == 1) return FR_INT_ERR;	/* Internal error? */
    1716:	2801      	cmp	r0, #1
    1718:	d016      	beq.n	1748 <remove_chain+0x6a>
C:\Users\alon\Desktop\github\iot-fan_at_cnblogs\CH577_CH578_CH579\AN\CH579EVT_USB_DISK_TEST\BLE\ch57x_ble_uart_mrs_app_only_test\obj/../app/ff.c:1435
		if (nxt == 0xFFFFFFFF) return FR_DISK_ERR;	/* Disk error? */
    171a:	1c43      	adds	r3, r0, #1
    171c:	d016      	beq.n	174c <remove_chain+0x6e>
C:\Users\alon\Desktop\github\iot-fan_at_cnblogs\CH577_CH578_CH579\AN\CH579EVT_USB_DISK_TEST\BLE\ch57x_ble_uart_mrs_app_only_test\obj/../app/ff.c:1437
			res = put_fat(fs, clst, 0);		/* Mark the cluster 'free' on the FAT */
    171e:	2200      	movs	r2, #0
    1720:	0039      	movs	r1, r7
    1722:	0028      	movs	r0, r5
    1724:	f7ff fe32 	bl	138c <put_fat>
C:\Users\alon\Desktop\github\iot-fan_at_cnblogs\CH577_CH578_CH579\AN\CH579EVT_USB_DISK_TEST\BLE\ch57x_ble_uart_mrs_app_only_test\obj/../app/ff.c:1438
			if (res != FR_OK) return res;
    1728:	2800      	cmp	r0, #0
    172a:	d1f3      	bne.n	1714 <remove_chain+0x36>
C:\Users\alon\Desktop\github\iot-fan_at_cnblogs\CH577_CH578_CH579\AN\CH579EVT_USB_DISK_TEST\BLE\ch57x_ble_uart_mrs_app_only_test\obj/../app/ff.c:1440
		if (fs->free_clst < fs->n_fatent - 2) {	/* Update FSINFO */
    172c:	69aa      	ldr	r2, [r5, #24]
    172e:	696b      	ldr	r3, [r5, #20]
    1730:	1e91      	subs	r1, r2, #2
    1732:	428b      	cmp	r3, r1
    1734:	d205      	bcs.n	1742 <remove_chain+0x64>
C:\Users\alon\Desktop\github\iot-fan_at_cnblogs\CH577_CH578_CH579\AN\CH579EVT_USB_DISK_TEST\BLE\ch57x_ble_uart_mrs_app_only_test\obj/../app/ff.c:1442
			fs->fsi_flag |= 1;
    1736:	2101      	movs	r1, #1
C:\Users\alon\Desktop\github\iot-fan_at_cnblogs\CH577_CH578_CH579\AN\CH579EVT_USB_DISK_TEST\BLE\ch57x_ble_uart_mrs_app_only_test\obj/../app/ff.c:1441
			fs->free_clst++;
    1738:	3301      	adds	r3, #1
    173a:	616b      	str	r3, [r5, #20]
C:\Users\alon\Desktop\github\iot-fan_at_cnblogs\CH577_CH578_CH579\AN\CH579EVT_USB_DISK_TEST\BLE\ch57x_ble_uart_mrs_app_only_test\obj/../app/ff.c:1442
			fs->fsi_flag |= 1;
    173c:	792b      	ldrb	r3, [r5, #4]
    173e:	430b      	orrs	r3, r1
    1740:	712b      	strb	r3, [r5, #4]
C:\Users\alon\Desktop\github\iot-fan_at_cnblogs\CH577_CH578_CH579\AN\CH579EVT_USB_DISK_TEST\BLE\ch57x_ble_uart_mrs_app_only_test\obj/../app/ff.c:1463
	} while (clst < fs->n_fatent);	/* Repeat while not the last link */
    1742:	42a2      	cmp	r2, r4
    1744:	d8de      	bhi.n	1704 <remove_chain+0x26>
    1746:	e7e4      	b.n	1712 <remove_chain+0x34>
C:\Users\alon\Desktop\github\iot-fan_at_cnblogs\CH577_CH578_CH579\AN\CH579EVT_USB_DISK_TEST\BLE\ch57x_ble_uart_mrs_app_only_test\obj/../app/ff.c:1422
	if (clst < 2 || clst >= fs->n_fatent) return FR_INT_ERR;	/* Check if in valid range */
    1748:	2002      	movs	r0, #2
    174a:	e7e3      	b.n	1714 <remove_chain+0x36>
C:\Users\alon\Desktop\github\iot-fan_at_cnblogs\CH577_CH578_CH579\AN\CH579EVT_USB_DISK_TEST\BLE\ch57x_ble_uart_mrs_app_only_test\obj/../app/ff.c:1435
		if (nxt == 0xFFFFFFFF) return FR_DISK_ERR;	/* Disk error? */
    174c:	2001      	movs	r0, #1
    174e:	e7e1      	b.n	1714 <remove_chain+0x36>

00001750 <dir_clear>:
dir_clear():
C:\Users\alon\Desktop\github\iot-fan_at_cnblogs\CH577_CH578_CH579\AN\CH579EVT_USB_DISK_TEST\BLE\ch57x_ble_uart_mrs_app_only_test\obj/../app/ff.c:1638
{
    1750:	b5f7      	push	{r0, r1, r2, r4, r5, r6, r7, lr}
    1752:	0004      	movs	r4, r0
    1754:	000d      	movs	r5, r1
C:\Users\alon\Desktop\github\iot-fan_at_cnblogs\CH577_CH578_CH579\AN\CH579EVT_USB_DISK_TEST\BLE\ch57x_ble_uart_mrs_app_only_test\obj/../app/ff.c:1644
	if (sync_window(fs) != FR_OK) return FR_DISK_ERR;	/* Flush disk access window */
    1756:	f7ff fc1e 	bl	f96 <sync_window>
    175a:	0006      	movs	r6, r0
    175c:	2001      	movs	r0, #1
    175e:	2e00      	cmp	r6, #0
    1760:	d13b      	bne.n	17da <dir_clear+0x8a>
C:\Users\alon\Desktop\github\iot-fan_at_cnblogs\CH577_CH578_CH579\AN\CH579EVT_USB_DISK_TEST\BLE\ch57x_ble_uart_mrs_app_only_test\obj/../app/ff.c:1645
	sect = clst2sect(fs, clst);		/* Top of the cluster */
    1762:	0029      	movs	r1, r5
    1764:	0020      	movs	r0, r4
C:\Users\alon\Desktop\github\iot-fan_at_cnblogs\CH577_CH578_CH579\AN\CH579EVT_USB_DISK_TEST\BLE\ch57x_ble_uart_mrs_app_only_test\obj/../app/ff.c:1647
	mem_set(fs->win, 0, SS(fs));	/* Clear window buffer */
    1766:	0027      	movs	r7, r4
C:\Users\alon\Desktop\github\iot-fan_at_cnblogs\CH577_CH578_CH579\AN\CH579EVT_USB_DISK_TEST\BLE\ch57x_ble_uart_mrs_app_only_test\obj/../app/ff.c:1645
	sect = clst2sect(fs, clst);		/* Top of the cluster */
    1768:	f7ff fba0 	bl	eac <clst2sect>
C:\Users\alon\Desktop\github\iot-fan_at_cnblogs\CH577_CH578_CH579\AN\CH579EVT_USB_DISK_TEST\BLE\ch57x_ble_uart_mrs_app_only_test\obj/../app/ff.c:1647
	mem_set(fs->win, 0, SS(fs));	/* Clear window buffer */
    176c:	2280      	movs	r2, #128	; 0x80
    176e:	3734      	adds	r7, #52	; 0x34
C:\Users\alon\Desktop\github\iot-fan_at_cnblogs\CH577_CH578_CH579\AN\CH579EVT_USB_DISK_TEST\BLE\ch57x_ble_uart_mrs_app_only_test\obj/../app/ff.c:1645
	sect = clst2sect(fs, clst);		/* Top of the cluster */
    1770:	9001      	str	r0, [sp, #4]
C:\Users\alon\Desktop\github\iot-fan_at_cnblogs\CH577_CH578_CH579\AN\CH579EVT_USB_DISK_TEST\BLE\ch57x_ble_uart_mrs_app_only_test\obj/../app/ff.c:1646
	fs->winsect = sect;				/* Set window to top of the cluster */
    1772:	6320      	str	r0, [r4, #48]	; 0x30
C:\Users\alon\Desktop\github\iot-fan_at_cnblogs\CH577_CH578_CH579\AN\CH579EVT_USB_DISK_TEST\BLE\ch57x_ble_uart_mrs_app_only_test\obj/../app/ff.c:1647
	mem_set(fs->win, 0, SS(fs));	/* Clear window buffer */
    1774:	0031      	movs	r1, r6
    1776:	0038      	movs	r0, r7
    1778:	0152      	lsls	r2, r2, #5
    177a:	f7ff fb84 	bl	e86 <mem_set>
C:\Users\alon\Desktop\github\iot-fan_at_cnblogs\CH577_CH578_CH579\AN\CH579EVT_USB_DISK_TEST\BLE\ch57x_ble_uart_mrs_app_only_test\obj/../app/ff.c:1650
	for (szb = ((DWORD)fs->csize * SS(fs) >= MAX_MALLOC) ? MAX_MALLOC : fs->csize * SS(fs), ibuf = 0; szb > SS(fs) && (ibuf = ff_memalloc(szb)) == 0; szb /= 2) ;
    177e:	2380      	movs	r3, #128	; 0x80
    1780:	8965      	ldrh	r5, [r4, #10]
    1782:	021b      	lsls	r3, r3, #8
    1784:	032d      	lsls	r5, r5, #12
    1786:	429d      	cmp	r5, r3
    1788:	d300      	bcc.n	178c <dir_clear+0x3c>
    178a:	001d      	movs	r5, r3
    178c:	2380      	movs	r3, #128	; 0x80
    178e:	015b      	lsls	r3, r3, #5
    1790:	429d      	cmp	r5, r3
    1792:	d931      	bls.n	17f8 <dir_clear+0xa8>
    1794:	0028      	movs	r0, r5
    1796:	f001 fa01 	bl	2b9c <ff_memalloc>
    179a:	1e06      	subs	r6, r0, #0
    179c:	d006      	beq.n	17ac <dir_clear+0x5c>
C:\Users\alon\Desktop\github\iot-fan_at_cnblogs\CH577_CH578_CH579\AN\CH579EVT_USB_DISK_TEST\BLE\ch57x_ble_uart_mrs_app_only_test\obj/../app/ff.c:1652
		mem_set(ibuf, 0, szb);
    179e:	002a      	movs	r2, r5
    17a0:	2100      	movs	r1, #0
C:\Users\alon\Desktop\github\iot-fan_at_cnblogs\CH577_CH578_CH579\AN\CH579EVT_USB_DISK_TEST\BLE\ch57x_ble_uart_mrs_app_only_test\obj/../app/ff.c:1653
		szb /= SS(fs);		/* Bytes -> Sectors */
    17a2:	0b2f      	lsrs	r7, r5, #12
C:\Users\alon\Desktop\github\iot-fan_at_cnblogs\CH577_CH578_CH579\AN\CH579EVT_USB_DISK_TEST\BLE\ch57x_ble_uart_mrs_app_only_test\obj/../app/ff.c:1652
		mem_set(ibuf, 0, szb);
    17a4:	f7ff fb6f 	bl	e86 <mem_set>
C:\Users\alon\Desktop\github\iot-fan_at_cnblogs\CH577_CH578_CH579\AN\CH579EVT_USB_DISK_TEST\BLE\ch57x_ble_uart_mrs_app_only_test\obj/../app/ff.c:1654
		for (n = 0; n < fs->csize && disk_write(fs->pdrv, ibuf, sect + n, szb) == RES_OK; n += szb) ;	/* Fill the cluster with 0 */
    17a8:	2500      	movs	r5, #0
    17aa:	e00b      	b.n	17c4 <dir_clear+0x74>
C:\Users\alon\Desktop\github\iot-fan_at_cnblogs\CH577_CH578_CH579\AN\CH579EVT_USB_DISK_TEST\BLE\ch57x_ble_uart_mrs_app_only_test\obj/../app/ff.c:1650
	for (szb = ((DWORD)fs->csize * SS(fs) >= MAX_MALLOC) ? MAX_MALLOC : fs->csize * SS(fs), ibuf = 0; szb > SS(fs) && (ibuf = ff_memalloc(szb)) == 0; szb /= 2) ;
    17ac:	086d      	lsrs	r5, r5, #1
    17ae:	e7ed      	b.n	178c <dir_clear+0x3c>
C:\Users\alon\Desktop\github\iot-fan_at_cnblogs\CH577_CH578_CH579\AN\CH579EVT_USB_DISK_TEST\BLE\ch57x_ble_uart_mrs_app_only_test\obj/../app/ff.c:1654
		for (n = 0; n < fs->csize && disk_write(fs->pdrv, ibuf, sect + n, szb) == RES_OK; n += szb) ;	/* Fill the cluster with 0 */
    17b0:	9b01      	ldr	r3, [sp, #4]
    17b2:	0031      	movs	r1, r6
    17b4:	195a      	adds	r2, r3, r5
    17b6:	7860      	ldrb	r0, [r4, #1]
    17b8:	003b      	movs	r3, r7
    17ba:	f7ff fb37 	bl	e2c <disk_write>
    17be:	2800      	cmp	r0, #0
    17c0:	d103      	bne.n	17ca <dir_clear+0x7a>
    17c2:	19ed      	adds	r5, r5, r7
    17c4:	8963      	ldrh	r3, [r4, #10]
    17c6:	429d      	cmp	r5, r3
    17c8:	d3f2      	bcc.n	17b0 <dir_clear+0x60>
C:\Users\alon\Desktop\github\iot-fan_at_cnblogs\CH577_CH578_CH579\AN\CH579EVT_USB_DISK_TEST\BLE\ch57x_ble_uart_mrs_app_only_test\obj/../app/ff.c:1655
		ff_memfree(ibuf);
    17ca:	0030      	movs	r0, r6
    17cc:	f001 f9ea 	bl	2ba4 <ff_memfree>
C:\Users\alon\Desktop\github\iot-fan_at_cnblogs\CH577_CH578_CH579\AN\CH579EVT_USB_DISK_TEST\BLE\ch57x_ble_uart_mrs_app_only_test\obj/../app/ff.c:1662
	return (n == fs->csize) ? FR_OK : FR_DISK_ERR;
    17d0:	8960      	ldrh	r0, [r4, #10]
    17d2:	1b45      	subs	r5, r0, r5
    17d4:	1e68      	subs	r0, r5, #1
    17d6:	4185      	sbcs	r5, r0
    17d8:	b2e8      	uxtb	r0, r5
C:\Users\alon\Desktop\github\iot-fan_at_cnblogs\CH577_CH578_CH579\AN\CH579EVT_USB_DISK_TEST\BLE\ch57x_ble_uart_mrs_app_only_test\obj/../app/ff.c:1663
}
    17da:	bdfe      	pop	{r1, r2, r3, r4, r5, r6, r7, pc}
C:\Users\alon\Desktop\github\iot-fan_at_cnblogs\CH577_CH578_CH579\AN\CH579EVT_USB_DISK_TEST\BLE\ch57x_ble_uart_mrs_app_only_test\obj/../app/ff.c:1660
		for (n = 0; n < fs->csize && disk_write(fs->pdrv, ibuf, sect + n, szb) == RES_OK; n += szb) ;	/* Fill the cluster with 0 */
    17dc:	3501      	adds	r5, #1
    17de:	8963      	ldrh	r3, [r4, #10]
    17e0:	429d      	cmp	r5, r3
    17e2:	d2f5      	bcs.n	17d0 <dir_clear+0x80>
    17e4:	9b01      	ldr	r3, [sp, #4]
    17e6:	0039      	movs	r1, r7
    17e8:	195a      	adds	r2, r3, r5
    17ea:	7860      	ldrb	r0, [r4, #1]
    17ec:	2301      	movs	r3, #1
    17ee:	f7ff fb1d 	bl	e2c <disk_write>
    17f2:	2800      	cmp	r0, #0
    17f4:	d0f2      	beq.n	17dc <dir_clear+0x8c>
    17f6:	e7eb      	b.n	17d0 <dir_clear+0x80>
    17f8:	2500      	movs	r5, #0
    17fa:	e7f0      	b.n	17de <dir_clear+0x8e>

000017fc <dir_next>:
dir_next():
C:\Users\alon\Desktop\github\iot-fan_at_cnblogs\CH577_CH578_CH579\AN\CH579EVT_USB_DISK_TEST\BLE\ch57x_ble_uart_mrs_app_only_test\obj/../app/ff.c:1725
{
    17fc:	b5f7      	push	{r0, r1, r2, r4, r5, r6, r7, lr}
C:\Users\alon\Desktop\github\iot-fan_at_cnblogs\CH577_CH578_CH579\AN\CH579EVT_USB_DISK_TEST\BLE\ch57x_ble_uart_mrs_app_only_test\obj/../app/ff.c:1731
	if (dp->sect == 0 || ofs >= (DWORD)((FF_FS_EXFAT && fs->fs_type == FS_EXFAT) ? MAX_DIR_EX : MAX_DIR)) return FR_NO_FILE;	/* Report EOT when offset has reached max value */
    17fe:	6983      	ldr	r3, [r0, #24]
C:\Users\alon\Desktop\github\iot-fan_at_cnblogs\CH577_CH578_CH579\AN\CH579EVT_USB_DISK_TEST\BLE\ch57x_ble_uart_mrs_app_only_test\obj/../app/ff.c:1730
	ofs = dp->dptr + SZDIRE;	/* Next entry */
    1800:	6907      	ldr	r7, [r0, #16]
C:\Users\alon\Desktop\github\iot-fan_at_cnblogs\CH577_CH578_CH579\AN\CH579EVT_USB_DISK_TEST\BLE\ch57x_ble_uart_mrs_app_only_test\obj/../app/ff.c:1725
{
    1802:	0004      	movs	r4, r0
    1804:	9101      	str	r1, [sp, #4]
C:\Users\alon\Desktop\github\iot-fan_at_cnblogs\CH577_CH578_CH579\AN\CH579EVT_USB_DISK_TEST\BLE\ch57x_ble_uart_mrs_app_only_test\obj/../app/ff.c:1731
	if (dp->sect == 0 || ofs >= (DWORD)((FF_FS_EXFAT && fs->fs_type == FS_EXFAT) ? MAX_DIR_EX : MAX_DIR)) return FR_NO_FILE;	/* Report EOT when offset has reached max value */
    1806:	2004      	movs	r0, #4
C:\Users\alon\Desktop\github\iot-fan_at_cnblogs\CH577_CH578_CH579\AN\CH579EVT_USB_DISK_TEST\BLE\ch57x_ble_uart_mrs_app_only_test\obj/../app/ff.c:1730
	ofs = dp->dptr + SZDIRE;	/* Next entry */
    1808:	3720      	adds	r7, #32
C:\Users\alon\Desktop\github\iot-fan_at_cnblogs\CH577_CH578_CH579\AN\CH579EVT_USB_DISK_TEST\BLE\ch57x_ble_uart_mrs_app_only_test\obj/../app/ff.c:1731
	if (dp->sect == 0 || ofs >= (DWORD)((FF_FS_EXFAT && fs->fs_type == FS_EXFAT) ? MAX_DIR_EX : MAX_DIR)) return FR_NO_FILE;	/* Report EOT when offset has reached max value */
    180a:	2b00      	cmp	r3, #0
    180c:	d015      	beq.n	183a <dir_next+0x3e>
C:\Users\alon\Desktop\github\iot-fan_at_cnblogs\CH577_CH578_CH579\AN\CH579EVT_USB_DISK_TEST\BLE\ch57x_ble_uart_mrs_app_only_test\obj/../app/ff.c:1731 (discriminator 2)
    180e:	2280      	movs	r2, #128	; 0x80
    1810:	0392      	lsls	r2, r2, #14
    1812:	4297      	cmp	r7, r2
    1814:	d211      	bcs.n	183a <dir_next+0x3e>
C:\Users\alon\Desktop\github\iot-fan_at_cnblogs\CH577_CH578_CH579\AN\CH579EVT_USB_DISK_TEST\BLE\ch57x_ble_uart_mrs_app_only_test\obj/../app/ff.c:1733
	if (ofs % SS(fs) == 0) {	/* Sector changed? */
    1816:	053a      	lsls	r2, r7, #20
    1818:	0d11      	lsrs	r1, r2, #20
C:\Users\alon\Desktop\github\iot-fan_at_cnblogs\CH577_CH578_CH579\AN\CH579EVT_USB_DISK_TEST\BLE\ch57x_ble_uart_mrs_app_only_test\obj/../app/ff.c:1727
	FATFS *fs = dp->obj.fs;
    181a:	6826      	ldr	r6, [r4, #0]
C:\Users\alon\Desktop\github\iot-fan_at_cnblogs\CH577_CH578_CH579\AN\CH579EVT_USB_DISK_TEST\BLE\ch57x_ble_uart_mrs_app_only_test\obj/../app/ff.c:1733
	if (ofs % SS(fs) == 0) {	/* Sector changed? */
    181c:	9100      	str	r1, [sp, #0]
    181e:	2a00      	cmp	r2, #0
    1820:	d13b      	bne.n	189a <dir_next+0x9e>
C:\Users\alon\Desktop\github\iot-fan_at_cnblogs\CH577_CH578_CH579\AN\CH579EVT_USB_DISK_TEST\BLE\ch57x_ble_uart_mrs_app_only_test\obj/../app/ff.c:1736
		if (dp->clust == 0) {	/* Static table */
    1822:	6961      	ldr	r1, [r4, #20]
C:\Users\alon\Desktop\github\iot-fan_at_cnblogs\CH577_CH578_CH579\AN\CH579EVT_USB_DISK_TEST\BLE\ch57x_ble_uart_mrs_app_only_test\obj/../app/ff.c:1734
		dp->sect++;				/* Next sector */
    1824:	3301      	adds	r3, #1
    1826:	61a3      	str	r3, [r4, #24]
C:\Users\alon\Desktop\github\iot-fan_at_cnblogs\CH577_CH578_CH579\AN\CH579EVT_USB_DISK_TEST\BLE\ch57x_ble_uart_mrs_app_only_test\obj/../app/ff.c:1736
		if (dp->clust == 0) {	/* Static table */
    1828:	2900      	cmp	r1, #0
    182a:	d107      	bne.n	183c <dir_next+0x40>
C:\Users\alon\Desktop\github\iot-fan_at_cnblogs\CH577_CH578_CH579\AN\CH579EVT_USB_DISK_TEST\BLE\ch57x_ble_uart_mrs_app_only_test\obj/../app/ff.c:1737
			if (ofs / SZDIRE >= fs->n_rootdir) {	/* Report EOT if it reached end of static table */
    182c:	8932      	ldrh	r2, [r6, #8]
    182e:	097b      	lsrs	r3, r7, #5
    1830:	4293      	cmp	r3, r2
    1832:	d332      	bcc.n	189a <dir_next+0x9e>
C:\Users\alon\Desktop\github\iot-fan_at_cnblogs\CH577_CH578_CH579\AN\CH579EVT_USB_DISK_TEST\BLE\ch57x_ble_uart_mrs_app_only_test\obj/../app/ff.c:1738
				dp->sect = 0; return FR_NO_FILE;
    1834:	2300      	movs	r3, #0
    1836:	2004      	movs	r0, #4
    1838:	61a3      	str	r3, [r4, #24]
C:\Users\alon\Desktop\github\iot-fan_at_cnblogs\CH577_CH578_CH579\AN\CH579EVT_USB_DISK_TEST\BLE\ch57x_ble_uart_mrs_app_only_test\obj/../app/ff.c:1771
}
    183a:	bdfe      	pop	{r1, r2, r3, r4, r5, r6, r7, pc}
C:\Users\alon\Desktop\github\iot-fan_at_cnblogs\CH577_CH578_CH579\AN\CH579EVT_USB_DISK_TEST\BLE\ch57x_ble_uart_mrs_app_only_test\obj/../app/ff.c:1742
			if ((ofs / SS(fs) & (fs->csize - 1)) == 0) {	/* Cluster changed? */
    183c:	8973      	ldrh	r3, [r6, #10]
    183e:	0b3a      	lsrs	r2, r7, #12
    1840:	3b01      	subs	r3, #1
    1842:	421a      	tst	r2, r3
    1844:	d129      	bne.n	189a <dir_next+0x9e>
C:\Users\alon\Desktop\github\iot-fan_at_cnblogs\CH577_CH578_CH579\AN\CH579EVT_USB_DISK_TEST\BLE\ch57x_ble_uart_mrs_app_only_test\obj/../app/ff.c:1743
				clst = get_fat(&dp->obj, dp->clust);		/* Get next cluster */
    1846:	0030      	movs	r0, r6
    1848:	f7ff fe2a 	bl	14a0 <get_fat.isra.0>
    184c:	0005      	movs	r5, r0
C:\Users\alon\Desktop\github\iot-fan_at_cnblogs\CH577_CH578_CH579\AN\CH579EVT_USB_DISK_TEST\BLE\ch57x_ble_uart_mrs_app_only_test\obj/../app/ff.c:1744
				if (clst <= 1) return FR_INT_ERR;			/* Internal error */
    184e:	2801      	cmp	r0, #1
    1850:	d801      	bhi.n	1856 <dir_next+0x5a>
    1852:	2002      	movs	r0, #2
    1854:	e7f1      	b.n	183a <dir_next+0x3e>
C:\Users\alon\Desktop\github\iot-fan_at_cnblogs\CH577_CH578_CH579\AN\CH579EVT_USB_DISK_TEST\BLE\ch57x_ble_uart_mrs_app_only_test\obj/../app/ff.c:1745
				if (clst == 0xFFFFFFFF) return FR_DISK_ERR;	/* Disk error */
    1856:	1c43      	adds	r3, r0, #1
    1858:	d101      	bne.n	185e <dir_next+0x62>
    185a:	2001      	movs	r0, #1
    185c:	e7ed      	b.n	183a <dir_next+0x3e>
C:\Users\alon\Desktop\github\iot-fan_at_cnblogs\CH577_CH578_CH579\AN\CH579EVT_USB_DISK_TEST\BLE\ch57x_ble_uart_mrs_app_only_test\obj/../app/ff.c:1746
				if (clst >= fs->n_fatent) {					/* It reached end of dynamic table */
    185e:	69b3      	ldr	r3, [r6, #24]
    1860:	4283      	cmp	r3, r0
    1862:	d814      	bhi.n	188e <dir_next+0x92>
C:\Users\alon\Desktop\github\iot-fan_at_cnblogs\CH577_CH578_CH579\AN\CH579EVT_USB_DISK_TEST\BLE\ch57x_ble_uart_mrs_app_only_test\obj/../app/ff.c:1748
					if (!stretch) {								/* If no stretch, report EOT */
    1864:	9b01      	ldr	r3, [sp, #4]
    1866:	2b00      	cmp	r3, #0
    1868:	d0e4      	beq.n	1834 <dir_next+0x38>
C:\Users\alon\Desktop\github\iot-fan_at_cnblogs\CH577_CH578_CH579\AN\CH579EVT_USB_DISK_TEST\BLE\ch57x_ble_uart_mrs_app_only_test\obj/../app/ff.c:1751
					clst = create_chain(&dp->obj, dp->clust);	/* Allocate a cluster */
    186a:	0020      	movs	r0, r4
    186c:	6961      	ldr	r1, [r4, #20]
    186e:	f7ff fec0 	bl	15f2 <create_chain>
    1872:	0005      	movs	r5, r0
C:\Users\alon\Desktop\github\iot-fan_at_cnblogs\CH577_CH578_CH579\AN\CH579EVT_USB_DISK_TEST\BLE\ch57x_ble_uart_mrs_app_only_test\obj/../app/ff.c:1752
					if (clst == 0) return FR_DENIED;			/* No free cluster */
    1874:	2007      	movs	r0, #7
    1876:	2d00      	cmp	r5, #0
    1878:	d0df      	beq.n	183a <dir_next+0x3e>
C:\Users\alon\Desktop\github\iot-fan_at_cnblogs\CH577_CH578_CH579\AN\CH579EVT_USB_DISK_TEST\BLE\ch57x_ble_uart_mrs_app_only_test\obj/../app/ff.c:1753
					if (clst == 1) return FR_INT_ERR;			/* Internal error */
    187a:	2d01      	cmp	r5, #1
    187c:	d0e9      	beq.n	1852 <dir_next+0x56>
C:\Users\alon\Desktop\github\iot-fan_at_cnblogs\CH577_CH578_CH579\AN\CH579EVT_USB_DISK_TEST\BLE\ch57x_ble_uart_mrs_app_only_test\obj/../app/ff.c:1754
					if (clst == 0xFFFFFFFF) return FR_DISK_ERR;	/* Disk error */
    187e:	1c6b      	adds	r3, r5, #1
    1880:	d0eb      	beq.n	185a <dir_next+0x5e>
C:\Users\alon\Desktop\github\iot-fan_at_cnblogs\CH577_CH578_CH579\AN\CH579EVT_USB_DISK_TEST\BLE\ch57x_ble_uart_mrs_app_only_test\obj/../app/ff.c:1755
					if (dir_clear(fs, clst) != FR_OK) return FR_DISK_ERR;	/* Clean up the stretched table */
    1882:	0029      	movs	r1, r5
    1884:	0030      	movs	r0, r6
    1886:	f7ff ff63 	bl	1750 <dir_clear>
    188a:	2800      	cmp	r0, #0
    188c:	d1e5      	bne.n	185a <dir_next+0x5e>
C:\Users\alon\Desktop\github\iot-fan_at_cnblogs\CH577_CH578_CH579\AN\CH579EVT_USB_DISK_TEST\BLE\ch57x_ble_uart_mrs_app_only_test\obj/../app/ff.c:1763
				dp->sect = clst2sect(fs, clst);
    188e:	0029      	movs	r1, r5
    1890:	0030      	movs	r0, r6
C:\Users\alon\Desktop\github\iot-fan_at_cnblogs\CH577_CH578_CH579\AN\CH579EVT_USB_DISK_TEST\BLE\ch57x_ble_uart_mrs_app_only_test\obj/../app/ff.c:1762
				dp->clust = clst;		/* Initialize data for new cluster */
    1892:	6165      	str	r5, [r4, #20]
C:\Users\alon\Desktop\github\iot-fan_at_cnblogs\CH577_CH578_CH579\AN\CH579EVT_USB_DISK_TEST\BLE\ch57x_ble_uart_mrs_app_only_test\obj/../app/ff.c:1763
				dp->sect = clst2sect(fs, clst);
    1894:	f7ff fb0a 	bl	eac <clst2sect>
    1898:	61a0      	str	r0, [r4, #24]
C:\Users\alon\Desktop\github\iot-fan_at_cnblogs\CH577_CH578_CH579\AN\CH579EVT_USB_DISK_TEST\BLE\ch57x_ble_uart_mrs_app_only_test\obj/../app/ff.c:1768
	dp->dir = fs->win + ofs % SS(fs);	/* Pointer to the entry in the win[] */
    189a:	9b00      	ldr	r3, [sp, #0]
    189c:	3634      	adds	r6, #52	; 0x34
    189e:	18f6      	adds	r6, r6, r3
C:\Users\alon\Desktop\github\iot-fan_at_cnblogs\CH577_CH578_CH579\AN\CH579EVT_USB_DISK_TEST\BLE\ch57x_ble_uart_mrs_app_only_test\obj/../app/ff.c:1770
	return FR_OK;
    18a0:	2000      	movs	r0, #0
C:\Users\alon\Desktop\github\iot-fan_at_cnblogs\CH577_CH578_CH579\AN\CH579EVT_USB_DISK_TEST\BLE\ch57x_ble_uart_mrs_app_only_test\obj/../app/ff.c:1767
	dp->dptr = ofs;						/* Current entry */
    18a2:	6127      	str	r7, [r4, #16]
C:\Users\alon\Desktop\github\iot-fan_at_cnblogs\CH577_CH578_CH579\AN\CH579EVT_USB_DISK_TEST\BLE\ch57x_ble_uart_mrs_app_only_test\obj/../app/ff.c:1768
	dp->dir = fs->win + ofs % SS(fs);	/* Pointer to the entry in the win[] */
    18a4:	61e6      	str	r6, [r4, #28]
C:\Users\alon\Desktop\github\iot-fan_at_cnblogs\CH577_CH578_CH579\AN\CH579EVT_USB_DISK_TEST\BLE\ch57x_ble_uart_mrs_app_only_test\obj/../app/ff.c:1770
	return FR_OK;
    18a6:	e7c8      	b.n	183a <dir_next+0x3e>

000018a8 <dir_find>:
dir_find():
C:\Users\alon\Desktop\github\iot-fan_at_cnblogs\CH577_CH578_CH579\AN\CH579EVT_USB_DISK_TEST\BLE\ch57x_ble_uart_mrs_app_only_test\obj/../app/ff.c:2404
{
    18a8:	b5f0      	push	{r4, r5, r6, r7, lr}
C:\Users\alon\Desktop\github\iot-fan_at_cnblogs\CH577_CH578_CH579\AN\CH579EVT_USB_DISK_TEST\BLE\ch57x_ble_uart_mrs_app_only_test\obj/../app/ff.c:2406
	FATFS *fs = dp->obj.fs;
    18aa:	6803      	ldr	r3, [r0, #0]
C:\Users\alon\Desktop\github\iot-fan_at_cnblogs\CH577_CH578_CH579\AN\CH579EVT_USB_DISK_TEST\BLE\ch57x_ble_uart_mrs_app_only_test\obj/../app/ff.c:2404
{
    18ac:	b089      	sub	sp, #36	; 0x24
C:\Users\alon\Desktop\github\iot-fan_at_cnblogs\CH577_CH578_CH579\AN\CH579EVT_USB_DISK_TEST\BLE\ch57x_ble_uart_mrs_app_only_test\obj/../app/ff.c:2412
	res = dir_sdi(dp, 0);			/* Rewind directory object */
    18ae:	2100      	movs	r1, #0
C:\Users\alon\Desktop\github\iot-fan_at_cnblogs\CH577_CH578_CH579\AN\CH579EVT_USB_DISK_TEST\BLE\ch57x_ble_uart_mrs_app_only_test\obj/../app/ff.c:2404
{
    18b0:	0004      	movs	r4, r0
C:\Users\alon\Desktop\github\iot-fan_at_cnblogs\CH577_CH578_CH579\AN\CH579EVT_USB_DISK_TEST\BLE\ch57x_ble_uart_mrs_app_only_test\obj/../app/ff.c:2406
	FATFS *fs = dp->obj.fs;
    18b2:	9304      	str	r3, [sp, #16]
C:\Users\alon\Desktop\github\iot-fan_at_cnblogs\CH577_CH578_CH579\AN\CH579EVT_USB_DISK_TEST\BLE\ch57x_ble_uart_mrs_app_only_test\obj/../app/ff.c:2412
	res = dir_sdi(dp, 0);			/* Rewind directory object */
    18b4:	f7ff fe56 	bl	1564 <dir_sdi>
    18b8:	1e06      	subs	r6, r0, #0
C:\Users\alon\Desktop\github\iot-fan_at_cnblogs\CH577_CH578_CH579\AN\CH579EVT_USB_DISK_TEST\BLE\ch57x_ble_uart_mrs_app_only_test\obj/../app/ff.c:2413
	if (res != FR_OK) return res;
    18ba:	d000      	beq.n	18be <dir_find+0x16>
    18bc:	e0a2      	b.n	1a04 <dir_find+0x15c>
C:\Users\alon\Desktop\github\iot-fan_at_cnblogs\CH577_CH578_CH579\AN\CH579EVT_USB_DISK_TEST\BLE\ch57x_ble_uart_mrs_app_only_test\obj/../app/ff.c:2436
	ord = sum = 0xFF; dp->blk_ofs = 0xFFFFFFFF;	/* Reset LFN sequence */
    18be:	22ff      	movs	r2, #255	; 0xff
    18c0:	2301      	movs	r3, #1
    18c2:	0017      	movs	r7, r2
    18c4:	425b      	negs	r3, r3
    18c6:	62e3      	str	r3, [r4, #44]	; 0x2c
    18c8:	9202      	str	r2, [sp, #8]
C:\Users\alon\Desktop\github\iot-fan_at_cnblogs\CH577_CH578_CH579\AN\CH579EVT_USB_DISK_TEST\BLE\ch57x_ble_uart_mrs_app_only_test\obj/../app/ff.c:2446
			ord = 0xFF; dp->blk_ofs = 0xFFFFFFFF;	/* Reset LFN sequence */
    18ca:	9305      	str	r3, [sp, #20]
C:\Users\alon\Desktop\github\iot-fan_at_cnblogs\CH577_CH578_CH579\AN\CH579EVT_USB_DISK_TEST\BLE\ch57x_ble_uart_mrs_app_only_test\obj/../app/ff.c:2439
		res = move_window(fs, dp->sect);
    18cc:	69a1      	ldr	r1, [r4, #24]
    18ce:	9804      	ldr	r0, [sp, #16]
    18d0:	f7ff fb86 	bl	fe0 <move_window>
    18d4:	1e06      	subs	r6, r0, #0
C:\Users\alon\Desktop\github\iot-fan_at_cnblogs\CH577_CH578_CH579\AN\CH579EVT_USB_DISK_TEST\BLE\ch57x_ble_uart_mrs_app_only_test\obj/../app/ff.c:2440
		if (res != FR_OK) break;
    18d6:	d000      	beq.n	18da <dir_find+0x32>
    18d8:	e094      	b.n	1a04 <dir_find+0x15c>
C:\Users\alon\Desktop\github\iot-fan_at_cnblogs\CH577_CH578_CH579\AN\CH579EVT_USB_DISK_TEST\BLE\ch57x_ble_uart_mrs_app_only_test\obj/../app/ff.c:2441
		c = dp->dir[DIR_Name];
    18da:	69e5      	ldr	r5, [r4, #28]
    18dc:	782b      	ldrb	r3, [r5, #0]
    18de:	9300      	str	r3, [sp, #0]
C:\Users\alon\Desktop\github\iot-fan_at_cnblogs\CH577_CH578_CH579\AN\CH579EVT_USB_DISK_TEST\BLE\ch57x_ble_uart_mrs_app_only_test\obj/../app/ff.c:2442
		if (c == 0) { res = FR_NO_FILE; break; }	/* Reached to end of table */
    18e0:	2b00      	cmp	r3, #0
    18e2:	d100      	bne.n	18e6 <dir_find+0x3e>
    18e4:	e091      	b.n	1a0a <dir_find+0x162>
C:\Users\alon\Desktop\github\iot-fan_at_cnblogs\CH577_CH578_CH579\AN\CH579EVT_USB_DISK_TEST\BLE\ch57x_ble_uart_mrs_app_only_test\obj/../app/ff.c:2444
		dp->obj.attr = a = dp->dir[DIR_Attr] & AM_MASK;
    18e6:	233f      	movs	r3, #63	; 0x3f
    18e8:	7aea      	ldrb	r2, [r5, #11]
C:\Users\alon\Desktop\github\iot-fan_at_cnblogs\CH577_CH578_CH579\AN\CH579EVT_USB_DISK_TEST\BLE\ch57x_ble_uart_mrs_app_only_test\obj/../app/ff.c:2445
		if (c == DDEM || ((a & AM_VOL) && a != AM_LFN)) {	/* An entry without valid data */
    18ea:	9900      	ldr	r1, [sp, #0]
C:\Users\alon\Desktop\github\iot-fan_at_cnblogs\CH577_CH578_CH579\AN\CH579EVT_USB_DISK_TEST\BLE\ch57x_ble_uart_mrs_app_only_test\obj/../app/ff.c:2444
		dp->obj.attr = a = dp->dir[DIR_Attr] & AM_MASK;
    18ec:	4013      	ands	r3, r2
    18ee:	71a3      	strb	r3, [r4, #6]
C:\Users\alon\Desktop\github\iot-fan_at_cnblogs\CH577_CH578_CH579\AN\CH579EVT_USB_DISK_TEST\BLE\ch57x_ble_uart_mrs_app_only_test\obj/../app/ff.c:2445
		if (c == DDEM || ((a & AM_VOL) && a != AM_LFN)) {	/* An entry without valid data */
    18f0:	29e5      	cmp	r1, #229	; 0xe5
    18f2:	d003      	beq.n	18fc <dir_find+0x54>
C:\Users\alon\Desktop\github\iot-fan_at_cnblogs\CH577_CH578_CH579\AN\CH579EVT_USB_DISK_TEST\BLE\ch57x_ble_uart_mrs_app_only_test\obj/../app/ff.c:2445 (discriminator 1)
    18f4:	0712      	lsls	r2, r2, #28
    18f6:	d504      	bpl.n	1902 <dir_find+0x5a>
C:\Users\alon\Desktop\github\iot-fan_at_cnblogs\CH577_CH578_CH579\AN\CH579EVT_USB_DISK_TEST\BLE\ch57x_ble_uart_mrs_app_only_test\obj/../app/ff.c:2445 (discriminator 2)
    18f8:	2b0f      	cmp	r3, #15
    18fa:	d004      	beq.n	1906 <dir_find+0x5e>
C:\Users\alon\Desktop\github\iot-fan_at_cnblogs\CH577_CH578_CH579\AN\CH579EVT_USB_DISK_TEST\BLE\ch57x_ble_uart_mrs_app_only_test\obj/../app/ff.c:2461
				ord = 0xFF; dp->blk_ofs = 0xFFFFFFFF;	/* Reset LFN sequence */
    18fc:	9b05      	ldr	r3, [sp, #20]
    18fe:	62e3      	str	r3, [r4, #44]	; 0x2c
    1900:	e061      	b.n	19c6 <dir_find+0x11e>
C:\Users\alon\Desktop\github\iot-fan_at_cnblogs\CH577_CH578_CH579\AN\CH579EVT_USB_DISK_TEST\BLE\ch57x_ble_uart_mrs_app_only_test\obj/../app/ff.c:2448
			if (a == AM_LFN) {			/* An LFN entry is found */
    1902:	2b0f      	cmp	r3, #15
    1904:	d165      	bne.n	19d2 <dir_find+0x12a>
C:\Users\alon\Desktop\github\iot-fan_at_cnblogs\CH577_CH578_CH579\AN\CH579EVT_USB_DISK_TEST\BLE\ch57x_ble_uart_mrs_app_only_test\obj/../app/ff.c:2449
				if (!(dp->fn[NSFLAG] & NS_NOLFN)) {
    1906:	0023      	movs	r3, r4
    1908:	332b      	adds	r3, #43	; 0x2b
    190a:	781a      	ldrb	r2, [r3, #0]
    190c:	2340      	movs	r3, #64	; 0x40
    190e:	421a      	tst	r2, r3
    1910:	d14f      	bne.n	19b2 <dir_find+0x10a>
C:\Users\alon\Desktop\github\iot-fan_at_cnblogs\CH577_CH578_CH579\AN\CH579EVT_USB_DISK_TEST\BLE\ch57x_ble_uart_mrs_app_only_test\obj/../app/ff.c:2450
					if (c & LLEF) {		/* Is it start of LFN sequence? */
    1912:	9a00      	ldr	r2, [sp, #0]
    1914:	421a      	tst	r2, r3
    1916:	d053      	beq.n	19c0 <dir_find+0x118>
C:\Users\alon\Desktop\github\iot-fan_at_cnblogs\CH577_CH578_CH579\AN\CH579EVT_USB_DISK_TEST\BLE\ch57x_ble_uart_mrs_app_only_test\obj/../app/ff.c:2451
						sum = dp->dir[LDIR_Chksum];
    1918:	7b6a      	ldrb	r2, [r5, #13]
    191a:	9202      	str	r2, [sp, #8]
C:\Users\alon\Desktop\github\iot-fan_at_cnblogs\CH577_CH578_CH579\AN\CH579EVT_USB_DISK_TEST\BLE\ch57x_ble_uart_mrs_app_only_test\obj/../app/ff.c:2452
						c &= (BYTE)~LLEF; ord = c;	/* LFN start order */
    191c:	9a00      	ldr	r2, [sp, #0]
    191e:	439a      	bics	r2, r3
C:\Users\alon\Desktop\github\iot-fan_at_cnblogs\CH577_CH578_CH579\AN\CH579EVT_USB_DISK_TEST\BLE\ch57x_ble_uart_mrs_app_only_test\obj/../app/ff.c:2453
						dp->blk_ofs = dp->dptr;	/* Start offset of LFN */
    1920:	6923      	ldr	r3, [r4, #16]
C:\Users\alon\Desktop\github\iot-fan_at_cnblogs\CH577_CH578_CH579\AN\CH579EVT_USB_DISK_TEST\BLE\ch57x_ble_uart_mrs_app_only_test\obj/../app/ff.c:2452
						c &= (BYTE)~LLEF; ord = c;	/* LFN start order */
    1922:	9200      	str	r2, [sp, #0]
C:\Users\alon\Desktop\github\iot-fan_at_cnblogs\CH577_CH578_CH579\AN\CH579EVT_USB_DISK_TEST\BLE\ch57x_ble_uart_mrs_app_only_test\obj/../app/ff.c:2453
						dp->blk_ofs = dp->dptr;	/* Start offset of LFN */
    1924:	62e3      	str	r3, [r4, #44]	; 0x2c
C:\Users\alon\Desktop\github\iot-fan_at_cnblogs\CH577_CH578_CH579\AN\CH579EVT_USB_DISK_TEST\BLE\ch57x_ble_uart_mrs_app_only_test\obj/../app/ff.c:2456 (discriminator 1)
					ord = (c == ord && sum == dp->dir[LDIR_Chksum] && cmp_lfn(fs->lfnbuf, dp->dir)) ? ord - 1 : 0xFF;
    1926:	7b6b      	ldrb	r3, [r5, #13]
    1928:	9a02      	ldr	r2, [sp, #8]
    192a:	27ff      	movs	r7, #255	; 0xff
    192c:	4293      	cmp	r3, r2
    192e:	d140      	bne.n	19b2 <dir_find+0x10a>
ld_word():
C:\Users\alon\Desktop\github\iot-fan_at_cnblogs\CH577_CH578_CH579\AN\CH579EVT_USB_DISK_TEST\BLE\ch57x_ble_uart_mrs_app_only_test\obj/../app/ff.c:575 (discriminator 3)
	rv = rv << 8 | ptr[0];
    1930:	7eea      	ldrb	r2, [r5, #27]
    1932:	7eab      	ldrb	r3, [r5, #26]
    1934:	0212      	lsls	r2, r2, #8
    1936:	4313      	orrs	r3, r2
cmp_lfn():
C:\Users\alon\Desktop\github\iot-fan_at_cnblogs\CH577_CH578_CH579\AN\CH579EVT_USB_DISK_TEST\BLE\ch57x_ble_uart_mrs_app_only_test\obj/../app/ff.c:1869 (discriminator 3)
	if (ld_word(dir + LDIR_FstClusLO) != 0) return 0;	/* Check LDIR_FstClusLO */
    1938:	b21a      	sxth	r2, r3
    193a:	2b00      	cmp	r3, #0
    193c:	d139      	bne.n	19b2 <dir_find+0x10a>
C:\Users\alon\Desktop\github\iot-fan_at_cnblogs\CH577_CH578_CH579\AN\CH579EVT_USB_DISK_TEST\BLE\ch57x_ble_uart_mrs_app_only_test\obj/../app/ff.c:1871
	i = ((dir[LDIR_Ord] & 0x3F) - 1) * 13;	/* Offset in the LFN buffer */
    193e:	213f      	movs	r1, #63	; 0x3f
dir_find():
C:\Users\alon\Desktop\github\iot-fan_at_cnblogs\CH577_CH578_CH579\AN\CH579EVT_USB_DISK_TEST\BLE\ch57x_ble_uart_mrs_app_only_test\obj/../app/ff.c:2456
					ord = (c == ord && sum == dp->dir[LDIR_Chksum] && cmp_lfn(fs->lfnbuf, dp->dir)) ? ord - 1 : 0xFF;
    1940:	9b04      	ldr	r3, [sp, #16]
cmp_lfn():
C:\Users\alon\Desktop\github\iot-fan_at_cnblogs\CH577_CH578_CH579\AN\CH579EVT_USB_DISK_TEST\BLE\ch57x_ble_uart_mrs_app_only_test\obj/../app/ff.c:1871
	i = ((dir[LDIR_Ord] & 0x3F) - 1) * 13;	/* Offset in the LFN buffer */
    1942:	3ff2      	subs	r7, #242	; 0xf2
dir_find():
C:\Users\alon\Desktop\github\iot-fan_at_cnblogs\CH577_CH578_CH579\AN\CH579EVT_USB_DISK_TEST\BLE\ch57x_ble_uart_mrs_app_only_test\obj/../app/ff.c:2456
					ord = (c == ord && sum == dp->dir[LDIR_Chksum] && cmp_lfn(fs->lfnbuf, dp->dir)) ? ord - 1 : 0xFF;
    1944:	68db      	ldr	r3, [r3, #12]
cmp_lfn():
C:\Users\alon\Desktop\github\iot-fan_at_cnblogs\CH577_CH578_CH579\AN\CH579EVT_USB_DISK_TEST\BLE\ch57x_ble_uart_mrs_app_only_test\obj/../app/ff.c:1873
	for (wc = 1, s = 0; s < 13; s++) {		/* Process all characters in the entry */
    1946:	9201      	str	r2, [sp, #4]
dir_find():
C:\Users\alon\Desktop\github\iot-fan_at_cnblogs\CH577_CH578_CH579\AN\CH579EVT_USB_DISK_TEST\BLE\ch57x_ble_uart_mrs_app_only_test\obj/../app/ff.c:2456
					ord = (c == ord && sum == dp->dir[LDIR_Chksum] && cmp_lfn(fs->lfnbuf, dp->dir)) ? ord - 1 : 0xFF;
    1948:	9303      	str	r3, [sp, #12]
cmp_lfn():
C:\Users\alon\Desktop\github\iot-fan_at_cnblogs\CH577_CH578_CH579\AN\CH579EVT_USB_DISK_TEST\BLE\ch57x_ble_uart_mrs_app_only_test\obj/../app/ff.c:1871
	i = ((dir[LDIR_Ord] & 0x3F) - 1) * 13;	/* Offset in the LFN buffer */
    194a:	782b      	ldrb	r3, [r5, #0]
    194c:	400b      	ands	r3, r1
    194e:	3b01      	subs	r3, #1
    1950:	435f      	muls	r7, r3
C:\Users\alon\Desktop\github\iot-fan_at_cnblogs\CH577_CH578_CH579\AN\CH579EVT_USB_DISK_TEST\BLE\ch57x_ble_uart_mrs_app_only_test\obj/../app/ff.c:1873
	for (wc = 1, s = 0; s < 13; s++) {		/* Process all characters in the entry */
    1952:	393e      	subs	r1, #62	; 0x3e
C:\Users\alon\Desktop\github\iot-fan_at_cnblogs\CH577_CH578_CH579\AN\CH579EVT_USB_DISK_TEST\BLE\ch57x_ble_uart_mrs_app_only_test\obj/../app/ff.c:1874
		uc = ld_word(dir + LfnOfs[s]);		/* Pick an LFN character */
    1954:	4b2e      	ldr	r3, [pc, #184]	; (1a10 <dir_find+0x168>)
    1956:	9a01      	ldr	r2, [sp, #4]
    1958:	5cd3      	ldrb	r3, [r2, r3]
    195a:	18eb      	adds	r3, r5, r3
ld_word():
C:\Users\alon\Desktop\github\iot-fan_at_cnblogs\CH577_CH578_CH579\AN\CH579EVT_USB_DISK_TEST\BLE\ch57x_ble_uart_mrs_app_only_test\obj/../app/ff.c:575
	rv = rv << 8 | ptr[0];
    195c:	785e      	ldrb	r6, [r3, #1]
    195e:	781b      	ldrb	r3, [r3, #0]
    1960:	0236      	lsls	r6, r6, #8
    1962:	431e      	orrs	r6, r3
cmp_lfn():
C:\Users\alon\Desktop\github\iot-fan_at_cnblogs\CH577_CH578_CH579\AN\CH579EVT_USB_DISK_TEST\BLE\ch57x_ble_uart_mrs_app_only_test\obj/../app/ff.c:1875
		if (wc != 0) {
    1964:	2900      	cmp	r1, #0
    1966:	d030      	beq.n	19ca <dir_find+0x122>
C:\Users\alon\Desktop\github\iot-fan_at_cnblogs\CH577_CH578_CH579\AN\CH579EVT_USB_DISK_TEST\BLE\ch57x_ble_uart_mrs_app_only_test\obj/../app/ff.c:1876
			if (i >= FF_MAX_LFN || ff_wtoupper(uc) != ff_wtoupper(lfnbuf[i++])) {	/* Compare it */
    1968:	2ffe      	cmp	r7, #254	; 0xfe
    196a:	d82c      	bhi.n	19c6 <dir_find+0x11e>
    196c:	0030      	movs	r0, r6
    196e:	f001 f94d 	bl	2c0c <ff_wtoupper>
    1972:	1c7b      	adds	r3, r7, #1
    1974:	9307      	str	r3, [sp, #28]
    1976:	9b03      	ldr	r3, [sp, #12]
    1978:	007f      	lsls	r7, r7, #1
    197a:	9006      	str	r0, [sp, #24]
    197c:	5af8      	ldrh	r0, [r7, r3]
    197e:	f001 f945 	bl	2c0c <ff_wtoupper>
    1982:	9b06      	ldr	r3, [sp, #24]
    1984:	4283      	cmp	r3, r0
    1986:	d11e      	bne.n	19c6 <dir_find+0x11e>
ld_word():
C:\Users\alon\Desktop\github\iot-fan_at_cnblogs\CH577_CH578_CH579\AN\CH579EVT_USB_DISK_TEST\BLE\ch57x_ble_uart_mrs_app_only_test\obj/../app/ff.c:575
	rv = rv << 8 | ptr[0];
    1988:	0031      	movs	r1, r6
cmp_lfn():
C:\Users\alon\Desktop\github\iot-fan_at_cnblogs\CH577_CH578_CH579\AN\CH579EVT_USB_DISK_TEST\BLE\ch57x_ble_uart_mrs_app_only_test\obj/../app/ff.c:1876
			if (i >= FF_MAX_LFN || ff_wtoupper(uc) != ff_wtoupper(lfnbuf[i++])) {	/* Compare it */
    198a:	9f07      	ldr	r7, [sp, #28]
C:\Users\alon\Desktop\github\iot-fan_at_cnblogs\CH577_CH578_CH579\AN\CH579EVT_USB_DISK_TEST\BLE\ch57x_ble_uart_mrs_app_only_test\obj/../app/ff.c:1873
	for (wc = 1, s = 0; s < 13; s++) {		/* Process all characters in the entry */
    198c:	9b01      	ldr	r3, [sp, #4]
    198e:	3301      	adds	r3, #1
    1990:	9301      	str	r3, [sp, #4]
    1992:	2b0d      	cmp	r3, #13
    1994:	d1de      	bne.n	1954 <dir_find+0xac>
C:\Users\alon\Desktop\github\iot-fan_at_cnblogs\CH577_CH578_CH579\AN\CH579EVT_USB_DISK_TEST\BLE\ch57x_ble_uart_mrs_app_only_test\obj/../app/ff.c:1885
	if ((dir[LDIR_Ord] & LLEF) && wc && lfnbuf[i]) return 0;	/* Last segment matched but different length */
    1996:	782b      	ldrb	r3, [r5, #0]
    1998:	065b      	lsls	r3, r3, #25
    199a:	d507      	bpl.n	19ac <dir_find+0x104>
    199c:	2900      	cmp	r1, #0
    199e:	d005      	beq.n	19ac <dir_find+0x104>
    19a0:	9a03      	ldr	r2, [sp, #12]
    19a2:	007b      	lsls	r3, r7, #1
    19a4:	5a9b      	ldrh	r3, [r3, r2]
dir_find():
C:\Users\alon\Desktop\github\iot-fan_at_cnblogs\CH577_CH578_CH579\AN\CH579EVT_USB_DISK_TEST\BLE\ch57x_ble_uart_mrs_app_only_test\obj/../app/ff.c:2456
					ord = (c == ord && sum == dp->dir[LDIR_Chksum] && cmp_lfn(fs->lfnbuf, dp->dir)) ? ord - 1 : 0xFF;
    19a6:	27ff      	movs	r7, #255	; 0xff
cmp_lfn():
C:\Users\alon\Desktop\github\iot-fan_at_cnblogs\CH577_CH578_CH579\AN\CH579EVT_USB_DISK_TEST\BLE\ch57x_ble_uart_mrs_app_only_test\obj/../app/ff.c:1885
	if ((dir[LDIR_Ord] & LLEF) && wc && lfnbuf[i]) return 0;	/* Last segment matched but different length */
    19a8:	2b00      	cmp	r3, #0
    19aa:	d102      	bne.n	19b2 <dir_find+0x10a>
dir_find():
C:\Users\alon\Desktop\github\iot-fan_at_cnblogs\CH577_CH578_CH579\AN\CH579EVT_USB_DISK_TEST\BLE\ch57x_ble_uart_mrs_app_only_test\obj/../app/ff.c:2456 (discriminator 5)
					ord = (c == ord && sum == dp->dir[LDIR_Chksum] && cmp_lfn(fs->lfnbuf, dp->dir)) ? ord - 1 : 0xFF;
    19ac:	9f00      	ldr	r7, [sp, #0]
    19ae:	3f01      	subs	r7, #1
    19b0:	b2ff      	uxtb	r7, r7
C:\Users\alon\Desktop\github\iot-fan_at_cnblogs\CH577_CH578_CH579\AN\CH579EVT_USB_DISK_TEST\BLE\ch57x_ble_uart_mrs_app_only_test\obj/../app/ff.c:2468
		res = dir_next(dp, 0);	/* Next entry */
    19b2:	2100      	movs	r1, #0
    19b4:	0020      	movs	r0, r4
    19b6:	f7ff ff21 	bl	17fc <dir_next>
    19ba:	1e06      	subs	r6, r0, #0
C:\Users\alon\Desktop\github\iot-fan_at_cnblogs\CH577_CH578_CH579\AN\CH579EVT_USB_DISK_TEST\BLE\ch57x_ble_uart_mrs_app_only_test\obj/../app/ff.c:2469
	} while (res == FR_OK);
    19bc:	d086      	beq.n	18cc <dir_find+0x24>
    19be:	e021      	b.n	1a04 <dir_find+0x15c>
C:\Users\alon\Desktop\github\iot-fan_at_cnblogs\CH577_CH578_CH579\AN\CH579EVT_USB_DISK_TEST\BLE\ch57x_ble_uart_mrs_app_only_test\obj/../app/ff.c:2456
					ord = (c == ord && sum == dp->dir[LDIR_Chksum] && cmp_lfn(fs->lfnbuf, dp->dir)) ? ord - 1 : 0xFF;
    19c0:	9b00      	ldr	r3, [sp, #0]
    19c2:	429f      	cmp	r7, r3
    19c4:	d0af      	beq.n	1926 <dir_find+0x7e>
    19c6:	27ff      	movs	r7, #255	; 0xff
    19c8:	e7f3      	b.n	19b2 <dir_find+0x10a>
cmp_lfn():
C:\Users\alon\Desktop\github\iot-fan_at_cnblogs\CH577_CH578_CH579\AN\CH579EVT_USB_DISK_TEST\BLE\ch57x_ble_uart_mrs_app_only_test\obj/../app/ff.c:1881
			if (uc != 0xFFFF) return 0;		/* Check filler */
    19ca:	4b12      	ldr	r3, [pc, #72]	; (1a14 <dir_find+0x16c>)
    19cc:	429e      	cmp	r6, r3
    19ce:	d0dd      	beq.n	198c <dir_find+0xe4>
    19d0:	e7f9      	b.n	19c6 <dir_find+0x11e>
dir_find():
C:\Users\alon\Desktop\github\iot-fan_at_cnblogs\CH577_CH578_CH579\AN\CH579EVT_USB_DISK_TEST\BLE\ch57x_ble_uart_mrs_app_only_test\obj/../app/ff.c:2459
				if (ord == 0 && sum == sum_sfn(dp->dir)) break;	/* LFN matched? */
    19d2:	2f00      	cmp	r7, #0
    19d4:	d105      	bne.n	19e2 <dir_find+0x13a>
C:\Users\alon\Desktop\github\iot-fan_at_cnblogs\CH577_CH578_CH579\AN\CH579EVT_USB_DISK_TEST\BLE\ch57x_ble_uart_mrs_app_only_test\obj/../app/ff.c:2459 (discriminator 1)
    19d6:	0028      	movs	r0, r5
    19d8:	f7ff fa74 	bl	ec4 <sum_sfn>
    19dc:	9b02      	ldr	r3, [sp, #8]
    19de:	4298      	cmp	r0, r3
    19e0:	d010      	beq.n	1a04 <dir_find+0x15c>
C:\Users\alon\Desktop\github\iot-fan_at_cnblogs\CH577_CH578_CH579\AN\CH579EVT_USB_DISK_TEST\BLE\ch57x_ble_uart_mrs_app_only_test\obj/../app/ff.c:2460
				if (!(dp->fn[NSFLAG] & NS_LOSS) && !mem_cmp(dp->dir, dp->fn, 11)) break;	/* SFN matched? */
    19e2:	0023      	movs	r3, r4
    19e4:	332b      	adds	r3, #43	; 0x2b
    19e6:	781a      	ldrb	r2, [r3, #0]
    19e8:	2301      	movs	r3, #1
    19ea:	0016      	movs	r6, r2
    19ec:	401e      	ands	r6, r3
    19ee:	421a      	tst	r2, r3
    19f0:	d184      	bne.n	18fc <dir_find+0x54>
C:\Users\alon\Desktop\github\iot-fan_at_cnblogs\CH577_CH578_CH579\AN\CH579EVT_USB_DISK_TEST\BLE\ch57x_ble_uart_mrs_app_only_test\obj/../app/ff.c:2460 (discriminator 1)
    19f2:	0021      	movs	r1, r4
    19f4:	220b      	movs	r2, #11
    19f6:	0028      	movs	r0, r5
    19f8:	3120      	adds	r1, #32
    19fa:	f7ff fa4a 	bl	e92 <mem_cmp>
    19fe:	2800      	cmp	r0, #0
    1a00:	d000      	beq.n	1a04 <dir_find+0x15c>
    1a02:	e77b      	b.n	18fc <dir_find+0x54>
C:\Users\alon\Desktop\github\iot-fan_at_cnblogs\CH577_CH578_CH579\AN\CH579EVT_USB_DISK_TEST\BLE\ch57x_ble_uart_mrs_app_only_test\obj/../app/ff.c:2472
}
    1a04:	0030      	movs	r0, r6
    1a06:	b009      	add	sp, #36	; 0x24
    1a08:	bdf0      	pop	{r4, r5, r6, r7, pc}
C:\Users\alon\Desktop\github\iot-fan_at_cnblogs\CH577_CH578_CH579\AN\CH579EVT_USB_DISK_TEST\BLE\ch57x_ble_uart_mrs_app_only_test\obj/../app/ff.c:2442
		if (c == 0) { res = FR_NO_FILE; break; }	/* Reached to end of table */
    1a0a:	2604      	movs	r6, #4
    1a0c:	e7fa      	b.n	1a04 <dir_find+0x15c>
    1a0e:	46c0      	nop			; (mov r8, r8)
    1a10:	00004c8a 	.word	0x00004c8a
    1a14:	0000ffff 	.word	0x0000ffff

00001a18 <dir_register>:
dir_register():
C:\Users\alon\Desktop\github\iot-fan_at_cnblogs\CH577_CH578_CH579\AN\CH579EVT_USB_DISK_TEST\BLE\ch57x_ble_uart_mrs_app_only_test\obj/../app/ff.c:2485
{
    1a18:	b5f0      	push	{r4, r5, r6, r7, lr}
C:\Users\alon\Desktop\github\iot-fan_at_cnblogs\CH577_CH578_CH579\AN\CH579EVT_USB_DISK_TEST\BLE\ch57x_ble_uart_mrs_app_only_test\obj/../app/ff.c:2493
	if (dp->fn[NSFLAG] & (NS_DOT | NS_NONAME)) return FR_INVALID_NAME;	/* Check name validity */
    1a1a:	0006      	movs	r6, r0
    1a1c:	235f      	movs	r3, #95	; 0x5f
    1a1e:	362b      	adds	r6, #43	; 0x2b
    1a20:	7832      	ldrb	r2, [r6, #0]
C:\Users\alon\Desktop\github\iot-fan_at_cnblogs\CH577_CH578_CH579\AN\CH579EVT_USB_DISK_TEST\BLE\ch57x_ble_uart_mrs_app_only_test\obj/../app/ff.c:2485
{
    1a22:	0007      	movs	r7, r0
C:\Users\alon\Desktop\github\iot-fan_at_cnblogs\CH577_CH578_CH579\AN\CH579EVT_USB_DISK_TEST\BLE\ch57x_ble_uart_mrs_app_only_test\obj/../app/ff.c:2493
	if (dp->fn[NSFLAG] & (NS_DOT | NS_NONAME)) return FR_INVALID_NAME;	/* Check name validity */
    1a24:	439a      	bics	r2, r3
    1a26:	0013      	movs	r3, r2
    1a28:	2406      	movs	r4, #6
C:\Users\alon\Desktop\github\iot-fan_at_cnblogs\CH577_CH578_CH579\AN\CH579EVT_USB_DISK_TEST\BLE\ch57x_ble_uart_mrs_app_only_test\obj/../app/ff.c:2485
{
    1a2a:	b08b      	sub	sp, #44	; 0x2c
C:\Users\alon\Desktop\github\iot-fan_at_cnblogs\CH577_CH578_CH579\AN\CH579EVT_USB_DISK_TEST\BLE\ch57x_ble_uart_mrs_app_only_test\obj/../app/ff.c:2493
	if (dp->fn[NSFLAG] & (NS_DOT | NS_NONAME)) return FR_INVALID_NAME;	/* Check name validity */
    1a2c:	2a00      	cmp	r2, #0
    1a2e:	d153      	bne.n	1ad8 <dir_register+0xc0>
C:\Users\alon\Desktop\github\iot-fan_at_cnblogs\CH577_CH578_CH579\AN\CH579EVT_USB_DISK_TEST\BLE\ch57x_ble_uart_mrs_app_only_test\obj/../app/ff.c:2487
	FATFS *fs = dp->obj.fs;
    1a30:	6802      	ldr	r2, [r0, #0]
    1a32:	9200      	str	r2, [sp, #0]
C:\Users\alon\Desktop\github\iot-fan_at_cnblogs\CH577_CH578_CH579\AN\CH579EVT_USB_DISK_TEST\BLE\ch57x_ble_uart_mrs_app_only_test\obj/../app/ff.c:2494
	for (nlen = 0; fs->lfnbuf[nlen]; nlen++) ;	/* Get lfn length */
    1a34:	68d2      	ldr	r2, [r2, #12]
C:\Users\alon\Desktop\github\iot-fan_at_cnblogs\CH577_CH578_CH579\AN\CH579EVT_USB_DISK_TEST\BLE\ch57x_ble_uart_mrs_app_only_test\obj/../app/ff.c:2494 (discriminator 3)
    1a36:	9302      	str	r3, [sp, #8]
    1a38:	9b02      	ldr	r3, [sp, #8]
    1a3a:	005b      	lsls	r3, r3, #1
    1a3c:	5ad3      	ldrh	r3, [r2, r3]
    1a3e:	2b00      	cmp	r3, #0
    1a40:	d14d      	bne.n	1ade <dir_register+0xc6>
C:\Users\alon\Desktop\github\iot-fan_at_cnblogs\CH577_CH578_CH579\AN\CH579EVT_USB_DISK_TEST\BLE\ch57x_ble_uart_mrs_app_only_test\obj/../app/ff.c:2528
	mem_cpy(sn, dp->fn, 12);
    1a42:	003b      	movs	r3, r7
C:\Users\alon\Desktop\github\iot-fan_at_cnblogs\CH577_CH578_CH579\AN\CH579EVT_USB_DISK_TEST\BLE\ch57x_ble_uart_mrs_app_only_test\obj/../app/ff.c:2529
	if (sn[NSFLAG] & NS_LOSS) {			/* When LFN is out of 8.3 format, generate a numbered name */
    1a44:	2501      	movs	r5, #1
C:\Users\alon\Desktop\github\iot-fan_at_cnblogs\CH577_CH578_CH579\AN\CH579EVT_USB_DISK_TEST\BLE\ch57x_ble_uart_mrs_app_only_test\obj/../app/ff.c:2528
	mem_cpy(sn, dp->fn, 12);
    1a46:	3320      	adds	r3, #32
mem_cpy():
C:\Users\alon\Desktop\github\iot-fan_at_cnblogs\CH577_CH578_CH579\AN\CH579EVT_USB_DISK_TEST\BLE\ch57x_ble_uart_mrs_app_only_test\obj/../app/ff.c:2528
    1a48:	ac07      	add	r4, sp, #28
    1a4a:	0019      	movs	r1, r3
    1a4c:	220c      	movs	r2, #12
    1a4e:	0020      	movs	r0, r4
dir_register():
C:\Users\alon\Desktop\github\iot-fan_at_cnblogs\CH577_CH578_CH579\AN\CH579EVT_USB_DISK_TEST\BLE\ch57x_ble_uart_mrs_app_only_test\obj/../app/ff.c:2528
    1a50:	9301      	str	r3, [sp, #4]
mem_cpy():
C:\Users\alon\Desktop\github\iot-fan_at_cnblogs\CH577_CH578_CH579\AN\CH579EVT_USB_DISK_TEST\BLE\ch57x_ble_uart_mrs_app_only_test\obj/../app/ff.c:649
	if (cnt != 0) {
    1a52:	f7ff fa7d 	bl	f50 <mem_cpy.part.0>
dir_register():
C:\Users\alon\Desktop\github\iot-fan_at_cnblogs\CH577_CH578_CH579\AN\CH579EVT_USB_DISK_TEST\BLE\ch57x_ble_uart_mrs_app_only_test\obj/../app/ff.c:2529
	if (sn[NSFLAG] & NS_LOSS) {			/* When LFN is out of 8.3 format, generate a numbered name */
    1a56:	7ae3      	ldrb	r3, [r4, #11]
    1a58:	422b      	tst	r3, r5
    1a5a:	d100      	bne.n	1a5e <dir_register+0x46>
    1a5c:	e06c      	b.n	1b38 <dir_register+0x120>
C:\Users\alon\Desktop\github\iot-fan_at_cnblogs\CH577_CH578_CH579\AN\CH579EVT_USB_DISK_TEST\BLE\ch57x_ble_uart_mrs_app_only_test\obj/../app/ff.c:2530
		dp->fn[NSFLAG] = NS_NOLFN;		/* Find only SFN */
    1a5e:	2340      	movs	r3, #64	; 0x40
    1a60:	7033      	strb	r3, [r6, #0]
C:\Users\alon\Desktop\github\iot-fan_at_cnblogs\CH577_CH578_CH579\AN\CH579EVT_USB_DISK_TEST\BLE\ch57x_ble_uart_mrs_app_only_test\obj/../app/ff.c:2532
			gen_numname(dp->fn, sn, fs->lfnbuf, n);	/* Generate a numbered name */
    1a62:	9b00      	ldr	r3, [sp, #0]
mem_cpy():
C:\Users\alon\Desktop\github\iot-fan_at_cnblogs\CH577_CH578_CH579\AN\CH579EVT_USB_DISK_TEST\BLE\ch57x_ble_uart_mrs_app_only_test\obj/../app/ff.c:2532
    1a64:	220b      	movs	r2, #11
    1a66:	9801      	ldr	r0, [sp, #4]
    1a68:	a907      	add	r1, sp, #28
dir_register():
C:\Users\alon\Desktop\github\iot-fan_at_cnblogs\CH577_CH578_CH579\AN\CH579EVT_USB_DISK_TEST\BLE\ch57x_ble_uart_mrs_app_only_test\obj/../app/ff.c:2532
    1a6a:	68dc      	ldr	r4, [r3, #12]
mem_cpy():
C:\Users\alon\Desktop\github\iot-fan_at_cnblogs\CH577_CH578_CH579\AN\CH579EVT_USB_DISK_TEST\BLE\ch57x_ble_uart_mrs_app_only_test\obj/../app/ff.c:649
	if (cnt != 0) {
    1a6c:	f7ff fa70 	bl	f50 <mem_cpy.part.0>
gen_numname():
C:\Users\alon\Desktop\github\iot-fan_at_cnblogs\CH577_CH578_CH579\AN\CH579EVT_USB_DISK_TEST\BLE\ch57x_ble_uart_mrs_app_only_test\obj/../app/ff.c:1986
	if (seq > 5) {	/* In case of many collisions, generate a hash number instead of sequential number */
    1a70:	002b      	movs	r3, r5
    1a72:	2d05      	cmp	r5, #5
    1a74:	d849      	bhi.n	1b0a <dir_register+0xf2>
    1a76:	2207      	movs	r2, #7
C:\Users\alon\Desktop\github\iot-fan_at_cnblogs\CH577_CH578_CH579\AN\CH579EVT_USB_DISK_TEST\BLE\ch57x_ble_uart_mrs_app_only_test\obj/../app/ff.c:2002
		c = (BYTE)((seq % 16) + '0');
    1a78:	260f      	movs	r6, #15
C:\Users\alon\Desktop\github\iot-fan_at_cnblogs\CH577_CH578_CH579\AN\CH579EVT_USB_DISK_TEST\BLE\ch57x_ble_uart_mrs_app_only_test\obj/../app/ff.c:2004
		ns[i--] = c;
    1a7a:	a805      	add	r0, sp, #20
C:\Users\alon\Desktop\github\iot-fan_at_cnblogs\CH577_CH578_CH579\AN\CH579EVT_USB_DISK_TEST\BLE\ch57x_ble_uart_mrs_app_only_test\obj/../app/ff.c:2002
		c = (BYTE)((seq % 16) + '0');
    1a7c:	001c      	movs	r4, r3
    1a7e:	4034      	ands	r4, r6
    1a80:	0021      	movs	r1, r4
    1a82:	3130      	adds	r1, #48	; 0x30
C:\Users\alon\Desktop\github\iot-fan_at_cnblogs\CH577_CH578_CH579\AN\CH579EVT_USB_DISK_TEST\BLE\ch57x_ble_uart_mrs_app_only_test\obj/../app/ff.c:2003
		if (c > '9') c += 7;
    1a84:	2939      	cmp	r1, #57	; 0x39
    1a86:	d900      	bls.n	1a8a <dir_register+0x72>
    1a88:	3107      	adds	r1, #7
C:\Users\alon\Desktop\github\iot-fan_at_cnblogs\CH577_CH578_CH579\AN\CH579EVT_USB_DISK_TEST\BLE\ch57x_ble_uart_mrs_app_only_test\obj/../app/ff.c:2004
		ns[i--] = c;
    1a8a:	3a01      	subs	r2, #1
    1a8c:	1814      	adds	r4, r2, r0
    1a8e:	7061      	strb	r1, [r4, #1]
C:\Users\alon\Desktop\github\iot-fan_at_cnblogs\CH577_CH578_CH579\AN\CH579EVT_USB_DISK_TEST\BLE\ch57x_ble_uart_mrs_app_only_test\obj/../app/ff.c:2005
		seq /= 16;
    1a90:	0919      	lsrs	r1, r3, #4
C:\Users\alon\Desktop\github\iot-fan_at_cnblogs\CH577_CH578_CH579\AN\CH579EVT_USB_DISK_TEST\BLE\ch57x_ble_uart_mrs_app_only_test\obj/../app/ff.c:2006
	} while (seq);
    1a92:	2b0f      	cmp	r3, #15
    1a94:	d83b      	bhi.n	1b0e <dir_register+0xf6>
C:\Users\alon\Desktop\github\iot-fan_at_cnblogs\CH577_CH578_CH579\AN\CH579EVT_USB_DISK_TEST\BLE\ch57x_ble_uart_mrs_app_only_test\obj/../app/ff.c:2007
	ns[i] = '~';
    1a96:	237e      	movs	r3, #126	; 0x7e
C:\Users\alon\Desktop\github\iot-fan_at_cnblogs\CH577_CH578_CH579\AN\CH579EVT_USB_DISK_TEST\BLE\ch57x_ble_uart_mrs_app_only_test\obj/../app/ff.c:2010
	for (j = 0; j < i && dst[j] != ' '; j++) {
    1a98:	003c      	movs	r4, r7
C:\Users\alon\Desktop\github\iot-fan_at_cnblogs\CH577_CH578_CH579\AN\CH579EVT_USB_DISK_TEST\BLE\ch57x_ble_uart_mrs_app_only_test\obj/../app/ff.c:2007
	ns[i] = '~';
    1a9a:	5483      	strb	r3, [r0, r2]
C:\Users\alon\Desktop\github\iot-fan_at_cnblogs\CH577_CH578_CH579\AN\CH579EVT_USB_DISK_TEST\BLE\ch57x_ble_uart_mrs_app_only_test\obj/../app/ff.c:2010
	for (j = 0; j < i && dst[j] != ' '; j++) {
    1a9c:	2300      	movs	r3, #0
    1a9e:	341f      	adds	r4, #31
    1aa0:	429a      	cmp	r2, r3
    1aa2:	d003      	beq.n	1aac <dir_register+0x94>
    1aa4:	1c59      	adds	r1, r3, #1
    1aa6:	5c60      	ldrb	r0, [r4, r1]
    1aa8:	2820      	cmp	r0, #32
    1aaa:	d132      	bne.n	1b12 <dir_register+0xfa>
C:\Users\alon\Desktop\github\iot-fan_at_cnblogs\CH577_CH578_CH579\AN\CH579EVT_USB_DISK_TEST\BLE\ch57x_ble_uart_mrs_app_only_test\obj/../app/ff.c:2017
		dst[j++] = (i < 8) ? ns[i++] : ' ';
    1aac:	0038      	movs	r0, r7
    1aae:	2420      	movs	r4, #32
    1ab0:	ae05      	add	r6, sp, #20
    1ab2:	301f      	adds	r0, #31
    1ab4:	0021      	movs	r1, r4
    1ab6:	2a07      	cmp	r2, #7
    1ab8:	d801      	bhi.n	1abe <dir_register+0xa6>
    1aba:	5cb1      	ldrb	r1, [r6, r2]
    1abc:	3201      	adds	r2, #1
    1abe:	3301      	adds	r3, #1
    1ac0:	54c1      	strb	r1, [r0, r3]
C:\Users\alon\Desktop\github\iot-fan_at_cnblogs\CH577_CH578_CH579\AN\CH579EVT_USB_DISK_TEST\BLE\ch57x_ble_uart_mrs_app_only_test\obj/../app/ff.c:2018
	} while (j < 8);
    1ac2:	2b07      	cmp	r3, #7
    1ac4:	d9f6      	bls.n	1ab4 <dir_register+0x9c>
dir_register():
C:\Users\alon\Desktop\github\iot-fan_at_cnblogs\CH577_CH578_CH579\AN\CH579EVT_USB_DISK_TEST\BLE\ch57x_ble_uart_mrs_app_only_test\obj/../app/ff.c:2533
			res = dir_find(dp);				/* Check if the name collides with existing SFN */
    1ac6:	0038      	movs	r0, r7
    1ac8:	f7ff feee 	bl	18a8 <dir_find>
    1acc:	1e04      	subs	r4, r0, #0
C:\Users\alon\Desktop\github\iot-fan_at_cnblogs\CH577_CH578_CH579\AN\CH579EVT_USB_DISK_TEST\BLE\ch57x_ble_uart_mrs_app_only_test\obj/../app/ff.c:2534
			if (res != FR_OK) break;
    1ace:	d12c      	bne.n	1b2a <dir_register+0x112>
C:\Users\alon\Desktop\github\iot-fan_at_cnblogs\CH577_CH578_CH579\AN\CH579EVT_USB_DISK_TEST\BLE\ch57x_ble_uart_mrs_app_only_test\obj/../app/ff.c:2531 (discriminator 2)
		for (n = 1; n < 100; n++) {
    1ad0:	3501      	adds	r5, #1
    1ad2:	2d64      	cmp	r5, #100	; 0x64
    1ad4:	d1c5      	bne.n	1a62 <dir_register+0x4a>
C:\Users\alon\Desktop\github\iot-fan_at_cnblogs\CH577_CH578_CH579\AN\CH579EVT_USB_DISK_TEST\BLE\ch57x_ble_uart_mrs_app_only_test\obj/../app/ff.c:2536
		if (n == 100) return FR_DENIED;		/* Abort if too many collisions */
    1ad6:	2407      	movs	r4, #7
C:\Users\alon\Desktop\github\iot-fan_at_cnblogs\CH577_CH578_CH579\AN\CH579EVT_USB_DISK_TEST\BLE\ch57x_ble_uart_mrs_app_only_test\obj/../app/ff.c:2577
}
    1ad8:	0020      	movs	r0, r4
    1ada:	b00b      	add	sp, #44	; 0x2c
    1adc:	bdf0      	pop	{r4, r5, r6, r7, pc}
C:\Users\alon\Desktop\github\iot-fan_at_cnblogs\CH577_CH578_CH579\AN\CH579EVT_USB_DISK_TEST\BLE\ch57x_ble_uart_mrs_app_only_test\obj/../app/ff.c:2494 (discriminator 3)
	for (nlen = 0; fs->lfnbuf[nlen]; nlen++) ;	/* Get lfn length */
    1ade:	9b02      	ldr	r3, [sp, #8]
    1ae0:	3301      	adds	r3, #1
    1ae2:	e7a8      	b.n	1a36 <dir_register+0x1e>
gen_numname():
C:\Users\alon\Desktop\github\iot-fan_at_cnblogs\CH577_CH578_CH579\AN\CH579EVT_USB_DISK_TEST\BLE\ch57x_ble_uart_mrs_app_only_test\obj/../app/ff.c:1989
			wc = *lfn++;
    1ae4:	2110      	movs	r1, #16
    1ae6:	3402      	adds	r4, #2
C:\Users\alon\Desktop\github\iot-fan_at_cnblogs\CH577_CH578_CH579\AN\CH579EVT_USB_DISK_TEST\BLE\ch57x_ble_uart_mrs_app_only_test\obj/../app/ff.c:1991
				sr = (sr << 1) + (wc & 1);
    1ae8:	2601      	movs	r6, #1
    1aea:	005b      	lsls	r3, r3, #1
    1aec:	4016      	ands	r6, r2
    1aee:	18f3      	adds	r3, r6, r3
C:\Users\alon\Desktop\github\iot-fan_at_cnblogs\CH577_CH578_CH579\AN\CH579EVT_USB_DISK_TEST\BLE\ch57x_ble_uart_mrs_app_only_test\obj/../app/ff.c:1993
				if (sr & 0x10000) sr ^= 0x11021;
    1af0:	2680      	movs	r6, #128	; 0x80
    1af2:	0276      	lsls	r6, r6, #9
C:\Users\alon\Desktop\github\iot-fan_at_cnblogs\CH577_CH578_CH579\AN\CH579EVT_USB_DISK_TEST\BLE\ch57x_ble_uart_mrs_app_only_test\obj/../app/ff.c:1992
				wc >>= 1;
    1af4:	0852      	lsrs	r2, r2, #1
C:\Users\alon\Desktop\github\iot-fan_at_cnblogs\CH577_CH578_CH579\AN\CH579EVT_USB_DISK_TEST\BLE\ch57x_ble_uart_mrs_app_only_test\obj/../app/ff.c:1993
				if (sr & 0x10000) sr ^= 0x11021;
    1af6:	4233      	tst	r3, r6
    1af8:	d000      	beq.n	1afc <dir_register+0xe4>
    1afa:	4043      	eors	r3, r0
C:\Users\alon\Desktop\github\iot-fan_at_cnblogs\CH577_CH578_CH579\AN\CH579EVT_USB_DISK_TEST\BLE\ch57x_ble_uart_mrs_app_only_test\obj/../app/ff.c:1990
			for (i = 0; i < 16; i++) {
    1afc:	3901      	subs	r1, #1
    1afe:	2900      	cmp	r1, #0
    1b00:	d1f2      	bne.n	1ae8 <dir_register+0xd0>
C:\Users\alon\Desktop\github\iot-fan_at_cnblogs\CH577_CH578_CH579\AN\CH579EVT_USB_DISK_TEST\BLE\ch57x_ble_uart_mrs_app_only_test\obj/../app/ff.c:1988
		while (*lfn) {	/* Create a CRC as hash value */
    1b02:	8822      	ldrh	r2, [r4, #0]
    1b04:	2a00      	cmp	r2, #0
    1b06:	d1ed      	bne.n	1ae4 <dir_register+0xcc>
    1b08:	e7b5      	b.n	1a76 <dir_register+0x5e>
C:\Users\alon\Desktop\github\iot-fan_at_cnblogs\CH577_CH578_CH579\AN\CH579EVT_USB_DISK_TEST\BLE\ch57x_ble_uart_mrs_app_only_test\obj/../app/ff.c:1993
				if (sr & 0x10000) sr ^= 0x11021;
    1b0a:	4856      	ldr	r0, [pc, #344]	; (1c64 <dir_register+0x24c>)
    1b0c:	e7f9      	b.n	1b02 <dir_register+0xea>
C:\Users\alon\Desktop\github\iot-fan_at_cnblogs\CH577_CH578_CH579\AN\CH579EVT_USB_DISK_TEST\BLE\ch57x_ble_uart_mrs_app_only_test\obj/../app/ff.c:2005
		seq /= 16;
    1b0e:	000b      	movs	r3, r1
    1b10:	e7b4      	b.n	1a7c <dir_register+0x64>
    1b12:	000b      	movs	r3, r1
    1b14:	e7c4      	b.n	1aa0 <dir_register+0x88>
dir_alloc():
C:\Users\alon\Desktop\github\iot-fan_at_cnblogs\CH577_CH578_CH579\AN\CH579EVT_USB_DISK_TEST\BLE\ch57x_ble_uart_mrs_app_only_test\obj/../app/ff.c:1804
				n = 0;					/* Not a blank entry. Restart to search */
    1b16:	0006      	movs	r6, r0
C:\Users\alon\Desktop\github\iot-fan_at_cnblogs\CH577_CH578_CH579\AN\CH579EVT_USB_DISK_TEST\BLE\ch57x_ble_uart_mrs_app_only_test\obj/../app/ff.c:1806
			res = dir_next(dp, 1);
    1b18:	2101      	movs	r1, #1
    1b1a:	0038      	movs	r0, r7
    1b1c:	f7ff fe6e 	bl	17fc <dir_next>
    1b20:	1e04      	subs	r4, r0, #0
C:\Users\alon\Desktop\github\iot-fan_at_cnblogs\CH577_CH578_CH579\AN\CH579EVT_USB_DISK_TEST\BLE\ch57x_ble_uart_mrs_app_only_test\obj/../app/ff.c:1807
		} while (res == FR_OK);	/* Next entry with table stretch enabled */
    1b22:	d01d      	beq.n	1b60 <dir_register+0x148>
C:\Users\alon\Desktop\github\iot-fan_at_cnblogs\CH577_CH578_CH579\AN\CH579EVT_USB_DISK_TEST\BLE\ch57x_ble_uart_mrs_app_only_test\obj/../app/ff.c:1810
	if (res == FR_NO_FILE) res = FR_DENIED;	/* No directory entry to allocate */
    1b24:	2c04      	cmp	r4, #4
    1b26:	d0d6      	beq.n	1ad6 <dir_register+0xbe>
    1b28:	e7d6      	b.n	1ad8 <dir_register+0xc0>
dir_register():
C:\Users\alon\Desktop\github\iot-fan_at_cnblogs\CH577_CH578_CH579\AN\CH579EVT_USB_DISK_TEST\BLE\ch57x_ble_uart_mrs_app_only_test\obj/../app/ff.c:2537
		if (res != FR_NO_FILE) return res;	/* Abort if the result is other than 'not collided' */
    1b2a:	2804      	cmp	r0, #4
    1b2c:	d1d4      	bne.n	1ad8 <dir_register+0xc0>
C:\Users\alon\Desktop\github\iot-fan_at_cnblogs\CH577_CH578_CH579\AN\CH579EVT_USB_DISK_TEST\BLE\ch57x_ble_uart_mrs_app_only_test\obj/../app/ff.c:2538
		dp->fn[NSFLAG] = sn[NSFLAG];
    1b2e:	ab07      	add	r3, sp, #28
    1b30:	7ada      	ldrb	r2, [r3, #11]
    1b32:	003b      	movs	r3, r7
    1b34:	332b      	adds	r3, #43	; 0x2b
    1b36:	701a      	strb	r2, [r3, #0]
C:\Users\alon\Desktop\github\iot-fan_at_cnblogs\CH577_CH578_CH579\AN\CH579EVT_USB_DISK_TEST\BLE\ch57x_ble_uart_mrs_app_only_test\obj/../app/ff.c:2542
	nent = (sn[NSFLAG] & NS_LFN) ? (nlen + 12) / 13 + 1 : 1;	/* Number of entries to allocate */
    1b38:	ab07      	add	r3, sp, #28
    1b3a:	7adb      	ldrb	r3, [r3, #11]
    1b3c:	2501      	movs	r5, #1
    1b3e:	079b      	lsls	r3, r3, #30
    1b40:	d505      	bpl.n	1b4e <dir_register+0x136>
C:\Users\alon\Desktop\github\iot-fan_at_cnblogs\CH577_CH578_CH579\AN\CH579EVT_USB_DISK_TEST\BLE\ch57x_ble_uart_mrs_app_only_test\obj/../app/ff.c:2542 (discriminator 1)
    1b42:	9802      	ldr	r0, [sp, #8]
    1b44:	210d      	movs	r1, #13
    1b46:	300c      	adds	r0, #12
    1b48:	f7fe fac0 	bl	cc <__udivsi3>
    1b4c:	1945      	adds	r5, r0, r5
dir_alloc():
C:\Users\alon\Desktop\github\iot-fan_at_cnblogs\CH577_CH578_CH579\AN\CH579EVT_USB_DISK_TEST\BLE\ch57x_ble_uart_mrs_app_only_test\obj/../app/ff.c:1788 (discriminator 4)
	FATFS *fs = dp->obj.fs;
    1b4e:	683b      	ldr	r3, [r7, #0]
C:\Users\alon\Desktop\github\iot-fan_at_cnblogs\CH577_CH578_CH579\AN\CH579EVT_USB_DISK_TEST\BLE\ch57x_ble_uart_mrs_app_only_test\obj/../app/ff.c:1791 (discriminator 4)
	res = dir_sdi(dp, 0);
    1b50:	2100      	movs	r1, #0
    1b52:	0038      	movs	r0, r7
C:\Users\alon\Desktop\github\iot-fan_at_cnblogs\CH577_CH578_CH579\AN\CH579EVT_USB_DISK_TEST\BLE\ch57x_ble_uart_mrs_app_only_test\obj/../app/ff.c:1788 (discriminator 4)
	FATFS *fs = dp->obj.fs;
    1b54:	9302      	str	r3, [sp, #8]
C:\Users\alon\Desktop\github\iot-fan_at_cnblogs\CH577_CH578_CH579\AN\CH579EVT_USB_DISK_TEST\BLE\ch57x_ble_uart_mrs_app_only_test\obj/../app/ff.c:1791 (discriminator 4)
	res = dir_sdi(dp, 0);
    1b56:	f7ff fd05 	bl	1564 <dir_sdi>
    1b5a:	1e04      	subs	r4, r0, #0
C:\Users\alon\Desktop\github\iot-fan_at_cnblogs\CH577_CH578_CH579\AN\CH579EVT_USB_DISK_TEST\BLE\ch57x_ble_uart_mrs_app_only_test\obj/../app/ff.c:1792 (discriminator 4)
	if (res == FR_OK) {
    1b5c:	d1e2      	bne.n	1b24 <dir_register+0x10c>
C:\Users\alon\Desktop\github\iot-fan_at_cnblogs\CH577_CH578_CH579\AN\CH579EVT_USB_DISK_TEST\BLE\ch57x_ble_uart_mrs_app_only_test\obj/../app/ff.c:1793
		n = 0;
    1b5e:	0006      	movs	r6, r0
C:\Users\alon\Desktop\github\iot-fan_at_cnblogs\CH577_CH578_CH579\AN\CH579EVT_USB_DISK_TEST\BLE\ch57x_ble_uart_mrs_app_only_test\obj/../app/ff.c:1795
			res = move_window(fs, dp->sect);
    1b60:	69b9      	ldr	r1, [r7, #24]
    1b62:	9802      	ldr	r0, [sp, #8]
    1b64:	f7ff fa3c 	bl	fe0 <move_window>
    1b68:	1e04      	subs	r4, r0, #0
C:\Users\alon\Desktop\github\iot-fan_at_cnblogs\CH577_CH578_CH579\AN\CH579EVT_USB_DISK_TEST\BLE\ch57x_ble_uart_mrs_app_only_test\obj/../app/ff.c:1796
			if (res != FR_OK) break;
    1b6a:	d1db      	bne.n	1b24 <dir_register+0x10c>
C:\Users\alon\Desktop\github\iot-fan_at_cnblogs\CH577_CH578_CH579\AN\CH579EVT_USB_DISK_TEST\BLE\ch57x_ble_uart_mrs_app_only_test\obj/../app/ff.c:1800
			if (dp->dir[DIR_Name] == DDEM || dp->dir[DIR_Name] == 0) {
    1b6c:	69fb      	ldr	r3, [r7, #28]
    1b6e:	781b      	ldrb	r3, [r3, #0]
    1b70:	2be5      	cmp	r3, #229	; 0xe5
    1b72:	d001      	beq.n	1b78 <dir_register+0x160>
    1b74:	2b00      	cmp	r3, #0
    1b76:	d1ce      	bne.n	1b16 <dir_register+0xfe>
C:\Users\alon\Desktop\github\iot-fan_at_cnblogs\CH577_CH578_CH579\AN\CH579EVT_USB_DISK_TEST\BLE\ch57x_ble_uart_mrs_app_only_test\obj/../app/ff.c:1802
				if (++n == nent) break;	/* A block of contiguous free entries is found */
    1b78:	3601      	adds	r6, #1
    1b7a:	42b5      	cmp	r5, r6
    1b7c:	d1cc      	bne.n	1b18 <dir_register+0x100>
dir_register():
C:\Users\alon\Desktop\github\iot-fan_at_cnblogs\CH577_CH578_CH579\AN\CH579EVT_USB_DISK_TEST\BLE\ch57x_ble_uart_mrs_app_only_test\obj/../app/ff.c:2544
	if (res == FR_OK && --nent) {	/* Set LFN entry if needed */
    1b7e:	1e6e      	subs	r6, r5, #1
    1b80:	2d01      	cmp	r5, #1
    1b82:	d054      	beq.n	1c2e <dir_register+0x216>
C:\Users\alon\Desktop\github\iot-fan_at_cnblogs\CH577_CH578_CH579\AN\CH579EVT_USB_DISK_TEST\BLE\ch57x_ble_uart_mrs_app_only_test\obj/../app/ff.c:2545
		res = dir_sdi(dp, dp->dptr - nent * SZDIRE);
    1b84:	693b      	ldr	r3, [r7, #16]
    1b86:	0171      	lsls	r1, r6, #5
    1b88:	0038      	movs	r0, r7
    1b8a:	1a59      	subs	r1, r3, r1
    1b8c:	f7ff fcea 	bl	1564 <dir_sdi>
    1b90:	1e04      	subs	r4, r0, #0
C:\Users\alon\Desktop\github\iot-fan_at_cnblogs\CH577_CH578_CH579\AN\CH579EVT_USB_DISK_TEST\BLE\ch57x_ble_uart_mrs_app_only_test\obj/../app/ff.c:2546
		if (res == FR_OK) {
    1b92:	d1a1      	bne.n	1ad8 <dir_register+0xc0>
C:\Users\alon\Desktop\github\iot-fan_at_cnblogs\CH577_CH578_CH579\AN\CH579EVT_USB_DISK_TEST\BLE\ch57x_ble_uart_mrs_app_only_test\obj/../app/ff.c:2547
			sum = sum_sfn(dp->fn);	/* Checksum value of the SFN tied to the LFN */
    1b94:	9801      	ldr	r0, [sp, #4]
    1b96:	f7ff f995 	bl	ec4 <sum_sfn>
    1b9a:	9003      	str	r0, [sp, #12]
C:\Users\alon\Desktop\github\iot-fan_at_cnblogs\CH577_CH578_CH579\AN\CH579EVT_USB_DISK_TEST\BLE\ch57x_ble_uart_mrs_app_only_test\obj/../app/ff.c:2549
				res = move_window(fs, dp->sect);
    1b9c:	69b9      	ldr	r1, [r7, #24]
    1b9e:	9800      	ldr	r0, [sp, #0]
    1ba0:	f7ff fa1e 	bl	fe0 <move_window>
    1ba4:	1e04      	subs	r4, r0, #0
C:\Users\alon\Desktop\github\iot-fan_at_cnblogs\CH577_CH578_CH579\AN\CH579EVT_USB_DISK_TEST\BLE\ch57x_ble_uart_mrs_app_only_test\obj/../app/ff.c:2550
				if (res != FR_OK) break;
    1ba6:	d000      	beq.n	1baa <dir_register+0x192>
    1ba8:	e796      	b.n	1ad8 <dir_register+0xc0>
C:\Users\alon\Desktop\github\iot-fan_at_cnblogs\CH577_CH578_CH579\AN\CH579EVT_USB_DISK_TEST\BLE\ch57x_ble_uart_mrs_app_only_test\obj/../app/ff.c:2551
				put_lfn(fs->lfnbuf, dp->dir, (BYTE)nent, sum);
    1baa:	9b00      	ldr	r3, [sp, #0]
    1bac:	69fa      	ldr	r2, [r7, #28]
    1bae:	68db      	ldr	r3, [r3, #12]
put_lfn():
C:\Users\alon\Desktop\github\iot-fan_at_cnblogs\CH577_CH578_CH579\AN\CH579EVT_USB_DISK_TEST\BLE\ch57x_ble_uart_mrs_app_only_test\obj/../app/ff.c:1950
	i = (ord - 1) * 13;				/* Get offset in the LFN working buffer */
    1bb0:	210d      	movs	r1, #13
dir_register():
C:\Users\alon\Desktop\github\iot-fan_at_cnblogs\CH577_CH578_CH579\AN\CH579EVT_USB_DISK_TEST\BLE\ch57x_ble_uart_mrs_app_only_test\obj/../app/ff.c:2551
				put_lfn(fs->lfnbuf, dp->dir, (BYTE)nent, sum);
    1bb2:	469c      	mov	ip, r3
    1bb4:	b2f3      	uxtb	r3, r6
    1bb6:	9302      	str	r3, [sp, #8]
put_lfn():
C:\Users\alon\Desktop\github\iot-fan_at_cnblogs\CH577_CH578_CH579\AN\CH579EVT_USB_DISK_TEST\BLE\ch57x_ble_uart_mrs_app_only_test\obj/../app/ff.c:1945
	dir[LDIR_Chksum] = sum;			/* Set checksum */
    1bb8:	9b03      	ldr	r3, [sp, #12]
C:\Users\alon\Desktop\github\iot-fan_at_cnblogs\CH577_CH578_CH579\AN\CH579EVT_USB_DISK_TEST\BLE\ch57x_ble_uart_mrs_app_only_test\obj/../app/ff.c:1947
	dir[LDIR_Type] = 0;
    1bba:	7310      	strb	r0, [r2, #12]
C:\Users\alon\Desktop\github\iot-fan_at_cnblogs\CH577_CH578_CH579\AN\CH579EVT_USB_DISK_TEST\BLE\ch57x_ble_uart_mrs_app_only_test\obj/../app/ff.c:1945
	dir[LDIR_Chksum] = sum;			/* Set checksum */
    1bbc:	7353      	strb	r3, [r2, #13]
C:\Users\alon\Desktop\github\iot-fan_at_cnblogs\CH577_CH578_CH579\AN\CH579EVT_USB_DISK_TEST\BLE\ch57x_ble_uart_mrs_app_only_test\obj/../app/ff.c:1946
	dir[LDIR_Attr] = AM_LFN;		/* Set attribute. LFN entry */
    1bbe:	230f      	movs	r3, #15
    1bc0:	72d3      	strb	r3, [r2, #11]
C:\Users\alon\Desktop\github\iot-fan_at_cnblogs\CH577_CH578_CH579\AN\CH579EVT_USB_DISK_TEST\BLE\ch57x_ble_uart_mrs_app_only_test\obj/../app/ff.c:1950
	i = (ord - 1) * 13;				/* Get offset in the LFN working buffer */
    1bc2:	33f0      	adds	r3, #240	; 0xf0
    1bc4:	4033      	ands	r3, r6
    1bc6:	3b01      	subs	r3, #1
    1bc8:	434b      	muls	r3, r1
C:\Users\alon\Desktop\github\iot-fan_at_cnblogs\CH577_CH578_CH579\AN\CH579EVT_USB_DISK_TEST\BLE\ch57x_ble_uart_mrs_app_only_test\obj/../app/ff.c:1951
	s = wc = 0;
    1bca:	0001      	movs	r1, r0
st_word():
C:\Users\alon\Desktop\github\iot-fan_at_cnblogs\CH577_CH578_CH579\AN\CH579EVT_USB_DISK_TEST\BLE\ch57x_ble_uart_mrs_app_only_test\obj/../app/ff.c:610
	*ptr++ = (BYTE)val; val >>= 8;
    1bcc:	7690      	strb	r0, [r2, #26]
C:\Users\alon\Desktop\github\iot-fan_at_cnblogs\CH577_CH578_CH579\AN\CH579EVT_USB_DISK_TEST\BLE\ch57x_ble_uart_mrs_app_only_test\obj/../app/ff.c:611
	*ptr++ = (BYTE)val;
    1bce:	76d0      	strb	r0, [r2, #27]
put_lfn():
C:\Users\alon\Desktop\github\iot-fan_at_cnblogs\CH577_CH578_CH579\AN\CH579EVT_USB_DISK_TEST\BLE\ch57x_ble_uart_mrs_app_only_test\obj/../app/ff.c:1953
		if (wc != 0xFFFF) wc = lfn[i++];	/* Get an effective character */
    1bd0:	4c25      	ldr	r4, [pc, #148]	; (1c68 <dir_register+0x250>)
    1bd2:	42a0      	cmp	r0, r4
    1bd4:	d003      	beq.n	1bde <dir_register+0x1c6>
    1bd6:	4664      	mov	r4, ip
    1bd8:	0058      	lsls	r0, r3, #1
    1bda:	5b00      	ldrh	r0, [r0, r4]
    1bdc:	3301      	adds	r3, #1
C:\Users\alon\Desktop\github\iot-fan_at_cnblogs\CH577_CH578_CH579\AN\CH579EVT_USB_DISK_TEST\BLE\ch57x_ble_uart_mrs_app_only_test\obj/../app/ff.c:1954
		st_word(dir + LfnOfs[s], wc);		/* Put it */
    1bde:	4c23      	ldr	r4, [pc, #140]	; (1c6c <dir_register+0x254>)
    1be0:	5d0c      	ldrb	r4, [r1, r4]
    1be2:	1914      	adds	r4, r2, r4
    1be4:	0025      	movs	r5, r4
st_word():
C:\Users\alon\Desktop\github\iot-fan_at_cnblogs\CH577_CH578_CH579\AN\CH579EVT_USB_DISK_TEST\BLE\ch57x_ble_uart_mrs_app_only_test\obj/../app/ff.c:610
	*ptr++ = (BYTE)val; val >>= 8;
    1be6:	7020      	strb	r0, [r4, #0]
    1be8:	0a04      	lsrs	r4, r0, #8
C:\Users\alon\Desktop\github\iot-fan_at_cnblogs\CH577_CH578_CH579\AN\CH579EVT_USB_DISK_TEST\BLE\ch57x_ble_uart_mrs_app_only_test\obj/../app/ff.c:611
	*ptr++ = (BYTE)val;
    1bea:	706c      	strb	r4, [r5, #1]
put_lfn():
C:\Users\alon\Desktop\github\iot-fan_at_cnblogs\CH577_CH578_CH579\AN\CH579EVT_USB_DISK_TEST\BLE\ch57x_ble_uart_mrs_app_only_test\obj/../app/ff.c:1955
		if (wc == 0) wc = 0xFFFF;		/* Padding characters for left locations */
    1bec:	2800      	cmp	r0, #0
    1bee:	d100      	bne.n	1bf2 <dir_register+0x1da>
    1bf0:	481d      	ldr	r0, [pc, #116]	; (1c68 <dir_register+0x250>)
C:\Users\alon\Desktop\github\iot-fan_at_cnblogs\CH577_CH578_CH579\AN\CH579EVT_USB_DISK_TEST\BLE\ch57x_ble_uart_mrs_app_only_test\obj/../app/ff.c:1956
	} while (++s < 13);
    1bf2:	3101      	adds	r1, #1
    1bf4:	290d      	cmp	r1, #13
    1bf6:	d1eb      	bne.n	1bd0 <dir_register+0x1b8>
C:\Users\alon\Desktop\github\iot-fan_at_cnblogs\CH577_CH578_CH579\AN\CH579EVT_USB_DISK_TEST\BLE\ch57x_ble_uart_mrs_app_only_test\obj/../app/ff.c:1957
	if (wc == 0xFFFF || !lfn[i]) ord |= LLEF;	/* Last LFN part is the start of LFN sequence */
    1bf8:	491b      	ldr	r1, [pc, #108]	; (1c68 <dir_register+0x250>)
    1bfa:	4288      	cmp	r0, r1
    1bfc:	d004      	beq.n	1c08 <dir_register+0x1f0>
    1bfe:	4661      	mov	r1, ip
    1c00:	005b      	lsls	r3, r3, #1
    1c02:	5a5b      	ldrh	r3, [r3, r1]
    1c04:	2b00      	cmp	r3, #0
    1c06:	d103      	bne.n	1c10 <dir_register+0x1f8>
    1c08:	2340      	movs	r3, #64	; 0x40
    1c0a:	9902      	ldr	r1, [sp, #8]
    1c0c:	4319      	orrs	r1, r3
    1c0e:	9102      	str	r1, [sp, #8]
C:\Users\alon\Desktop\github\iot-fan_at_cnblogs\CH577_CH578_CH579\AN\CH579EVT_USB_DISK_TEST\BLE\ch57x_ble_uart_mrs_app_only_test\obj/../app/ff.c:1958
	dir[LDIR_Ord] = ord;			/* Set the LFN order */
    1c10:	9b02      	ldr	r3, [sp, #8]
dir_register():
C:\Users\alon\Desktop\github\iot-fan_at_cnblogs\CH577_CH578_CH579\AN\CH579EVT_USB_DISK_TEST\BLE\ch57x_ble_uart_mrs_app_only_test\obj/../app/ff.c:2553
				res = dir_next(dp, 0);	/* Next entry */
    1c12:	2100      	movs	r1, #0
put_lfn():
C:\Users\alon\Desktop\github\iot-fan_at_cnblogs\CH577_CH578_CH579\AN\CH579EVT_USB_DISK_TEST\BLE\ch57x_ble_uart_mrs_app_only_test\obj/../app/ff.c:1958
	dir[LDIR_Ord] = ord;			/* Set the LFN order */
    1c14:	7013      	strb	r3, [r2, #0]
dir_register():
C:\Users\alon\Desktop\github\iot-fan_at_cnblogs\CH577_CH578_CH579\AN\CH579EVT_USB_DISK_TEST\BLE\ch57x_ble_uart_mrs_app_only_test\obj/../app/ff.c:2552
				fs->wflag = 1;
    1c16:	2301      	movs	r3, #1
    1c18:	9a00      	ldr	r2, [sp, #0]
C:\Users\alon\Desktop\github\iot-fan_at_cnblogs\CH577_CH578_CH579\AN\CH579EVT_USB_DISK_TEST\BLE\ch57x_ble_uart_mrs_app_only_test\obj/../app/ff.c:2553
				res = dir_next(dp, 0);	/* Next entry */
    1c1a:	0038      	movs	r0, r7
C:\Users\alon\Desktop\github\iot-fan_at_cnblogs\CH577_CH578_CH579\AN\CH579EVT_USB_DISK_TEST\BLE\ch57x_ble_uart_mrs_app_only_test\obj/../app/ff.c:2552
				fs->wflag = 1;
    1c1c:	70d3      	strb	r3, [r2, #3]
C:\Users\alon\Desktop\github\iot-fan_at_cnblogs\CH577_CH578_CH579\AN\CH579EVT_USB_DISK_TEST\BLE\ch57x_ble_uart_mrs_app_only_test\obj/../app/ff.c:2553
				res = dir_next(dp, 0);	/* Next entry */
    1c1e:	f7ff fded 	bl	17fc <dir_next>
    1c22:	1e04      	subs	r4, r0, #0
C:\Users\alon\Desktop\github\iot-fan_at_cnblogs\CH577_CH578_CH579\AN\CH579EVT_USB_DISK_TEST\BLE\ch57x_ble_uart_mrs_app_only_test\obj/../app/ff.c:2554
			} while (res == FR_OK && --nent);
    1c24:	d000      	beq.n	1c28 <dir_register+0x210>
    1c26:	e757      	b.n	1ad8 <dir_register+0xc0>
C:\Users\alon\Desktop\github\iot-fan_at_cnblogs\CH577_CH578_CH579\AN\CH579EVT_USB_DISK_TEST\BLE\ch57x_ble_uart_mrs_app_only_test\obj/../app/ff.c:2554 (discriminator 1)
    1c28:	3e01      	subs	r6, #1
    1c2a:	2e00      	cmp	r6, #0
    1c2c:	d1b6      	bne.n	1b9c <dir_register+0x184>
C:\Users\alon\Desktop\github\iot-fan_at_cnblogs\CH577_CH578_CH579\AN\CH579EVT_USB_DISK_TEST\BLE\ch57x_ble_uart_mrs_app_only_test\obj/../app/ff.c:2565
		res = move_window(fs, dp->sect);
    1c2e:	69b9      	ldr	r1, [r7, #24]
    1c30:	9800      	ldr	r0, [sp, #0]
    1c32:	f7ff f9d5 	bl	fe0 <move_window>
    1c36:	1e04      	subs	r4, r0, #0
C:\Users\alon\Desktop\github\iot-fan_at_cnblogs\CH577_CH578_CH579\AN\CH579EVT_USB_DISK_TEST\BLE\ch57x_ble_uart_mrs_app_only_test\obj/../app/ff.c:2566
		if (res == FR_OK) {
    1c38:	d000      	beq.n	1c3c <dir_register+0x224>
    1c3a:	e74d      	b.n	1ad8 <dir_register+0xc0>
C:\Users\alon\Desktop\github\iot-fan_at_cnblogs\CH577_CH578_CH579\AN\CH579EVT_USB_DISK_TEST\BLE\ch57x_ble_uart_mrs_app_only_test\obj/../app/ff.c:2567
			mem_set(dp->dir, 0, SZDIRE);	/* Clean the entry */
    1c3c:	0001      	movs	r1, r0
    1c3e:	2220      	movs	r2, #32
    1c40:	69f8      	ldr	r0, [r7, #28]
    1c42:	f7ff f920 	bl	e86 <mem_set>
mem_cpy():
C:\Users\alon\Desktop\github\iot-fan_at_cnblogs\CH577_CH578_CH579\AN\CH579EVT_USB_DISK_TEST\BLE\ch57x_ble_uart_mrs_app_only_test\obj/../app/ff.c:649
	if (cnt != 0) {
    1c46:	220b      	movs	r2, #11
    1c48:	9901      	ldr	r1, [sp, #4]
    1c4a:	69f8      	ldr	r0, [r7, #28]
    1c4c:	f7ff f980 	bl	f50 <mem_cpy.part.0>
dir_register():
C:\Users\alon\Desktop\github\iot-fan_at_cnblogs\CH577_CH578_CH579\AN\CH579EVT_USB_DISK_TEST\BLE\ch57x_ble_uart_mrs_app_only_test\obj/../app/ff.c:2570
			dp->dir[DIR_NTres] = dp->fn[NSFLAG] & (NS_BODY | NS_EXT);	/* Put NT flag */
    1c50:	2118      	movs	r1, #24
    1c52:	69fa      	ldr	r2, [r7, #28]
    1c54:	372b      	adds	r7, #43	; 0x2b
    1c56:	783b      	ldrb	r3, [r7, #0]
    1c58:	400b      	ands	r3, r1
    1c5a:	7313      	strb	r3, [r2, #12]
C:\Users\alon\Desktop\github\iot-fan_at_cnblogs\CH577_CH578_CH579\AN\CH579EVT_USB_DISK_TEST\BLE\ch57x_ble_uart_mrs_app_only_test\obj/../app/ff.c:2572
			fs->wflag = 1;
    1c5c:	2301      	movs	r3, #1
    1c5e:	9a00      	ldr	r2, [sp, #0]
    1c60:	70d3      	strb	r3, [r2, #3]
    1c62:	e739      	b.n	1ad8 <dir_register+0xc0>
    1c64:	00011021 	.word	0x00011021
    1c68:	0000ffff 	.word	0x0000ffff
    1c6c:	00004c8a 	.word	0x00004c8a

00001c70 <sync_fs>:
sync_fs():
C:\Users\alon\Desktop\github\iot-fan_at_cnblogs\CH577_CH578_CH579\AN\CH579EVT_USB_DISK_TEST\BLE\ch57x_ble_uart_mrs_app_only_test\obj/../app/ff.c:1088
{
    1c70:	b5f8      	push	{r3, r4, r5, r6, r7, lr}
    1c72:	0004      	movs	r4, r0
C:\Users\alon\Desktop\github\iot-fan_at_cnblogs\CH577_CH578_CH579\AN\CH579EVT_USB_DISK_TEST\BLE\ch57x_ble_uart_mrs_app_only_test\obj/../app/ff.c:1092
	res = sync_window(fs);
    1c74:	f7ff f98f 	bl	f96 <sync_window>
    1c78:	1e05      	subs	r5, r0, #0
C:\Users\alon\Desktop\github\iot-fan_at_cnblogs\CH577_CH578_CH579\AN\CH579EVT_USB_DISK_TEST\BLE\ch57x_ble_uart_mrs_app_only_test\obj/../app/ff.c:1093
	if (res == FR_OK) {
    1c7a:	d145      	bne.n	1d08 <sync_fs+0x98>
C:\Users\alon\Desktop\github\iot-fan_at_cnblogs\CH577_CH578_CH579\AN\CH579EVT_USB_DISK_TEST\BLE\ch57x_ble_uart_mrs_app_only_test\obj/../app/ff.c:1094
		if (fs->fs_type == FS_FAT32 && fs->fsi_flag == 1) {	/* FAT32: Update FSInfo sector if needed */
    1c7c:	7823      	ldrb	r3, [r4, #0]
    1c7e:	2b03      	cmp	r3, #3
    1c80:	d13a      	bne.n	1cf8 <sync_fs+0x88>
    1c82:	7927      	ldrb	r7, [r4, #4]
    1c84:	2f01      	cmp	r7, #1
    1c86:	d137      	bne.n	1cf8 <sync_fs+0x88>
C:\Users\alon\Desktop\github\iot-fan_at_cnblogs\CH577_CH578_CH579\AN\CH579EVT_USB_DISK_TEST\BLE\ch57x_ble_uart_mrs_app_only_test\obj/../app/ff.c:1096
			mem_set(fs->win, 0, SS(fs));
    1c88:	0026      	movs	r6, r4
    1c8a:	2280      	movs	r2, #128	; 0x80
    1c8c:	3634      	adds	r6, #52	; 0x34
    1c8e:	0001      	movs	r1, r0
    1c90:	0152      	lsls	r2, r2, #5
    1c92:	0030      	movs	r0, r6
    1c94:	f7ff f8f7 	bl	e86 <mem_set>
st_word():
C:\Users\alon\Desktop\github\iot-fan_at_cnblogs\CH577_CH578_CH579\AN\CH579EVT_USB_DISK_TEST\BLE\ch57x_ble_uart_mrs_app_only_test\obj/../app/ff.c:610
	*ptr++ = (BYTE)val; val >>= 8;
    1c98:	2255      	movs	r2, #85	; 0x55
    1c9a:	4b1c      	ldr	r3, [pc, #112]	; (1d0c <sync_fs+0x9c>)
st_dword():
C:\Users\alon\Desktop\github\iot-fan_at_cnblogs\CH577_CH578_CH579\AN\CH579EVT_USB_DISK_TEST\BLE\ch57x_ble_uart_mrs_app_only_test\obj/../app/ff.c:619
	*ptr++ = (BYTE)val;
    1c9c:	2141      	movs	r1, #65	; 0x41
st_word():
C:\Users\alon\Desktop\github\iot-fan_at_cnblogs\CH577_CH578_CH579\AN\CH579EVT_USB_DISK_TEST\BLE\ch57x_ble_uart_mrs_app_only_test\obj/../app/ff.c:610
	*ptr++ = (BYTE)val; val >>= 8;
    1c9e:	54e2      	strb	r2, [r4, r3]
C:\Users\alon\Desktop\github\iot-fan_at_cnblogs\CH577_CH578_CH579\AN\CH579EVT_USB_DISK_TEST\BLE\ch57x_ble_uart_mrs_app_only_test\obj/../app/ff.c:611
	*ptr++ = (BYTE)val;
    1ca0:	4b1b      	ldr	r3, [pc, #108]	; (1d10 <sync_fs+0xa0>)
    1ca2:	1892      	adds	r2, r2, r2
    1ca4:	54e2      	strb	r2, [r4, r3]
st_dword():
C:\Users\alon\Desktop\github\iot-fan_at_cnblogs\CH577_CH578_CH579\AN\CH579EVT_USB_DISK_TEST\BLE\ch57x_ble_uart_mrs_app_only_test\obj/../app/ff.c:617
	*ptr++ = (BYTE)val; val >>= 8;
    1ca6:	0022      	movs	r2, r4
C:\Users\alon\Desktop\github\iot-fan_at_cnblogs\CH577_CH578_CH579\AN\CH579EVT_USB_DISK_TEST\BLE\ch57x_ble_uart_mrs_app_only_test\obj/../app/ff.c:616
	*ptr++ = (BYTE)val; val >>= 8;
    1ca8:	3be2      	subs	r3, #226	; 0xe2
    1caa:	3bff      	subs	r3, #255	; 0xff
C:\Users\alon\Desktop\github\iot-fan_at_cnblogs\CH577_CH578_CH579\AN\CH579EVT_USB_DISK_TEST\BLE\ch57x_ble_uart_mrs_app_only_test\obj/../app/ff.c:617
	*ptr++ = (BYTE)val; val >>= 8;
    1cac:	3235      	adds	r2, #53	; 0x35
C:\Users\alon\Desktop\github\iot-fan_at_cnblogs\CH577_CH578_CH579\AN\CH579EVT_USB_DISK_TEST\BLE\ch57x_ble_uart_mrs_app_only_test\obj/../app/ff.c:616
	*ptr++ = (BYTE)val; val >>= 8;
    1cae:	7033      	strb	r3, [r6, #0]
C:\Users\alon\Desktop\github\iot-fan_at_cnblogs\CH577_CH578_CH579\AN\CH579EVT_USB_DISK_TEST\BLE\ch57x_ble_uart_mrs_app_only_test\obj/../app/ff.c:617
	*ptr++ = (BYTE)val; val >>= 8;
    1cb0:	7013      	strb	r3, [r2, #0]
C:\Users\alon\Desktop\github\iot-fan_at_cnblogs\CH577_CH578_CH579\AN\CH579EVT_USB_DISK_TEST\BLE\ch57x_ble_uart_mrs_app_only_test\obj/../app/ff.c:618
	*ptr++ = (BYTE)val; val >>= 8;
    1cb2:	0023      	movs	r3, r4
    1cb4:	2261      	movs	r2, #97	; 0x61
    1cb6:	3336      	adds	r3, #54	; 0x36
C:\Users\alon\Desktop\github\iot-fan_at_cnblogs\CH577_CH578_CH579\AN\CH579EVT_USB_DISK_TEST\BLE\ch57x_ble_uart_mrs_app_only_test\obj/../app/ff.c:616
	*ptr++ = (BYTE)val; val >>= 8;
    1cb8:	2086      	movs	r0, #134	; 0x86
C:\Users\alon\Desktop\github\iot-fan_at_cnblogs\CH577_CH578_CH579\AN\CH579EVT_USB_DISK_TEST\BLE\ch57x_ble_uart_mrs_app_only_test\obj/../app/ff.c:618
	*ptr++ = (BYTE)val; val >>= 8;
    1cba:	701a      	strb	r2, [r3, #0]
C:\Users\alon\Desktop\github\iot-fan_at_cnblogs\CH577_CH578_CH579\AN\CH579EVT_USB_DISK_TEST\BLE\ch57x_ble_uart_mrs_app_only_test\obj/../app/ff.c:619
	*ptr++ = (BYTE)val;
    1cbc:	7059      	strb	r1, [r3, #1]
C:\Users\alon\Desktop\github\iot-fan_at_cnblogs\CH577_CH578_CH579\AN\CH579EVT_USB_DISK_TEST\BLE\ch57x_ble_uart_mrs_app_only_test\obj/../app/ff.c:616
	*ptr++ = (BYTE)val; val >>= 8;
    1cbe:	2372      	movs	r3, #114	; 0x72
    1cc0:	0080      	lsls	r0, r0, #2
    1cc2:	5423      	strb	r3, [r4, r0]
C:\Users\alon\Desktop\github\iot-fan_at_cnblogs\CH577_CH578_CH579\AN\CH579EVT_USB_DISK_TEST\BLE\ch57x_ble_uart_mrs_app_only_test\obj/../app/ff.c:617
	*ptr++ = (BYTE)val; val >>= 8;
    1cc4:	4813      	ldr	r0, [pc, #76]	; (1d14 <sync_fs+0xa4>)
    1cc6:	5423      	strb	r3, [r4, r0]
C:\Users\alon\Desktop\github\iot-fan_at_cnblogs\CH577_CH578_CH579\AN\CH579EVT_USB_DISK_TEST\BLE\ch57x_ble_uart_mrs_app_only_test\obj/../app/ff.c:618
	*ptr++ = (BYTE)val; val >>= 8;
    1cc8:	4b13      	ldr	r3, [pc, #76]	; (1d18 <sync_fs+0xa8>)
    1cca:	54e1      	strb	r1, [r4, r3]
C:\Users\alon\Desktop\github\iot-fan_at_cnblogs\CH577_CH578_CH579\AN\CH579EVT_USB_DISK_TEST\BLE\ch57x_ble_uart_mrs_app_only_test\obj/../app/ff.c:619
	*ptr++ = (BYTE)val;
    1ccc:	4b13      	ldr	r3, [pc, #76]	; (1d1c <sync_fs+0xac>)
    1cce:	54e2      	strb	r2, [r4, r3]
sync_fs():
C:\Users\alon\Desktop\github\iot-fan_at_cnblogs\CH577_CH578_CH579\AN\CH579EVT_USB_DISK_TEST\BLE\ch57x_ble_uart_mrs_app_only_test\obj/../app/ff.c:1100
			st_dword(fs->win + FSI_Free_Count, fs->free_clst);
    1cd0:	3301      	adds	r3, #1
    1cd2:	18e0      	adds	r0, r4, r3
    1cd4:	6961      	ldr	r1, [r4, #20]
    1cd6:	f7ff f8ce 	bl	e76 <st_dword>
C:\Users\alon\Desktop\github\iot-fan_at_cnblogs\CH577_CH578_CH579\AN\CH579EVT_USB_DISK_TEST\BLE\ch57x_ble_uart_mrs_app_only_test\obj/../app/ff.c:1101
			st_dword(fs->win + FSI_Nxt_Free, fs->last_clst);
    1cda:	2388      	movs	r3, #136	; 0x88
    1cdc:	009b      	lsls	r3, r3, #2
    1cde:	18e0      	adds	r0, r4, r3
    1ce0:	6921      	ldr	r1, [r4, #16]
    1ce2:	f7ff f8c8 	bl	e76 <st_dword>
C:\Users\alon\Desktop\github\iot-fan_at_cnblogs\CH577_CH578_CH579\AN\CH579EVT_USB_DISK_TEST\BLE\ch57x_ble_uart_mrs_app_only_test\obj/../app/ff.c:1103
			fs->winsect = fs->volbase + 1;
    1ce6:	6a23      	ldr	r3, [r4, #32]
C:\Users\alon\Desktop\github\iot-fan_at_cnblogs\CH577_CH578_CH579\AN\CH579EVT_USB_DISK_TEST\BLE\ch57x_ble_uart_mrs_app_only_test\obj/../app/ff.c:1104
			disk_write(fs->pdrv, fs->win, fs->winsect, 1);
    1ce8:	0031      	movs	r1, r6
C:\Users\alon\Desktop\github\iot-fan_at_cnblogs\CH577_CH578_CH579\AN\CH579EVT_USB_DISK_TEST\BLE\ch57x_ble_uart_mrs_app_only_test\obj/../app/ff.c:1103
			fs->winsect = fs->volbase + 1;
    1cea:	1c5a      	adds	r2, r3, #1
C:\Users\alon\Desktop\github\iot-fan_at_cnblogs\CH577_CH578_CH579\AN\CH579EVT_USB_DISK_TEST\BLE\ch57x_ble_uart_mrs_app_only_test\obj/../app/ff.c:1104
			disk_write(fs->pdrv, fs->win, fs->winsect, 1);
    1cec:	7860      	ldrb	r0, [r4, #1]
    1cee:	003b      	movs	r3, r7
C:\Users\alon\Desktop\github\iot-fan_at_cnblogs\CH577_CH578_CH579\AN\CH579EVT_USB_DISK_TEST\BLE\ch57x_ble_uart_mrs_app_only_test\obj/../app/ff.c:1103
			fs->winsect = fs->volbase + 1;
    1cf0:	6322      	str	r2, [r4, #48]	; 0x30
C:\Users\alon\Desktop\github\iot-fan_at_cnblogs\CH577_CH578_CH579\AN\CH579EVT_USB_DISK_TEST\BLE\ch57x_ble_uart_mrs_app_only_test\obj/../app/ff.c:1104
			disk_write(fs->pdrv, fs->win, fs->winsect, 1);
    1cf2:	f7ff f89b 	bl	e2c <disk_write>
C:\Users\alon\Desktop\github\iot-fan_at_cnblogs\CH577_CH578_CH579\AN\CH579EVT_USB_DISK_TEST\BLE\ch57x_ble_uart_mrs_app_only_test\obj/../app/ff.c:1105
			fs->fsi_flag = 0;
    1cf6:	7125      	strb	r5, [r4, #4]
C:\Users\alon\Desktop\github\iot-fan_at_cnblogs\CH577_CH578_CH579\AN\CH579EVT_USB_DISK_TEST\BLE\ch57x_ble_uart_mrs_app_only_test\obj/../app/ff.c:1108
		if (disk_ioctl(fs->pdrv, CTRL_SYNC, 0) != RES_OK) res = FR_DISK_ERR;
    1cf8:	2200      	movs	r2, #0
    1cfa:	7860      	ldrb	r0, [r4, #1]
    1cfc:	0011      	movs	r1, r2
    1cfe:	f7ff f823 	bl	d48 <disk_ioctl>
    1d02:	1e43      	subs	r3, r0, #1
    1d04:	4198      	sbcs	r0, r3
C:\Users\alon\Desktop\github\iot-fan_at_cnblogs\CH577_CH578_CH579\AN\CH579EVT_USB_DISK_TEST\BLE\ch57x_ble_uart_mrs_app_only_test\obj/../app/ff.c:1092
	res = sync_window(fs);
    1d06:	b2c0      	uxtb	r0, r0
C:\Users\alon\Desktop\github\iot-fan_at_cnblogs\CH577_CH578_CH579\AN\CH579EVT_USB_DISK_TEST\BLE\ch57x_ble_uart_mrs_app_only_test\obj/../app/ff.c:1112
}
    1d08:	bdf8      	pop	{r3, r4, r5, r6, r7, pc}
    1d0a:	46c0      	nop			; (mov r8, r8)
    1d0c:	00000232 	.word	0x00000232
    1d10:	00000233 	.word	0x00000233
    1d14:	00000219 	.word	0x00000219
    1d18:	0000021a 	.word	0x0000021a
    1d1c:	0000021b 	.word	0x0000021b

00001d20 <follow_path>:
follow_path():
C:\Users\alon\Desktop\github\iot-fan_at_cnblogs\CH577_CH578_CH579\AN\CH579EVT_USB_DISK_TEST\BLE\ch57x_ble_uart_mrs_app_only_test\obj/../app/ff.c:3017
{
    1d20:	b5f0      	push	{r4, r5, r6, r7, lr}
    1d22:	0006      	movs	r6, r0
C:\Users\alon\Desktop\github\iot-fan_at_cnblogs\CH577_CH578_CH579\AN\CH579EVT_USB_DISK_TEST\BLE\ch57x_ble_uart_mrs_app_only_test\obj/../app/ff.c:3020
	FATFS *fs = dp->obj.fs;
    1d24:	6803      	ldr	r3, [r0, #0]
C:\Users\alon\Desktop\github\iot-fan_at_cnblogs\CH577_CH578_CH579\AN\CH579EVT_USB_DISK_TEST\BLE\ch57x_ble_uart_mrs_app_only_test\obj/../app/ff.c:3017
{
    1d26:	b089      	sub	sp, #36	; 0x24
    1d28:	9104      	str	r1, [sp, #16]
C:\Users\alon\Desktop\github\iot-fan_at_cnblogs\CH577_CH578_CH579\AN\CH579EVT_USB_DISK_TEST\BLE\ch57x_ble_uart_mrs_app_only_test\obj/../app/ff.c:3020
	FATFS *fs = dp->obj.fs;
    1d2a:	9307      	str	r3, [sp, #28]
C:\Users\alon\Desktop\github\iot-fan_at_cnblogs\CH577_CH578_CH579\AN\CH579EVT_USB_DISK_TEST\BLE\ch57x_ble_uart_mrs_app_only_test\obj/../app/ff.c:3029 (discriminator 1)
		while (*path == '/' || *path == '\\') path++;	/* Strip heading separator */
    1d2c:	9b04      	ldr	r3, [sp, #16]
    1d2e:	781b      	ldrb	r3, [r3, #0]
    1d30:	b25b      	sxtb	r3, r3
    1d32:	2b2f      	cmp	r3, #47	; 0x2f
    1d34:	d011      	beq.n	1d5a <follow_path+0x3a>
C:\Users\alon\Desktop\github\iot-fan_at_cnblogs\CH577_CH578_CH579\AN\CH579EVT_USB_DISK_TEST\BLE\ch57x_ble_uart_mrs_app_only_test\obj/../app/ff.c:3029 (discriminator 3)
    1d36:	2b5c      	cmp	r3, #92	; 0x5c
    1d38:	d00f      	beq.n	1d5a <follow_path+0x3a>
C:\Users\alon\Desktop\github\iot-fan_at_cnblogs\CH577_CH578_CH579\AN\CH579EVT_USB_DISK_TEST\BLE\ch57x_ble_uart_mrs_app_only_test\obj/../app/ff.c:3030
		dp->obj.sclust = 0;					/* Start from root directory */
    1d3a:	2100      	movs	r1, #0
C:\Users\alon\Desktop\github\iot-fan_at_cnblogs\CH577_CH578_CH579\AN\CH579EVT_USB_DISK_TEST\BLE\ch57x_ble_uart_mrs_app_only_test\obj/../app/ff.c:3049
	if ((UINT)*path < ' ') {				/* Null path name is the origin directory itself */
    1d3c:	9b04      	ldr	r3, [sp, #16]
C:\Users\alon\Desktop\github\iot-fan_at_cnblogs\CH577_CH578_CH579\AN\CH579EVT_USB_DISK_TEST\BLE\ch57x_ble_uart_mrs_app_only_test\obj/../app/ff.c:3030
		dp->obj.sclust = 0;					/* Start from root directory */
    1d3e:	60b1      	str	r1, [r6, #8]
C:\Users\alon\Desktop\github\iot-fan_at_cnblogs\CH577_CH578_CH579\AN\CH579EVT_USB_DISK_TEST\BLE\ch57x_ble_uart_mrs_app_only_test\obj/../app/ff.c:3049
	if ((UINT)*path < ' ') {				/* Null path name is the origin directory itself */
    1d40:	781b      	ldrb	r3, [r3, #0]
    1d42:	2b1f      	cmp	r3, #31
    1d44:	d900      	bls.n	1d48 <follow_path+0x28>
    1d46:	e0e8      	b.n	1f1a <follow_path+0x1fa>
C:\Users\alon\Desktop\github\iot-fan_at_cnblogs\CH577_CH578_CH579\AN\CH579EVT_USB_DISK_TEST\BLE\ch57x_ble_uart_mrs_app_only_test\obj/../app/ff.c:3050
		dp->fn[NSFLAG] = NS_NONAME;
    1d48:	0033      	movs	r3, r6
    1d4a:	2280      	movs	r2, #128	; 0x80
    1d4c:	332b      	adds	r3, #43	; 0x2b
C:\Users\alon\Desktop\github\iot-fan_at_cnblogs\CH577_CH578_CH579\AN\CH579EVT_USB_DISK_TEST\BLE\ch57x_ble_uart_mrs_app_only_test\obj/../app/ff.c:3051
		res = dir_sdi(dp, 0);
    1d4e:	0030      	movs	r0, r6
C:\Users\alon\Desktop\github\iot-fan_at_cnblogs\CH577_CH578_CH579\AN\CH579EVT_USB_DISK_TEST\BLE\ch57x_ble_uart_mrs_app_only_test\obj/../app/ff.c:3050
		dp->fn[NSFLAG] = NS_NONAME;
    1d50:	701a      	strb	r2, [r3, #0]
C:\Users\alon\Desktop\github\iot-fan_at_cnblogs\CH577_CH578_CH579\AN\CH579EVT_USB_DISK_TEST\BLE\ch57x_ble_uart_mrs_app_only_test\obj/../app/ff.c:3051
		res = dir_sdi(dp, 0);
    1d52:	f7ff fc07 	bl	1564 <dir_sdi>
C:\Users\alon\Desktop\github\iot-fan_at_cnblogs\CH577_CH578_CH579\AN\CH579EVT_USB_DISK_TEST\BLE\ch57x_ble_uart_mrs_app_only_test\obj/../app/ff.c:3091
}
    1d56:	b009      	add	sp, #36	; 0x24
    1d58:	bdf0      	pop	{r4, r5, r6, r7, pc}
C:\Users\alon\Desktop\github\iot-fan_at_cnblogs\CH577_CH578_CH579\AN\CH579EVT_USB_DISK_TEST\BLE\ch57x_ble_uart_mrs_app_only_test\obj/../app/ff.c:3029 (discriminator 4)
		while (*path == '/' || *path == '\\') path++;	/* Strip heading separator */
    1d5a:	9b04      	ldr	r3, [sp, #16]
    1d5c:	3301      	adds	r3, #1
    1d5e:	9304      	str	r3, [sp, #16]
    1d60:	e7e4      	b.n	1d2c <follow_path+0xc>
create_name():
C:\Users\alon\Desktop\github\iot-fan_at_cnblogs\CH577_CH578_CH579\AN\CH579EVT_USB_DISK_TEST\BLE\ch57x_ble_uart_mrs_app_only_test\obj/../app/ff.c:2837
		if (wc < 0x80 && chk_chr("\"*:<>\?|\x7F", wc)) return FR_INVALID_NAME;	/* Reject illegal characters for LFN */
    1d62:	287f      	cmp	r0, #127	; 0x7f
    1d64:	d80a      	bhi.n	1d7c <follow_path+0x5c>
    1d66:	4ba5      	ldr	r3, [pc, #660]	; (1ffc <follow_path+0x2dc>)
    1d68:	e000      	b.n	1d6c <follow_path+0x4c>
chk_chr():
C:\Users\alon\Desktop\github\iot-fan_at_cnblogs\CH577_CH578_CH579\AN\CH579EVT_USB_DISK_TEST\BLE\ch57x_ble_uart_mrs_app_only_test\obj/../app/ff.c:685
	while (*str && *str != chr) str++;
    1d6a:	3301      	adds	r3, #1
    1d6c:	2200      	movs	r2, #0
    1d6e:	569a      	ldrsb	r2, [r3, r2]
    1d70:	2a00      	cmp	r2, #0
    1d72:	d003      	beq.n	1d7c <follow_path+0x5c>
    1d74:	4290      	cmp	r0, r2
    1d76:	d1f8      	bne.n	1d6a <follow_path+0x4a>
create_name():
C:\Users\alon\Desktop\github\iot-fan_at_cnblogs\CH577_CH578_CH579\AN\CH579EVT_USB_DISK_TEST\BLE\ch57x_ble_uart_mrs_app_only_test\obj/../app/ff.c:2882
				break;
    1d78:	2006      	movs	r0, #6
    1d7a:	e7ec      	b.n	1d56 <follow_path+0x36>
C:\Users\alon\Desktop\github\iot-fan_at_cnblogs\CH577_CH578_CH579\AN\CH579EVT_USB_DISK_TEST\BLE\ch57x_ble_uart_mrs_app_only_test\obj/../app/ff.c:2838
		if (di >= FF_MAX_LFN) return FR_INVALID_NAME;	/* Reject too long name */
    1d7c:	2dff      	cmp	r5, #255	; 0xff
    1d7e:	d0fb      	beq.n	1d78 <follow_path+0x58>
C:\Users\alon\Desktop\github\iot-fan_at_cnblogs\CH577_CH578_CH579\AN\CH579EVT_USB_DISK_TEST\BLE\ch57x_ble_uart_mrs_app_only_test\obj/../app/ff.c:2839
		lfn[di++] = wc;					/* Store the Unicode character */
    1d80:	9a05      	ldr	r2, [sp, #20]
    1d82:	006b      	lsls	r3, r5, #1
    1d84:	52d0      	strh	r0, [r2, r3]
C:\Users\alon\Desktop\github\iot-fan_at_cnblogs\CH577_CH578_CH579\AN\CH579EVT_USB_DISK_TEST\BLE\ch57x_ble_uart_mrs_app_only_test\obj/../app/ff.c:2831
	for (;;) {
    1d86:	3501      	adds	r5, #1
C:\Users\alon\Desktop\github\iot-fan_at_cnblogs\CH577_CH578_CH579\AN\CH579EVT_USB_DISK_TEST\BLE\ch57x_ble_uart_mrs_app_only_test\obj/../app/ff.c:2832
		uc = tchar2uni(&p);			/* Get a character */
    1d88:	e0cb      	b.n	1f22 <follow_path+0x202>
C:\Users\alon\Desktop\github\iot-fan_at_cnblogs\CH577_CH578_CH579\AN\CH579EVT_USB_DISK_TEST\BLE\ch57x_ble_uart_mrs_app_only_test\obj/../app/ff.c:2841
	while (*p == '/' || *p == '\\') p++;	/* Skip duplicated separators if exist */
    1d8a:	9a04      	ldr	r2, [sp, #16]
    1d8c:	3201      	adds	r2, #1
    1d8e:	9204      	str	r2, [sp, #16]
    1d90:	e0dd      	b.n	1f4e <follow_path+0x22e>
C:\Users\alon\Desktop\github\iot-fan_at_cnblogs\CH577_CH578_CH579\AN\CH579EVT_USB_DISK_TEST\BLE\ch57x_ble_uart_mrs_app_only_test\obj/../app/ff.c:2857
		wc = lfn[di - 1];
    1d92:	5a8b      	ldrh	r3, [r1, r2]
C:\Users\alon\Desktop\github\iot-fan_at_cnblogs\CH577_CH578_CH579\AN\CH579EVT_USB_DISK_TEST\BLE\ch57x_ble_uart_mrs_app_only_test\obj/../app/ff.c:2858
		if (wc != ' ' && wc != '.') break;
    1d94:	2b20      	cmp	r3, #32
    1d96:	d002      	beq.n	1d9e <follow_path+0x7e>
    1d98:	2b2e      	cmp	r3, #46	; 0x2e
    1d9a:	d000      	beq.n	1d9e <follow_path+0x7e>
    1d9c:	e0ea      	b.n	1f74 <follow_path+0x254>
C:\Users\alon\Desktop\github\iot-fan_at_cnblogs\CH577_CH578_CH579\AN\CH579EVT_USB_DISK_TEST\BLE\ch57x_ble_uart_mrs_app_only_test\obj/../app/ff.c:2859
		di--;
    1d9e:	3d01      	subs	r5, #1
    1da0:	e0e4      	b.n	1f6c <follow_path+0x24c>
C:\Users\alon\Desktop\github\iot-fan_at_cnblogs\CH577_CH578_CH579\AN\CH579EVT_USB_DISK_TEST\BLE\ch57x_ble_uart_mrs_app_only_test\obj/../app/ff.c:2879
		if (i >= ni || si == di) {		/* End of field? */
    1da2:	9b02      	ldr	r3, [sp, #8]
    1da4:	9a03      	ldr	r2, [sp, #12]
    1da6:	4293      	cmp	r3, r2
    1da8:	d206      	bcs.n	1db8 <follow_path+0x98>
    1daa:	9b06      	ldr	r3, [sp, #24]
    1dac:	42ab      	cmp	r3, r5
    1dae:	d153      	bne.n	1e58 <follow_path+0x138>
C:\Users\alon\Desktop\github\iot-fan_at_cnblogs\CH577_CH578_CH579\AN\CH579EVT_USB_DISK_TEST\BLE\ch57x_ble_uart_mrs_app_only_test\obj/../app/ff.c:2880
			if (ni == 11) {				/* Name extension overflow? */
    1db0:	9b03      	ldr	r3, [sp, #12]
    1db2:	2b0b      	cmp	r3, #11
    1db4:	d146      	bne.n	1e44 <follow_path+0x124>
    1db6:	e002      	b.n	1dbe <follow_path+0x9e>
    1db8:	9b03      	ldr	r3, [sp, #12]
    1dba:	2b0b      	cmp	r3, #11
    1dbc:	d13a      	bne.n	1e34 <follow_path+0x114>
C:\Users\alon\Desktop\github\iot-fan_at_cnblogs\CH577_CH578_CH579\AN\CH579EVT_USB_DISK_TEST\BLE\ch57x_ble_uart_mrs_app_only_test\obj/../app/ff.c:2881
				cf |= NS_LOSS | NS_LFN;
    1dbe:	2303      	movs	r3, #3
    1dc0:	431c      	orrs	r4, r3
C:\Users\alon\Desktop\github\iot-fan_at_cnblogs\CH577_CH578_CH579\AN\CH579EVT_USB_DISK_TEST\BLE\ch57x_ble_uart_mrs_app_only_test\obj/../app/ff.c:2882
				break;
    1dc2:	3308      	adds	r3, #8
    1dc4:	9303      	str	r3, [sp, #12]
C:\Users\alon\Desktop\github\iot-fan_at_cnblogs\CH577_CH578_CH579\AN\CH579EVT_USB_DISK_TEST\BLE\ch57x_ble_uart_mrs_app_only_test\obj/../app/ff.c:2928
	if (dp->fn[0] == DDEM) dp->fn[0] = RDDEM;	/* If the first character collides with DDEM, replace it with RDDEM */
    1dc6:	1c73      	adds	r3, r6, #1
    1dc8:	7fda      	ldrb	r2, [r3, #31]
    1dca:	2ae5      	cmp	r2, #229	; 0xe5
    1dcc:	d101      	bne.n	1dd2 <follow_path+0xb2>
    1dce:	3ae0      	subs	r2, #224	; 0xe0
    1dd0:	77da      	strb	r2, [r3, #31]
C:\Users\alon\Desktop\github\iot-fan_at_cnblogs\CH577_CH578_CH579\AN\CH579EVT_USB_DISK_TEST\BLE\ch57x_ble_uart_mrs_app_only_test\obj/../app/ff.c:2930
	if (ni == 8) b <<= 2;				/* Shift capital flags if no extension */
    1dd2:	9b03      	ldr	r3, [sp, #12]
    1dd4:	2b08      	cmp	r3, #8
    1dd6:	d103      	bne.n	1de0 <follow_path+0xc0>
    1dd8:	9b01      	ldr	r3, [sp, #4]
    1dda:	009b      	lsls	r3, r3, #2
    1ddc:	b2db      	uxtb	r3, r3
    1dde:	9301      	str	r3, [sp, #4]
C:\Users\alon\Desktop\github\iot-fan_at_cnblogs\CH577_CH578_CH579\AN\CH579EVT_USB_DISK_TEST\BLE\ch57x_ble_uart_mrs_app_only_test\obj/../app/ff.c:2931
	if ((b & 0x0C) == 0x0C || (b & 0x03) == 0x03) cf |= NS_LFN;	/* LFN entry needs to be created if composite capitals */
    1de0:	230c      	movs	r3, #12
    1de2:	9a01      	ldr	r2, [sp, #4]
    1de4:	4013      	ands	r3, r2
    1de6:	2b0c      	cmp	r3, #12
    1de8:	d004      	beq.n	1df4 <follow_path+0xd4>
    1dea:	0013      	movs	r3, r2
    1dec:	2203      	movs	r2, #3
    1dee:	4013      	ands	r3, r2
    1df0:	4293      	cmp	r3, r2
    1df2:	d101      	bne.n	1df8 <follow_path+0xd8>
    1df4:	2302      	movs	r3, #2
    1df6:	431c      	orrs	r4, r3
C:\Users\alon\Desktop\github\iot-fan_at_cnblogs\CH577_CH578_CH579\AN\CH579EVT_USB_DISK_TEST\BLE\ch57x_ble_uart_mrs_app_only_test\obj/../app/ff.c:2932
	if (!(cf & NS_LFN)) {				/* When LFN is in 8.3 format without extended character, NT flags are created */
    1df8:	07a3      	lsls	r3, r4, #30
    1dfa:	d40a      	bmi.n	1e12 <follow_path+0xf2>
C:\Users\alon\Desktop\github\iot-fan_at_cnblogs\CH577_CH578_CH579\AN\CH579EVT_USB_DISK_TEST\BLE\ch57x_ble_uart_mrs_app_only_test\obj/../app/ff.c:2933
		if (b & 0x01) cf |= NS_EXT;		/* NT flag (Extension has small capital letters only) */
    1dfc:	9b01      	ldr	r3, [sp, #4]
    1dfe:	07db      	lsls	r3, r3, #31
    1e00:	d501      	bpl.n	1e06 <follow_path+0xe6>
    1e02:	2310      	movs	r3, #16
    1e04:	431c      	orrs	r4, r3
C:\Users\alon\Desktop\github\iot-fan_at_cnblogs\CH577_CH578_CH579\AN\CH579EVT_USB_DISK_TEST\BLE\ch57x_ble_uart_mrs_app_only_test\obj/../app/ff.c:2934
		if (b & 0x04) cf |= NS_BODY;	/* NT flag (Body has small capital letters only) */
    1e06:	2204      	movs	r2, #4
    1e08:	9b01      	ldr	r3, [sp, #4]
    1e0a:	4213      	tst	r3, r2
    1e0c:	d001      	beq.n	1e12 <follow_path+0xf2>
    1e0e:	2308      	movs	r3, #8
    1e10:	431c      	orrs	r4, r3
C:\Users\alon\Desktop\github\iot-fan_at_cnblogs\CH577_CH578_CH579\AN\CH579EVT_USB_DISK_TEST\BLE\ch57x_ble_uart_mrs_app_only_test\obj/../app/ff.c:2937
	dp->fn[NSFLAG] = cf;	/* SFN is created into dp->fn[] */
    1e12:	0035      	movs	r5, r6
    1e14:	352b      	adds	r5, #43	; 0x2b
follow_path():
C:\Users\alon\Desktop\github\iot-fan_at_cnblogs\CH577_CH578_CH579\AN\CH579EVT_USB_DISK_TEST\BLE\ch57x_ble_uart_mrs_app_only_test\obj/../app/ff.c:3057
			res = dir_find(dp);				/* Find an object with the segment name */
    1e16:	0030      	movs	r0, r6
create_name():
C:\Users\alon\Desktop\github\iot-fan_at_cnblogs\CH577_CH578_CH579\AN\CH579EVT_USB_DISK_TEST\BLE\ch57x_ble_uart_mrs_app_only_test\obj/../app/ff.c:2937
	dp->fn[NSFLAG] = cf;	/* SFN is created into dp->fn[] */
    1e18:	702c      	strb	r4, [r5, #0]
follow_path():
C:\Users\alon\Desktop\github\iot-fan_at_cnblogs\CH577_CH578_CH579\AN\CH579EVT_USB_DISK_TEST\BLE\ch57x_ble_uart_mrs_app_only_test\obj/../app/ff.c:3057
			res = dir_find(dp);				/* Find an object with the segment name */
    1e1a:	f7ff fd45 	bl	18a8 <dir_find>
C:\Users\alon\Desktop\github\iot-fan_at_cnblogs\CH577_CH578_CH579\AN\CH579EVT_USB_DISK_TEST\BLE\ch57x_ble_uart_mrs_app_only_test\obj/../app/ff.c:3058
			ns = dp->fn[NSFLAG];
    1e1e:	782b      	ldrb	r3, [r5, #0]
C:\Users\alon\Desktop\github\iot-fan_at_cnblogs\CH577_CH578_CH579\AN\CH579EVT_USB_DISK_TEST\BLE\ch57x_ble_uart_mrs_app_only_test\obj/../app/ff.c:3059
			if (res != FR_OK) {				/* Failed to find the object */
    1e20:	2800      	cmp	r0, #0
    1e22:	d068      	beq.n	1ef6 <follow_path+0x1d6>
C:\Users\alon\Desktop\github\iot-fan_at_cnblogs\CH577_CH578_CH579\AN\CH579EVT_USB_DISK_TEST\BLE\ch57x_ble_uart_mrs_app_only_test\obj/../app/ff.c:3060
				if (res == FR_NO_FILE) {	/* Object is not found */
    1e24:	2804      	cmp	r0, #4
    1e26:	d000      	beq.n	1e2a <follow_path+0x10a>
    1e28:	e795      	b.n	1d56 <follow_path+0x36>
C:\Users\alon\Desktop\github\iot-fan_at_cnblogs\CH577_CH578_CH579\AN\CH579EVT_USB_DISK_TEST\BLE\ch57x_ble_uart_mrs_app_only_test\obj/../app/ff.c:3066
						if (!(ns & NS_LAST)) res = FR_NO_PATH;	/* Adjust error code if not last segment */
    1e2a:	4203      	tst	r3, r0
    1e2c:	d000      	beq.n	1e30 <follow_path+0x110>
    1e2e:	e792      	b.n	1d56 <follow_path+0x36>
    1e30:	3001      	adds	r0, #1
    1e32:	e790      	b.n	1d56 <follow_path+0x36>
create_name():
C:\Users\alon\Desktop\github\iot-fan_at_cnblogs\CH577_CH578_CH579\AN\CH579EVT_USB_DISK_TEST\BLE\ch57x_ble_uart_mrs_app_only_test\obj/../app/ff.c:2884
			if (si != di) cf |= NS_LOSS | NS_LFN;	/* Name body overflow? */
    1e34:	9b06      	ldr	r3, [sp, #24]
    1e36:	42ab      	cmp	r3, r5
    1e38:	d004      	beq.n	1e44 <follow_path+0x124>
    1e3a:	2303      	movs	r3, #3
    1e3c:	431c      	orrs	r4, r3
C:\Users\alon\Desktop\github\iot-fan_at_cnblogs\CH577_CH578_CH579\AN\CH579EVT_USB_DISK_TEST\BLE\ch57x_ble_uart_mrs_app_only_test\obj/../app/ff.c:2885
			if (si > di) break;						/* No name extension? */
    1e3e:	9b06      	ldr	r3, [sp, #24]
    1e40:	42ab      	cmp	r3, r5
    1e42:	d8c0      	bhi.n	1dc6 <follow_path+0xa6>
C:\Users\alon\Desktop\github\iot-fan_at_cnblogs\CH577_CH578_CH579\AN\CH579EVT_USB_DISK_TEST\BLE\ch57x_ble_uart_mrs_app_only_test\obj/../app/ff.c:2886
			si = di; i = 8; ni = 11; b <<= 2;		/* Enter name extension */
    1e44:	9b01      	ldr	r3, [sp, #4]
C:\Users\alon\Desktop\github\iot-fan_at_cnblogs\CH577_CH578_CH579\AN\CH579EVT_USB_DISK_TEST\BLE\ch57x_ble_uart_mrs_app_only_test\obj/../app/ff.c:2887
			continue;
    1e46:	9506      	str	r5, [sp, #24]
C:\Users\alon\Desktop\github\iot-fan_at_cnblogs\CH577_CH578_CH579\AN\CH579EVT_USB_DISK_TEST\BLE\ch57x_ble_uart_mrs_app_only_test\obj/../app/ff.c:2886
			si = di; i = 8; ni = 11; b <<= 2;		/* Enter name extension */
    1e48:	009b      	lsls	r3, r3, #2
    1e4a:	b2db      	uxtb	r3, r3
    1e4c:	9301      	str	r3, [sp, #4]
    1e4e:	230b      	movs	r3, #11
    1e50:	9303      	str	r3, [sp, #12]
    1e52:	3b03      	subs	r3, #3
C:\Users\alon\Desktop\github\iot-fan_at_cnblogs\CH577_CH578_CH579\AN\CH579EVT_USB_DISK_TEST\BLE\ch57x_ble_uart_mrs_app_only_test\obj/../app/ff.c:2925
		dp->fn[i++] = (BYTE)wc;
    1e54:	9302      	str	r3, [sp, #8]
    1e56:	e0c5      	b.n	1fe4 <follow_path+0x2c4>
C:\Users\alon\Desktop\github\iot-fan_at_cnblogs\CH577_CH578_CH579\AN\CH579EVT_USB_DISK_TEST\BLE\ch57x_ble_uart_mrs_app_only_test\obj/../app/ff.c:2890
		if (wc >= 0x80) {	/* Is this a non-ASCII character? */
    1e58:	287f      	cmp	r0, #127	; 0x7f
    1e5a:	d90e      	bls.n	1e7a <follow_path+0x15a>
C:\Users\alon\Desktop\github\iot-fan_at_cnblogs\CH577_CH578_CH579\AN\CH579EVT_USB_DISK_TEST\BLE\ch57x_ble_uart_mrs_app_only_test\obj/../app/ff.c:2900
			wc = ff_uni2oem(wc, CODEPAGE);			/* Unicode ==> ANSI/OEM code */
    1e5c:	21b6      	movs	r1, #182	; 0xb6
C:\Users\alon\Desktop\github\iot-fan_at_cnblogs\CH577_CH578_CH579\AN\CH579EVT_USB_DISK_TEST\BLE\ch57x_ble_uart_mrs_app_only_test\obj/../app/ff.c:2891
			cf |= NS_LFN;	/* LFN entry needs to be created */
    1e5e:	2702      	movs	r7, #2
C:\Users\alon\Desktop\github\iot-fan_at_cnblogs\CH577_CH578_CH579\AN\CH579EVT_USB_DISK_TEST\BLE\ch57x_ble_uart_mrs_app_only_test\obj/../app/ff.c:2900
			wc = ff_uni2oem(wc, CODEPAGE);			/* Unicode ==> ANSI/OEM code */
    1e60:	31ff      	adds	r1, #255	; 0xff
C:\Users\alon\Desktop\github\iot-fan_at_cnblogs\CH577_CH578_CH579\AN\CH579EVT_USB_DISK_TEST\BLE\ch57x_ble_uart_mrs_app_only_test\obj/../app/ff.c:2891
			cf |= NS_LFN;	/* LFN entry needs to be created */
    1e62:	4327      	orrs	r7, r4
C:\Users\alon\Desktop\github\iot-fan_at_cnblogs\CH577_CH578_CH579\AN\CH579EVT_USB_DISK_TEST\BLE\ch57x_ble_uart_mrs_app_only_test\obj/../app/ff.c:2900
			wc = ff_uni2oem(wc, CODEPAGE);			/* Unicode ==> ANSI/OEM code */
    1e64:	f000 fea2 	bl	2bac <ff_uni2oem>
C:\Users\alon\Desktop\github\iot-fan_at_cnblogs\CH577_CH578_CH579\AN\CH579EVT_USB_DISK_TEST\BLE\ch57x_ble_uart_mrs_app_only_test\obj/../app/ff.c:2901
			if (wc & 0x80) wc = ExCvt[wc & 0x7F];	/* Convert extended character to upper (SBCS) */
    1e68:	0603      	lsls	r3, r0, #24
    1e6a:	d511      	bpl.n	1e90 <follow_path+0x170>
    1e6c:	237f      	movs	r3, #127	; 0x7f
    1e6e:	4018      	ands	r0, r3
    1e70:	4b63      	ldr	r3, [pc, #396]	; (2000 <follow_path+0x2e0>)
    1e72:	5c18      	ldrb	r0, [r3, r0]
C:\Users\alon\Desktop\github\iot-fan_at_cnblogs\CH577_CH578_CH579\AN\CH579EVT_USB_DISK_TEST\BLE\ch57x_ble_uart_mrs_app_only_test\obj/../app/ff.c:2914
			if (wc == 0 || chk_chr("+,;=[]", wc)) {	/* Replace illegal characters for SFN if needed */
    1e74:	003c      	movs	r4, r7
    1e76:	2800      	cmp	r0, #0
    1e78:	d006      	beq.n	1e88 <follow_path+0x168>
chk_chr():
C:\Users\alon\Desktop\github\iot-fan_at_cnblogs\CH577_CH578_CH579\AN\CH579EVT_USB_DISK_TEST\BLE\ch57x_ble_uart_mrs_app_only_test\obj/../app/ff.c:685
	while (*str && *str != chr) str++;
    1e7a:	4b62      	ldr	r3, [pc, #392]	; (2004 <follow_path+0x2e4>)
    1e7c:	2200      	movs	r2, #0
    1e7e:	569a      	ldrsb	r2, [r3, r2]
    1e80:	2a00      	cmp	r2, #0
    1e82:	d022      	beq.n	1eca <follow_path+0x1aa>
    1e84:	4290      	cmp	r0, r2
    1e86:	d11e      	bne.n	1ec6 <follow_path+0x1a6>
create_name():
C:\Users\alon\Desktop\github\iot-fan_at_cnblogs\CH577_CH578_CH579\AN\CH579EVT_USB_DISK_TEST\BLE\ch57x_ble_uart_mrs_app_only_test\obj/../app/ff.c:2915
				wc = '_'; cf |= NS_LOSS | NS_LFN;/* Lossy conversion */
    1e88:	2303      	movs	r3, #3
    1e8a:	205f      	movs	r0, #95	; 0x5f
    1e8c:	431c      	orrs	r4, r3
    1e8e:	e013      	b.n	1eb8 <follow_path+0x198>
C:\Users\alon\Desktop\github\iot-fan_at_cnblogs\CH577_CH578_CH579\AN\CH579EVT_USB_DISK_TEST\BLE\ch57x_ble_uart_mrs_app_only_test\obj/../app/ff.c:2907
		if (wc >= 0x100) {				/* Is this a DBC? */
    1e90:	28ff      	cmp	r0, #255	; 0xff
    1e92:	d9ef      	bls.n	1e74 <follow_path+0x154>
C:\Users\alon\Desktop\github\iot-fan_at_cnblogs\CH577_CH578_CH579\AN\CH579EVT_USB_DISK_TEST\BLE\ch57x_ble_uart_mrs_app_only_test\obj/../app/ff.c:2908
			if (i >= ni - 1) {			/* Field overflow? */
    1e94:	9b03      	ldr	r3, [sp, #12]
    1e96:	9a02      	ldr	r2, [sp, #8]
    1e98:	3b01      	subs	r3, #1
    1e9a:	429a      	cmp	r2, r3
    1e9c:	d303      	bcc.n	1ea6 <follow_path+0x186>
C:\Users\alon\Desktop\github\iot-fan_at_cnblogs\CH577_CH578_CH579\AN\CH579EVT_USB_DISK_TEST\BLE\ch57x_ble_uart_mrs_app_only_test\obj/../app/ff.c:2909
				cf |= NS_LOSS | NS_LFN;
    1e9e:	2303      	movs	r3, #3
    1ea0:	431c      	orrs	r4, r3
C:\Users\alon\Desktop\github\iot-fan_at_cnblogs\CH577_CH578_CH579\AN\CH579EVT_USB_DISK_TEST\BLE\ch57x_ble_uart_mrs_app_only_test\obj/../app/ff.c:2910
				i = ni; continue;		/* Next field */
    1ea2:	9b03      	ldr	r3, [sp, #12]
    1ea4:	e7d6      	b.n	1e54 <follow_path+0x134>
C:\Users\alon\Desktop\github\iot-fan_at_cnblogs\CH577_CH578_CH579\AN\CH579EVT_USB_DISK_TEST\BLE\ch57x_ble_uart_mrs_app_only_test\obj/../app/ff.c:2912
			dp->fn[i++] = (BYTE)(wc >> 8);	/* Put 1st byte */
    1ea6:	003c      	movs	r4, r7
    1ea8:	9b02      	ldr	r3, [sp, #8]
    1eaa:	0a02      	lsrs	r2, r0, #8
    1eac:	18f3      	adds	r3, r6, r3
    1eae:	3301      	adds	r3, #1
    1eb0:	77da      	strb	r2, [r3, #31]
    1eb2:	9b02      	ldr	r3, [sp, #8]
    1eb4:	3301      	adds	r3, #1
    1eb6:	9302      	str	r3, [sp, #8]
C:\Users\alon\Desktop\github\iot-fan_at_cnblogs\CH577_CH578_CH579\AN\CH579EVT_USB_DISK_TEST\BLE\ch57x_ble_uart_mrs_app_only_test\obj/../app/ff.c:2925
		dp->fn[i++] = (BYTE)wc;
    1eb8:	9b02      	ldr	r3, [sp, #8]
    1eba:	18f3      	adds	r3, r6, r3
    1ebc:	3301      	adds	r3, #1
    1ebe:	77d8      	strb	r0, [r3, #31]
    1ec0:	9b02      	ldr	r3, [sp, #8]
    1ec2:	3301      	adds	r3, #1
    1ec4:	e7c6      	b.n	1e54 <follow_path+0x134>
chk_chr():
C:\Users\alon\Desktop\github\iot-fan_at_cnblogs\CH577_CH578_CH579\AN\CH579EVT_USB_DISK_TEST\BLE\ch57x_ble_uart_mrs_app_only_test\obj/../app/ff.c:685
	while (*str && *str != chr) str++;
    1ec6:	3301      	adds	r3, #1
    1ec8:	e7d8      	b.n	1e7c <follow_path+0x15c>
create_name():
C:\Users\alon\Desktop\github\iot-fan_at_cnblogs\CH577_CH578_CH579\AN\CH579EVT_USB_DISK_TEST\BLE\ch57x_ble_uart_mrs_app_only_test\obj/../app/ff.c:2917
				if (IsUpper(wc)) {		/* ASCII upper case? */
    1eca:	0003      	movs	r3, r0
    1ecc:	3b41      	subs	r3, #65	; 0x41
    1ece:	b29b      	uxth	r3, r3
    1ed0:	2b19      	cmp	r3, #25
    1ed2:	d804      	bhi.n	1ede <follow_path+0x1be>
C:\Users\alon\Desktop\github\iot-fan_at_cnblogs\CH577_CH578_CH579\AN\CH579EVT_USB_DISK_TEST\BLE\ch57x_ble_uart_mrs_app_only_test\obj/../app/ff.c:2918
					b |= 2;
    1ed4:	2302      	movs	r3, #2
    1ed6:	9a01      	ldr	r2, [sp, #4]
    1ed8:	431a      	orrs	r2, r3
    1eda:	9201      	str	r2, [sp, #4]
C:\Users\alon\Desktop\github\iot-fan_at_cnblogs\CH577_CH578_CH579\AN\CH579EVT_USB_DISK_TEST\BLE\ch57x_ble_uart_mrs_app_only_test\obj/../app/ff.c:2920
				if (IsLower(wc)) {		/* ASCII lower case? */
    1edc:	e7ec      	b.n	1eb8 <follow_path+0x198>
    1ede:	0003      	movs	r3, r0
    1ee0:	3b61      	subs	r3, #97	; 0x61
    1ee2:	b29b      	uxth	r3, r3
    1ee4:	2b19      	cmp	r3, #25
    1ee6:	d8e7      	bhi.n	1eb8 <follow_path+0x198>
C:\Users\alon\Desktop\github\iot-fan_at_cnblogs\CH577_CH578_CH579\AN\CH579EVT_USB_DISK_TEST\BLE\ch57x_ble_uart_mrs_app_only_test\obj/../app/ff.c:2921
					b |= 1; wc -= 0x20;
    1ee8:	2301      	movs	r3, #1
    1eea:	9a01      	ldr	r2, [sp, #4]
    1eec:	3820      	subs	r0, #32
    1eee:	431a      	orrs	r2, r3
    1ef0:	9201      	str	r2, [sp, #4]
    1ef2:	b280      	uxth	r0, r0
    1ef4:	e7e0      	b.n	1eb8 <follow_path+0x198>
follow_path():
C:\Users\alon\Desktop\github\iot-fan_at_cnblogs\CH577_CH578_CH579\AN\CH579EVT_USB_DISK_TEST\BLE\ch57x_ble_uart_mrs_app_only_test\obj/../app/ff.c:3071
			if (ns & NS_LAST) break;			/* Last segment matched. Function completed. */
    1ef6:	2204      	movs	r2, #4
    1ef8:	4213      	tst	r3, r2
    1efa:	d000      	beq.n	1efe <follow_path+0x1de>
    1efc:	e72b      	b.n	1d56 <follow_path+0x36>
C:\Users\alon\Desktop\github\iot-fan_at_cnblogs\CH577_CH578_CH579\AN\CH579EVT_USB_DISK_TEST\BLE\ch57x_ble_uart_mrs_app_only_test\obj/../app/ff.c:3073
			if (!(dp->obj.attr & AM_DIR)) {		/* It is not a sub-directory and cannot follow */
    1efe:	79b3      	ldrb	r3, [r6, #6]
    1f00:	06db      	lsls	r3, r3, #27
    1f02:	d571      	bpl.n	1fe8 <follow_path+0x2c8>
C:\Users\alon\Desktop\github\iot-fan_at_cnblogs\CH577_CH578_CH579\AN\CH579EVT_USB_DISK_TEST\BLE\ch57x_ble_uart_mrs_app_only_test\obj/../app/ff.c:3085
				dp->obj.sclust = ld_clust(fs, fs->win + dp->dptr % SS(fs));	/* Open next directory */
    1f04:	6933      	ldr	r3, [r6, #16]
    1f06:	9907      	ldr	r1, [sp, #28]
    1f08:	051b      	lsls	r3, r3, #20
    1f0a:	0d1b      	lsrs	r3, r3, #20
    1f0c:	3134      	adds	r1, #52	; 0x34
    1f0e:	18c9      	adds	r1, r1, r3
    1f10:	9b07      	ldr	r3, [sp, #28]
    1f12:	7818      	ldrb	r0, [r3, #0]
    1f14:	f7ff f824 	bl	f60 <ld_clust.isra.0>
    1f18:	60b0      	str	r0, [r6, #8]
create_name():
C:\Users\alon\Desktop\github\iot-fan_at_cnblogs\CH577_CH578_CH579\AN\CH579EVT_USB_DISK_TEST\BLE\ch57x_ble_uart_mrs_app_only_test\obj/../app/ff.c:2830
	p = *path; lfn = dp->obj.fs->lfnbuf; di = 0;
    1f1a:	2500      	movs	r5, #0
    1f1c:	6833      	ldr	r3, [r6, #0]
    1f1e:	68db      	ldr	r3, [r3, #12]
    1f20:	9305      	str	r3, [sp, #20]
tchar2uni():
C:\Users\alon\Desktop\github\iot-fan_at_cnblogs\CH577_CH578_CH579\AN\CH579EVT_USB_DISK_TEST\BLE\ch57x_ble_uart_mrs_app_only_test\obj/../app/ff.c:789
	wc = (BYTE)*p++;			/* Get a byte */
    1f22:	9b04      	ldr	r3, [sp, #16]
    1f24:	1c5c      	adds	r4, r3, #1
    1f26:	5d5b      	ldrb	r3, [r3, r5]
    1f28:	1964      	adds	r4, r4, r5
C:\Users\alon\Desktop\github\iot-fan_at_cnblogs\CH577_CH578_CH579\AN\CH579EVT_USB_DISK_TEST\BLE\ch57x_ble_uart_mrs_app_only_test\obj/../app/ff.c:795
	if (wc != 0) {
    1f2a:	2b00      	cmp	r3, #0
    1f2c:	d00e      	beq.n	1f4c <follow_path+0x22c>
C:\Users\alon\Desktop\github\iot-fan_at_cnblogs\CH577_CH578_CH579\AN\CH579EVT_USB_DISK_TEST\BLE\ch57x_ble_uart_mrs_app_only_test\obj/../app/ff.c:796
		wc = ff_oem2uni(wc, CODEPAGE);	/* ANSI/OEM ==> Unicode */
    1f2e:	21b6      	movs	r1, #182	; 0xb6
C:\Users\alon\Desktop\github\iot-fan_at_cnblogs\CH577_CH578_CH579\AN\CH579EVT_USB_DISK_TEST\BLE\ch57x_ble_uart_mrs_app_only_test\obj/../app/ff.c:789
	wc = (BYTE)*p++;			/* Get a byte */
    1f30:	b298      	uxth	r0, r3
C:\Users\alon\Desktop\github\iot-fan_at_cnblogs\CH577_CH578_CH579\AN\CH579EVT_USB_DISK_TEST\BLE\ch57x_ble_uart_mrs_app_only_test\obj/../app/ff.c:796
		wc = ff_oem2uni(wc, CODEPAGE);	/* ANSI/OEM ==> Unicode */
    1f32:	31ff      	adds	r1, #255	; 0xff
    1f34:	f000 fe56 	bl	2be4 <ff_oem2uni>
    1f38:	1e03      	subs	r3, r0, #0
C:\Users\alon\Desktop\github\iot-fan_at_cnblogs\CH577_CH578_CH579\AN\CH579EVT_USB_DISK_TEST\BLE\ch57x_ble_uart_mrs_app_only_test\obj/../app/ff.c:797
		if (wc == 0) return 0xFFFFFFFF;	/* Invalid code? */
    1f3a:	d100      	bne.n	1f3e <follow_path+0x21e>
    1f3c:	e71c      	b.n	1d78 <follow_path+0x58>
create_name():
C:\Users\alon\Desktop\github\iot-fan_at_cnblogs\CH577_CH578_CH579\AN\CH579EVT_USB_DISK_TEST\BLE\ch57x_ble_uart_mrs_app_only_test\obj/../app/ff.c:2836
		if (wc < ' ' || wc == '/' || wc == '\\') break;	/* Break if end of the path or a separator is found */
    1f3e:	281f      	cmp	r0, #31
    1f40:	d904      	bls.n	1f4c <follow_path+0x22c>
    1f42:	282f      	cmp	r0, #47	; 0x2f
    1f44:	d002      	beq.n	1f4c <follow_path+0x22c>
    1f46:	285c      	cmp	r0, #92	; 0x5c
    1f48:	d000      	beq.n	1f4c <follow_path+0x22c>
    1f4a:	e70a      	b.n	1d62 <follow_path+0x42>
    1f4c:	9404      	str	r4, [sp, #16]
C:\Users\alon\Desktop\github\iot-fan_at_cnblogs\CH577_CH578_CH579\AN\CH579EVT_USB_DISK_TEST\BLE\ch57x_ble_uart_mrs_app_only_test\obj/../app/ff.c:2841
	while (*p == '/' || *p == '\\') p++;	/* Skip duplicated separators if exist */
    1f4e:	9a04      	ldr	r2, [sp, #16]
    1f50:	7812      	ldrb	r2, [r2, #0]
    1f52:	b252      	sxtb	r2, r2
    1f54:	2a2f      	cmp	r2, #47	; 0x2f
    1f56:	d100      	bne.n	1f5a <follow_path+0x23a>
    1f58:	e717      	b.n	1d8a <follow_path+0x6a>
    1f5a:	2a5c      	cmp	r2, #92	; 0x5c
    1f5c:	d100      	bne.n	1f60 <follow_path+0x240>
    1f5e:	e714      	b.n	1d8a <follow_path+0x6a>
C:\Users\alon\Desktop\github\iot-fan_at_cnblogs\CH577_CH578_CH579\AN\CH579EVT_USB_DISK_TEST\BLE\ch57x_ble_uart_mrs_app_only_test\obj/../app/ff.c:2843
	cf = (wc < ' ') ? NS_LAST : 0;		/* Set last segment flag if end of the path */
    1f60:	2404      	movs	r4, #4
    1f62:	2b1f      	cmp	r3, #31
    1f64:	d900      	bls.n	1f68 <follow_path+0x248>
    1f66:	2400      	movs	r4, #0
C:\Users\alon\Desktop\github\iot-fan_at_cnblogs\CH577_CH578_CH579\AN\CH579EVT_USB_DISK_TEST\BLE\ch57x_ble_uart_mrs_app_only_test\obj/../app/ff.c:2857
		wc = lfn[di - 1];
    1f68:	9b05      	ldr	r3, [sp, #20]
    1f6a:	1e99      	subs	r1, r3, #2
C:\Users\alon\Desktop\github\iot-fan_at_cnblogs\CH577_CH578_CH579\AN\CH579EVT_USB_DISK_TEST\BLE\ch57x_ble_uart_mrs_app_only_test\obj/../app/ff.c:2856
	while (di) {						/* Snip off trailing spaces and dots if exist */
    1f6c:	006a      	lsls	r2, r5, #1
    1f6e:	2d00      	cmp	r5, #0
    1f70:	d000      	beq.n	1f74 <follow_path+0x254>
    1f72:	e70e      	b.n	1d92 <follow_path+0x72>
C:\Users\alon\Desktop\github\iot-fan_at_cnblogs\CH577_CH578_CH579\AN\CH579EVT_USB_DISK_TEST\BLE\ch57x_ble_uart_mrs_app_only_test\obj/../app/ff.c:2861
	lfn[di] = 0;							/* LFN is created into the working buffer */
    1f74:	2300      	movs	r3, #0
    1f76:	9905      	ldr	r1, [sp, #20]
    1f78:	528b      	strh	r3, [r1, r2]
C:\Users\alon\Desktop\github\iot-fan_at_cnblogs\CH577_CH578_CH579\AN\CH579EVT_USB_DISK_TEST\BLE\ch57x_ble_uart_mrs_app_only_test\obj/../app/ff.c:2862
	if (di == 0) return FR_INVALID_NAME;	/* Reject null name */
    1f7a:	429d      	cmp	r5, r3
    1f7c:	d100      	bne.n	1f80 <follow_path+0x260>
    1f7e:	e6fb      	b.n	1d78 <follow_path+0x58>
C:\Users\alon\Desktop\github\iot-fan_at_cnblogs\CH577_CH578_CH579\AN\CH579EVT_USB_DISK_TEST\BLE\ch57x_ble_uart_mrs_app_only_test\obj/../app/ff.c:2865
	for (si = 0; lfn[si] == ' '; si++) ;	/* Remove leading spaces */
    1f80:	9905      	ldr	r1, [sp, #20]
    1f82:	005a      	lsls	r2, r3, #1
    1f84:	5a8a      	ldrh	r2, [r1, r2]
    1f86:	001f      	movs	r7, r3
    1f88:	3301      	adds	r3, #1
    1f8a:	2a20      	cmp	r2, #32
    1f8c:	d0f8      	beq.n	1f80 <follow_path+0x260>
C:\Users\alon\Desktop\github\iot-fan_at_cnblogs\CH577_CH578_CH579\AN\CH579EVT_USB_DISK_TEST\BLE\ch57x_ble_uart_mrs_app_only_test\obj/../app/ff.c:2866
	if (si > 0 || lfn[si] == '.') cf |= NS_LOSS | NS_LFN;	/* Is there any leading space or dot? */
    1f8e:	2f00      	cmp	r7, #0
    1f90:	d101      	bne.n	1f96 <follow_path+0x276>
    1f92:	2a2e      	cmp	r2, #46	; 0x2e
    1f94:	d101      	bne.n	1f9a <follow_path+0x27a>
    1f96:	2303      	movs	r3, #3
    1f98:	431c      	orrs	r4, r3
C:\Users\alon\Desktop\github\iot-fan_at_cnblogs\CH577_CH578_CH579\AN\CH579EVT_USB_DISK_TEST\BLE\ch57x_ble_uart_mrs_app_only_test\obj/../app/ff.c:2867
	while (di > 0 && lfn[di - 1] != '.') di--;	/* Find last dot (di<=si: no extension) */
    1f9a:	9b05      	ldr	r3, [sp, #20]
    1f9c:	1e9a      	subs	r2, r3, #2
    1f9e:	006b      	lsls	r3, r5, #1
    1fa0:	5ad3      	ldrh	r3, [r2, r3]
    1fa2:	2b2e      	cmp	r3, #46	; 0x2e
    1fa4:	d002      	beq.n	1fac <follow_path+0x28c>
    1fa6:	3d01      	subs	r5, #1
    1fa8:	2d00      	cmp	r5, #0
    1faa:	d1f8      	bne.n	1f9e <follow_path+0x27e>
C:\Users\alon\Desktop\github\iot-fan_at_cnblogs\CH577_CH578_CH579\AN\CH579EVT_USB_DISK_TEST\BLE\ch57x_ble_uart_mrs_app_only_test\obj/../app/ff.c:2869
	mem_set(dp->fn, ' ', 11);
    1fac:	2120      	movs	r1, #32
    1fae:	220b      	movs	r2, #11
    1fb0:	1870      	adds	r0, r6, r1
    1fb2:	f7fe ff68 	bl	e86 <mem_set>
C:\Users\alon\Desktop\github\iot-fan_at_cnblogs\CH577_CH578_CH579\AN\CH579EVT_USB_DISK_TEST\BLE\ch57x_ble_uart_mrs_app_only_test\obj/../app/ff.c:2870
	i = b = 0; ni = 8;
    1fb6:	2308      	movs	r3, #8
    1fb8:	9303      	str	r3, [sp, #12]
    1fba:	2300      	movs	r3, #0
    1fbc:	9302      	str	r3, [sp, #8]
    1fbe:	9301      	str	r3, [sp, #4]
C:\Users\alon\Desktop\github\iot-fan_at_cnblogs\CH577_CH578_CH579\AN\CH579EVT_USB_DISK_TEST\BLE\ch57x_ble_uart_mrs_app_only_test\obj/../app/ff.c:2872
		wc = lfn[si++];					/* Get an LFN character */
    1fc0:	1c7b      	adds	r3, r7, #1
    1fc2:	9306      	str	r3, [sp, #24]
    1fc4:	9b05      	ldr	r3, [sp, #20]
    1fc6:	007f      	lsls	r7, r7, #1
    1fc8:	5af8      	ldrh	r0, [r7, r3]
C:\Users\alon\Desktop\github\iot-fan_at_cnblogs\CH577_CH578_CH579\AN\CH579EVT_USB_DISK_TEST\BLE\ch57x_ble_uart_mrs_app_only_test\obj/../app/ff.c:2873
		if (wc == 0) break;				/* Break on end of the LFN */
    1fca:	2800      	cmp	r0, #0
    1fcc:	d100      	bne.n	1fd0 <follow_path+0x2b0>
    1fce:	e6fa      	b.n	1dc6 <follow_path+0xa6>
C:\Users\alon\Desktop\github\iot-fan_at_cnblogs\CH577_CH578_CH579\AN\CH579EVT_USB_DISK_TEST\BLE\ch57x_ble_uart_mrs_app_only_test\obj/../app/ff.c:2874
		if (wc == ' ' || (wc == '.' && si != di)) {	/* Remove embedded spaces and dots */
    1fd0:	2820      	cmp	r0, #32
    1fd2:	d005      	beq.n	1fe0 <follow_path+0x2c0>
    1fd4:	282e      	cmp	r0, #46	; 0x2e
    1fd6:	d000      	beq.n	1fda <follow_path+0x2ba>
    1fd8:	e6e3      	b.n	1da2 <follow_path+0x82>
    1fda:	9b06      	ldr	r3, [sp, #24]
    1fdc:	42ab      	cmp	r3, r5
    1fde:	d005      	beq.n	1fec <follow_path+0x2cc>
C:\Users\alon\Desktop\github\iot-fan_at_cnblogs\CH577_CH578_CH579\AN\CH579EVT_USB_DISK_TEST\BLE\ch57x_ble_uart_mrs_app_only_test\obj/../app/ff.c:2875
			cf |= NS_LOSS | NS_LFN;
    1fe0:	2303      	movs	r3, #3
    1fe2:	431c      	orrs	r4, r3
C:\Users\alon\Desktop\github\iot-fan_at_cnblogs\CH577_CH578_CH579\AN\CH579EVT_USB_DISK_TEST\BLE\ch57x_ble_uart_mrs_app_only_test\obj/../app/ff.c:2925
		dp->fn[i++] = (BYTE)wc;
    1fe4:	9f06      	ldr	r7, [sp, #24]
    1fe6:	e7eb      	b.n	1fc0 <follow_path+0x2a0>
follow_path():
C:\Users\alon\Desktop\github\iot-fan_at_cnblogs\CH577_CH578_CH579\AN\CH579EVT_USB_DISK_TEST\BLE\ch57x_ble_uart_mrs_app_only_test\obj/../app/ff.c:3066
						if (!(ns & NS_LAST)) res = FR_NO_PATH;	/* Adjust error code if not last segment */
    1fe8:	2005      	movs	r0, #5
C:\Users\alon\Desktop\github\iot-fan_at_cnblogs\CH577_CH578_CH579\AN\CH579EVT_USB_DISK_TEST\BLE\ch57x_ble_uart_mrs_app_only_test\obj/../app/ff.c:3090
	return res;
    1fea:	e6b4      	b.n	1d56 <follow_path+0x36>
create_name():
C:\Users\alon\Desktop\github\iot-fan_at_cnblogs\CH577_CH578_CH579\AN\CH579EVT_USB_DISK_TEST\BLE\ch57x_ble_uart_mrs_app_only_test\obj/../app/ff.c:2879
		if (i >= ni || si == di) {		/* End of field? */
    1fec:	9b02      	ldr	r3, [sp, #8]
    1fee:	9a03      	ldr	r2, [sp, #12]
    1ff0:	4293      	cmp	r3, r2
    1ff2:	d200      	bcs.n	1ff6 <follow_path+0x2d6>
    1ff4:	e6dc      	b.n	1db0 <follow_path+0x90>
C:\Users\alon\Desktop\github\iot-fan_at_cnblogs\CH577_CH578_CH579\AN\CH579EVT_USB_DISK_TEST\BLE\ch57x_ble_uart_mrs_app_only_test\obj/../app/ff.c:2880
			if (ni == 11) {				/* Name extension overflow? */
    1ff6:	0013      	movs	r3, r2
    1ff8:	e6db      	b.n	1db2 <follow_path+0x92>
    1ffa:	46c0      	nop			; (mov r8, r8)
    1ffc:	00004bc6 	.word	0x00004bc6
    2000:	00004c0a 	.word	0x00004c0a
    2004:	00004bcf 	.word	0x00004bcf

00002008 <f_mount>:
f_mount():
C:\Users\alon\Desktop\github\iot-fan_at_cnblogs\CH577_CH578_CH579\AN\CH579EVT_USB_DISK_TEST\BLE\ch57x_ble_uart_mrs_app_only_test\obj/../app/ff.c:3475
FRESULT f_mount (
	FATFS* fs,			/* Pointer to the filesystem object (NULL:unmount)*/
	const TCHAR* path,	/* Logical drive number to be mounted/unmounted */
	BYTE opt			/* Mode option 0:Do not mount (delayed mount), 1:Mount immediately */
)
{
    2008:	b51f      	push	{r0, r1, r2, r3, r4, lr}
    200a:	9001      	str	r0, [sp, #4]
C:\Users\alon\Desktop\github\iot-fan_at_cnblogs\CH577_CH578_CH579\AN\CH579EVT_USB_DISK_TEST\BLE\ch57x_ble_uart_mrs_app_only_test\obj/../app/ff.c:3483
	FRESULT res;
	const TCHAR *rp = path;


	/* Get logical drive number */
	vol = get_ldnumber(&rp);
    200c:	a803      	add	r0, sp, #12
C:\Users\alon\Desktop\github\iot-fan_at_cnblogs\CH577_CH578_CH579\AN\CH579EVT_USB_DISK_TEST\BLE\ch57x_ble_uart_mrs_app_only_test\obj/../app/ff.c:3475
{
    200e:	0014      	movs	r4, r2
    2010:	9100      	str	r1, [sp, #0]
C:\Users\alon\Desktop\github\iot-fan_at_cnblogs\CH577_CH578_CH579\AN\CH579EVT_USB_DISK_TEST\BLE\ch57x_ble_uart_mrs_app_only_test\obj/../app/ff.c:3479
	const TCHAR *rp = path;
    2012:	9103      	str	r1, [sp, #12]
C:\Users\alon\Desktop\github\iot-fan_at_cnblogs\CH577_CH578_CH579\AN\CH579EVT_USB_DISK_TEST\BLE\ch57x_ble_uart_mrs_app_only_test\obj/../app/ff.c:3483
	vol = get_ldnumber(&rp);
    2014:	f7fe ff64 	bl	ee0 <get_ldnumber>
C:\Users\alon\Desktop\github\iot-fan_at_cnblogs\CH577_CH578_CH579\AN\CH579EVT_USB_DISK_TEST\BLE\ch57x_ble_uart_mrs_app_only_test\obj/../app/ff.c:3484
	if (vol < 0) return FR_INVALID_DRIVE;
    2018:	2800      	cmp	r0, #0
    201a:	db17      	blt.n	204c <f_mount+0x44>
C:\Users\alon\Desktop\github\iot-fan_at_cnblogs\CH577_CH578_CH579\AN\CH579EVT_USB_DISK_TEST\BLE\ch57x_ble_uart_mrs_app_only_test\obj/../app/ff.c:3485
	cfs = FatFs[vol];					/* Pointer to fs object */
    201c:	4a0c      	ldr	r2, [pc, #48]	; (2050 <f_mount+0x48>)
    201e:	0080      	lsls	r0, r0, #2
    2020:	5883      	ldr	r3, [r0, r2]
C:\Users\alon\Desktop\github\iot-fan_at_cnblogs\CH577_CH578_CH579\AN\CH579EVT_USB_DISK_TEST\BLE\ch57x_ble_uart_mrs_app_only_test\obj/../app/ff.c:3487

	if (cfs) {
    2022:	2b00      	cmp	r3, #0
    2024:	d001      	beq.n	202a <f_mount+0x22>
C:\Users\alon\Desktop\github\iot-fan_at_cnblogs\CH577_CH578_CH579\AN\CH579EVT_USB_DISK_TEST\BLE\ch57x_ble_uart_mrs_app_only_test\obj/../app/ff.c:3494
		clear_lock(cfs);
#endif
#if FF_FS_REENTRANT						/* Discard sync object of the current volume */
		if (!ff_del_syncobj(cfs->sobj)) return FR_INT_ERR;
#endif
		cfs->fs_type = 0;				/* Clear old fs object */
    2026:	2100      	movs	r1, #0
    2028:	7019      	strb	r1, [r3, #0]
C:\Users\alon\Desktop\github\iot-fan_at_cnblogs\CH577_CH578_CH579\AN\CH579EVT_USB_DISK_TEST\BLE\ch57x_ble_uart_mrs_app_only_test\obj/../app/ff.c:3497
	}

	if (fs) {
    202a:	9b01      	ldr	r3, [sp, #4]
    202c:	2b00      	cmp	r3, #0
    202e:	d001      	beq.n	2034 <f_mount+0x2c>
C:\Users\alon\Desktop\github\iot-fan_at_cnblogs\CH577_CH578_CH579\AN\CH579EVT_USB_DISK_TEST\BLE\ch57x_ble_uart_mrs_app_only_test\obj/../app/ff.c:3498
		fs->fs_type = 0;				/* Clear new fs object */
    2030:	2100      	movs	r1, #0
    2032:	7019      	strb	r1, [r3, #0]
C:\Users\alon\Desktop\github\iot-fan_at_cnblogs\CH577_CH578_CH579\AN\CH579EVT_USB_DISK_TEST\BLE\ch57x_ble_uart_mrs_app_only_test\obj/../app/ff.c:3503
#if FF_FS_REENTRANT						/* Create sync object for the new volume */
		if (!ff_cre_syncobj((BYTE)vol, &fs->sobj)) return FR_INT_ERR;
#endif
	}
	FatFs[vol] = fs;					/* Register new fs object */
    2034:	5013      	str	r3, [r2, r0]
C:\Users\alon\Desktop\github\iot-fan_at_cnblogs\CH577_CH578_CH579\AN\CH579EVT_USB_DISK_TEST\BLE\ch57x_ble_uart_mrs_app_only_test\obj/../app/ff.c:3505

	if (opt == 0) return FR_OK;			/* Do not mount now, it will be mounted later */
    2036:	2c00      	cmp	r4, #0
    2038:	d005      	beq.n	2046 <f_mount+0x3e>
C:\Users\alon\Desktop\github\iot-fan_at_cnblogs\CH577_CH578_CH579\AN\CH579EVT_USB_DISK_TEST\BLE\ch57x_ble_uart_mrs_app_only_test\obj/../app/ff.c:3507

	res = find_volume(&path, &fs, 0);	/* Force mounted the volume */
    203a:	2200      	movs	r2, #0
    203c:	4668      	mov	r0, sp
    203e:	a901      	add	r1, sp, #4
    2040:	f7ff f828 	bl	1094 <find_volume>
    2044:	0004      	movs	r4, r0
C:\Users\alon\Desktop\github\iot-fan_at_cnblogs\CH577_CH578_CH579\AN\CH579EVT_USB_DISK_TEST\BLE\ch57x_ble_uart_mrs_app_only_test\obj/../app/ff.c:3509
	LEAVE_FF(fs, res);
}
    2046:	0020      	movs	r0, r4
    2048:	b004      	add	sp, #16
    204a:	bd10      	pop	{r4, pc}
C:\Users\alon\Desktop\github\iot-fan_at_cnblogs\CH577_CH578_CH579\AN\CH579EVT_USB_DISK_TEST\BLE\ch57x_ble_uart_mrs_app_only_test\obj/../app/ff.c:3484
	if (vol < 0) return FR_INVALID_DRIVE;
    204c:	240b      	movs	r4, #11
    204e:	e7fa      	b.n	2046 <f_mount+0x3e>
    2050:	200041ec 	.word	0x200041ec

00002054 <f_open>:
f_open():
C:\Users\alon\Desktop\github\iot-fan_at_cnblogs\CH577_CH578_CH579\AN\CH579EVT_USB_DISK_TEST\BLE\ch57x_ble_uart_mrs_app_only_test\obj/../app/ff.c:3523
FRESULT f_open (
	FIL* fp,			/* Pointer to the blank file object */
	const TCHAR* path,	/* Pointer to the file name */
	BYTE mode			/* Access mode and file open mode flags */
)
{
    2054:	b5f0      	push	{r4, r5, r6, r7, lr}
    2056:	b095      	sub	sp, #84	; 0x54
    2058:	0005      	movs	r5, r0
    205a:	0016      	movs	r6, r2
C:\Users\alon\Desktop\github\iot-fan_at_cnblogs\CH577_CH578_CH579\AN\CH579EVT_USB_DISK_TEST\BLE\ch57x_ble_uart_mrs_app_only_test\obj/../app/ff.c:3534
	FSIZE_t ofs;
#endif
	DEF_NAMBUF


	if (!fp) return FR_INVALID_OBJECT;
    205c:	2409      	movs	r4, #9
C:\Users\alon\Desktop\github\iot-fan_at_cnblogs\CH577_CH578_CH579\AN\CH579EVT_USB_DISK_TEST\BLE\ch57x_ble_uart_mrs_app_only_test\obj/../app/ff.c:3523
{
    205e:	9105      	str	r1, [sp, #20]
C:\Users\alon\Desktop\github\iot-fan_at_cnblogs\CH577_CH578_CH579\AN\CH579EVT_USB_DISK_TEST\BLE\ch57x_ble_uart_mrs_app_only_test\obj/../app/ff.c:3534
	if (!fp) return FR_INVALID_OBJECT;
    2060:	2800      	cmp	r0, #0
    2062:	d06e      	beq.n	2142 <f_open+0xee>
C:\Users\alon\Desktop\github\iot-fan_at_cnblogs\CH577_CH578_CH579\AN\CH579EVT_USB_DISK_TEST\BLE\ch57x_ble_uart_mrs_app_only_test\obj/../app/ff.c:3537

	/* Get logical drive number */
	mode &= FF_FS_READONLY ? FA_READ : FA_READ | FA_WRITE | FA_CREATE_ALWAYS | FA_CREATE_NEW | FA_OPEN_ALWAYS | FA_OPEN_APPEND;
    2064:	273f      	movs	r7, #63	; 0x3f
    2066:	4017      	ands	r7, r2
C:\Users\alon\Desktop\github\iot-fan_at_cnblogs\CH577_CH578_CH579\AN\CH579EVT_USB_DISK_TEST\BLE\ch57x_ble_uart_mrs_app_only_test\obj/../app/ff.c:3538
	res = find_volume(&path, &fs, mode);
    2068:	003a      	movs	r2, r7
    206a:	a907      	add	r1, sp, #28
    206c:	a805      	add	r0, sp, #20
    206e:	f7ff f811 	bl	1094 <find_volume>
    2072:	1e04      	subs	r4, r0, #0
C:\Users\alon\Desktop\github\iot-fan_at_cnblogs\CH577_CH578_CH579\AN\CH579EVT_USB_DISK_TEST\BLE\ch57x_ble_uart_mrs_app_only_test\obj/../app/ff.c:3539
	if (res == FR_OK) {
    2074:	d163      	bne.n	213e <f_open+0xea>
C:\Users\alon\Desktop\github\iot-fan_at_cnblogs\CH577_CH578_CH579\AN\CH579EVT_USB_DISK_TEST\BLE\ch57x_ble_uart_mrs_app_only_test\obj/../app/ff.c:3541
		dj.obj.fs = fs;
		INIT_NAMBUF(fs);
    2076:	2080      	movs	r0, #128	; 0x80
C:\Users\alon\Desktop\github\iot-fan_at_cnblogs\CH577_CH578_CH579\AN\CH579EVT_USB_DISK_TEST\BLE\ch57x_ble_uart_mrs_app_only_test\obj/../app/ff.c:3540
		dj.obj.fs = fs;
    2078:	9b07      	ldr	r3, [sp, #28]
C:\Users\alon\Desktop\github\iot-fan_at_cnblogs\CH577_CH578_CH579\AN\CH579EVT_USB_DISK_TEST\BLE\ch57x_ble_uart_mrs_app_only_test\obj/../app/ff.c:3541
		INIT_NAMBUF(fs);
    207a:	0080      	lsls	r0, r0, #2
C:\Users\alon\Desktop\github\iot-fan_at_cnblogs\CH577_CH578_CH579\AN\CH579EVT_USB_DISK_TEST\BLE\ch57x_ble_uart_mrs_app_only_test\obj/../app/ff.c:3540
		dj.obj.fs = fs;
    207c:	9308      	str	r3, [sp, #32]
C:\Users\alon\Desktop\github\iot-fan_at_cnblogs\CH577_CH578_CH579\AN\CH579EVT_USB_DISK_TEST\BLE\ch57x_ble_uart_mrs_app_only_test\obj/../app/ff.c:3541
		INIT_NAMBUF(fs);
    207e:	f000 fd8d 	bl	2b9c <ff_memalloc>
    2082:	3411      	adds	r4, #17
    2084:	9002      	str	r0, [sp, #8]
    2086:	2800      	cmp	r0, #0
    2088:	d05b      	beq.n	2142 <f_open+0xee>
C:\Users\alon\Desktop\github\iot-fan_at_cnblogs\CH577_CH578_CH579\AN\CH579EVT_USB_DISK_TEST\BLE\ch57x_ble_uart_mrs_app_only_test\obj/../app/ff.c:3541 (discriminator 2)
    208a:	9b07      	ldr	r3, [sp, #28]
C:\Users\alon\Desktop\github\iot-fan_at_cnblogs\CH577_CH578_CH579\AN\CH579EVT_USB_DISK_TEST\BLE\ch57x_ble_uart_mrs_app_only_test\obj/../app/ff.c:3542 (discriminator 2)
		res = follow_path(&dj, path);	/* Follow the file path */
    208c:	9905      	ldr	r1, [sp, #20]
C:\Users\alon\Desktop\github\iot-fan_at_cnblogs\CH577_CH578_CH579\AN\CH579EVT_USB_DISK_TEST\BLE\ch57x_ble_uart_mrs_app_only_test\obj/../app/ff.c:3541 (discriminator 2)
		INIT_NAMBUF(fs);
    208e:	60d8      	str	r0, [r3, #12]
C:\Users\alon\Desktop\github\iot-fan_at_cnblogs\CH577_CH578_CH579\AN\CH579EVT_USB_DISK_TEST\BLE\ch57x_ble_uart_mrs_app_only_test\obj/../app/ff.c:3542 (discriminator 2)
		res = follow_path(&dj, path);	/* Follow the file path */
    2090:	a808      	add	r0, sp, #32
    2092:	f7ff fe45 	bl	1d20 <follow_path>
    2096:	1e04      	subs	r4, r0, #0
C:\Users\alon\Desktop\github\iot-fan_at_cnblogs\CH577_CH578_CH579\AN\CH579EVT_USB_DISK_TEST\BLE\ch57x_ble_uart_mrs_app_only_test\obj/../app/ff.c:3544 (discriminator 2)
#if !FF_FS_READONLY	/* Read/Write configuration */
		if (res == FR_OK) {
    2098:	d106      	bne.n	20a8 <f_open+0x54>
C:\Users\alon\Desktop\github\iot-fan_at_cnblogs\CH577_CH578_CH579\AN\CH579EVT_USB_DISK_TEST\BLE\ch57x_ble_uart_mrs_app_only_test\obj/../app/ff.c:3545
			if (dj.fn[NSFLAG] & NS_NONAME) {	/* Origin directory itself? */
    209a:	233b      	movs	r3, #59	; 0x3b
    209c:	aa04      	add	r2, sp, #16
    209e:	189b      	adds	r3, r3, r2
    20a0:	781b      	ldrb	r3, [r3, #0]
    20a2:	2b7f      	cmp	r3, #127	; 0x7f
    20a4:	d900      	bls.n	20a8 <f_open+0x54>
C:\Users\alon\Desktop\github\iot-fan_at_cnblogs\CH577_CH578_CH579\AN\CH579EVT_USB_DISK_TEST\BLE\ch57x_ble_uart_mrs_app_only_test\obj/../app/ff.c:3546
				res = FR_INVALID_NAME;
    20a6:	3406      	adds	r4, #6
C:\Users\alon\Desktop\github\iot-fan_at_cnblogs\CH577_CH578_CH579\AN\CH579EVT_USB_DISK_TEST\BLE\ch57x_ble_uart_mrs_app_only_test\obj/../app/ff.c:3555
				res = chk_lock(&dj, (mode & ~FA_READ) ? 1 : 0);		/* Check if the file can be used */
			}
#endif
		}
		/* Create or Open a file */
		if (mode & (FA_CREATE_ALWAYS | FA_OPEN_ALWAYS | FA_CREATE_NEW)) {
    20a8:	231c      	movs	r3, #28
    20aa:	421e      	tst	r6, r3
    20ac:	d100      	bne.n	20b0 <f_open+0x5c>
    20ae:	e078      	b.n	21a2 <f_open+0x14e>
C:\Users\alon\Desktop\github\iot-fan_at_cnblogs\CH577_CH578_CH579\AN\CH579EVT_USB_DISK_TEST\BLE\ch57x_ble_uart_mrs_app_only_test\obj/../app/ff.c:3556
			if (res != FR_OK) {					/* No file, create new */
    20b0:	2c00      	cmp	r4, #0
    20b2:	d049      	beq.n	2148 <f_open+0xf4>
C:\Users\alon\Desktop\github\iot-fan_at_cnblogs\CH577_CH578_CH579\AN\CH579EVT_USB_DISK_TEST\BLE\ch57x_ble_uart_mrs_app_only_test\obj/../app/ff.c:3557
				if (res == FR_NO_FILE) {		/* There is no file to open, create a new entry */
    20b4:	2c04      	cmp	r4, #4
    20b6:	d13d      	bne.n	2134 <f_open+0xe0>
C:\Users\alon\Desktop\github\iot-fan_at_cnblogs\CH577_CH578_CH579\AN\CH579EVT_USB_DISK_TEST\BLE\ch57x_ble_uart_mrs_app_only_test\obj/../app/ff.c:3561
#if FF_FS_LOCK != 0
					res = enq_lock() ? dir_register(&dj) : FR_TOO_MANY_OPEN_FILES;
#else
					res = dir_register(&dj);
    20b8:	a808      	add	r0, sp, #32
    20ba:	f7ff fcad 	bl	1a18 <dir_register>
    20be:	1e04      	subs	r4, r0, #0
C:\Users\alon\Desktop\github\iot-fan_at_cnblogs\CH577_CH578_CH579\AN\CH579EVT_USB_DISK_TEST\BLE\ch57x_ble_uart_mrs_app_only_test\obj/../app/ff.c:3573
					res = FR_DENIED;
				} else {
					if (mode & FA_CREATE_NEW) res = FR_EXIST;	/* Cannot create as new file */
				}
			}
			if (res == FR_OK && (mode & FA_CREATE_ALWAYS)) {	/* Truncate the file if overwrite mode */
    20c0:	d138      	bne.n	2134 <f_open+0xe0>
C:\Users\alon\Desktop\github\iot-fan_at_cnblogs\CH577_CH578_CH579\AN\CH579EVT_USB_DISK_TEST\BLE\ch57x_ble_uart_mrs_app_only_test\obj/../app/ff.c:3564
				mode |= FA_CREATE_ALWAYS;		/* File is created */
    20c2:	2308      	movs	r3, #8
    20c4:	431f      	orrs	r7, r3
C:\Users\alon\Desktop\github\iot-fan_at_cnblogs\CH577_CH578_CH579\AN\CH579EVT_USB_DISK_TEST\BLE\ch57x_ble_uart_mrs_app_only_test\obj/../app/ff.c:3594
					}
				} else
#endif
				{
					/* Set directory entry initial state */
					cl = ld_clust(fs, dj.dir);			/* Get current cluster chain */
    20c6:	9e0f      	ldr	r6, [sp, #60]	; 0x3c
    20c8:	9b07      	ldr	r3, [sp, #28]
    20ca:	0031      	movs	r1, r6
    20cc:	7818      	ldrb	r0, [r3, #0]
    20ce:	9303      	str	r3, [sp, #12]
    20d0:	f7fe ff46 	bl	f60 <ld_clust.isra.0>
st_dword():
C:\Users\alon\Desktop\github\iot-fan_at_cnblogs\CH577_CH578_CH579\AN\CH579EVT_USB_DISK_TEST\BLE\ch57x_ble_uart_mrs_app_only_test\obj/../app/ff.c:618
	*ptr++ = (BYTE)val; val >>= 8;
    20d4:	2321      	movs	r3, #33	; 0x21
C:\Users\alon\Desktop\github\iot-fan_at_cnblogs\CH577_CH578_CH579\AN\CH579EVT_USB_DISK_TEST\BLE\ch57x_ble_uart_mrs_app_only_test\obj/../app/ff.c:616
	*ptr++ = (BYTE)val; val >>= 8;
    20d6:	2400      	movs	r4, #0
C:\Users\alon\Desktop\github\iot-fan_at_cnblogs\CH577_CH578_CH579\AN\CH579EVT_USB_DISK_TEST\BLE\ch57x_ble_uart_mrs_app_only_test\obj/../app/ff.c:618
	*ptr++ = (BYTE)val; val >>= 8;
    20d8:	7433      	strb	r3, [r6, #16]
C:\Users\alon\Desktop\github\iot-fan_at_cnblogs\CH577_CH578_CH579\AN\CH579EVT_USB_DISK_TEST\BLE\ch57x_ble_uart_mrs_app_only_test\obj/../app/ff.c:619
	*ptr++ = (BYTE)val;
    20da:	332b      	adds	r3, #43	; 0x2b
C:\Users\alon\Desktop\github\iot-fan_at_cnblogs\CH577_CH578_CH579\AN\CH579EVT_USB_DISK_TEST\BLE\ch57x_ble_uart_mrs_app_only_test\obj/../app/ff.c:616
	*ptr++ = (BYTE)val; val >>= 8;
    20dc:	73b4      	strb	r4, [r6, #14]
C:\Users\alon\Desktop\github\iot-fan_at_cnblogs\CH577_CH578_CH579\AN\CH579EVT_USB_DISK_TEST\BLE\ch57x_ble_uart_mrs_app_only_test\obj/../app/ff.c:617
	*ptr++ = (BYTE)val; val >>= 8;
    20de:	73f4      	strb	r4, [r6, #15]
C:\Users\alon\Desktop\github\iot-fan_at_cnblogs\CH577_CH578_CH579\AN\CH579EVT_USB_DISK_TEST\BLE\ch57x_ble_uart_mrs_app_only_test\obj/../app/ff.c:619
	*ptr++ = (BYTE)val;
    20e0:	7473      	strb	r3, [r6, #17]
f_open():
C:\Users\alon\Desktop\github\iot-fan_at_cnblogs\CH577_CH578_CH579\AN\CH579EVT_USB_DISK_TEST\BLE\ch57x_ble_uart_mrs_app_only_test\obj/../app/ff.c:3596
					st_dword(dj.dir + DIR_CrtTime, GET_FATTIME());	/* Set created time */
					dj.dir[DIR_Attr] = AM_ARC;			/* Reset attribute */
    20e2:	9b0f      	ldr	r3, [sp, #60]	; 0x3c
C:\Users\alon\Desktop\github\iot-fan_at_cnblogs\CH577_CH578_CH579\AN\CH579EVT_USB_DISK_TEST\BLE\ch57x_ble_uart_mrs_app_only_test\obj/../app/ff.c:3594
					cl = ld_clust(fs, dj.dir);			/* Get current cluster chain */
    20e4:	9001      	str	r0, [sp, #4]
C:\Users\alon\Desktop\github\iot-fan_at_cnblogs\CH577_CH578_CH579\AN\CH579EVT_USB_DISK_TEST\BLE\ch57x_ble_uart_mrs_app_only_test\obj/../app/ff.c:3596
					dj.dir[DIR_Attr] = AM_ARC;			/* Reset attribute */
    20e6:	9304      	str	r3, [sp, #16]
    20e8:	2320      	movs	r3, #32
    20ea:	9a04      	ldr	r2, [sp, #16]
C:\Users\alon\Desktop\github\iot-fan_at_cnblogs\CH577_CH578_CH579\AN\CH579EVT_USB_DISK_TEST\BLE\ch57x_ble_uart_mrs_app_only_test\obj/../app/ff.c:3597
					st_clust(fs, dj.dir, 0);			/* Reset file allocation info */
    20ec:	9803      	ldr	r0, [sp, #12]
C:\Users\alon\Desktop\github\iot-fan_at_cnblogs\CH577_CH578_CH579\AN\CH579EVT_USB_DISK_TEST\BLE\ch57x_ble_uart_mrs_app_only_test\obj/../app/ff.c:3596
					dj.dir[DIR_Attr] = AM_ARC;			/* Reset attribute */
    20ee:	72d3      	strb	r3, [r2, #11]
C:\Users\alon\Desktop\github\iot-fan_at_cnblogs\CH577_CH578_CH579\AN\CH579EVT_USB_DISK_TEST\BLE\ch57x_ble_uart_mrs_app_only_test\obj/../app/ff.c:3597
					st_clust(fs, dj.dir, 0);			/* Reset file allocation info */
    20f0:	990f      	ldr	r1, [sp, #60]	; 0x3c
    20f2:	0022      	movs	r2, r4
    20f4:	f7fe ff43 	bl	f7e <st_clust.isra.0>
C:\Users\alon\Desktop\github\iot-fan_at_cnblogs\CH577_CH578_CH579\AN\CH579EVT_USB_DISK_TEST\BLE\ch57x_ble_uart_mrs_app_only_test\obj/../app/ff.c:3599
					st_dword(dj.dir + DIR_FileSize, 0);
					fs->wflag = 1;
    20f8:	2201      	movs	r2, #1
C:\Users\alon\Desktop\github\iot-fan_at_cnblogs\CH577_CH578_CH579\AN\CH579EVT_USB_DISK_TEST\BLE\ch57x_ble_uart_mrs_app_only_test\obj/../app/ff.c:3598
					st_dword(dj.dir + DIR_FileSize, 0);
    20fa:	9b0f      	ldr	r3, [sp, #60]	; 0x3c
st_dword():
C:\Users\alon\Desktop\github\iot-fan_at_cnblogs\CH577_CH578_CH579\AN\CH579EVT_USB_DISK_TEST\BLE\ch57x_ble_uart_mrs_app_only_test\obj/../app/ff.c:616
	*ptr++ = (BYTE)val; val >>= 8;
    20fc:	771c      	strb	r4, [r3, #28]
C:\Users\alon\Desktop\github\iot-fan_at_cnblogs\CH577_CH578_CH579\AN\CH579EVT_USB_DISK_TEST\BLE\ch57x_ble_uart_mrs_app_only_test\obj/../app/ff.c:617
	*ptr++ = (BYTE)val; val >>= 8;
    20fe:	775c      	strb	r4, [r3, #29]
C:\Users\alon\Desktop\github\iot-fan_at_cnblogs\CH577_CH578_CH579\AN\CH579EVT_USB_DISK_TEST\BLE\ch57x_ble_uart_mrs_app_only_test\obj/../app/ff.c:618
	*ptr++ = (BYTE)val; val >>= 8;
    2100:	779c      	strb	r4, [r3, #30]
C:\Users\alon\Desktop\github\iot-fan_at_cnblogs\CH577_CH578_CH579\AN\CH579EVT_USB_DISK_TEST\BLE\ch57x_ble_uart_mrs_app_only_test\obj/../app/ff.c:619
	*ptr++ = (BYTE)val;
    2102:	77dc      	strb	r4, [r3, #31]
f_open():
C:\Users\alon\Desktop\github\iot-fan_at_cnblogs\CH577_CH578_CH579\AN\CH579EVT_USB_DISK_TEST\BLE\ch57x_ble_uart_mrs_app_only_test\obj/../app/ff.c:3599
					fs->wflag = 1;
    2104:	9b07      	ldr	r3, [sp, #28]
    2106:	70da      	strb	r2, [r3, #3]
C:\Users\alon\Desktop\github\iot-fan_at_cnblogs\CH577_CH578_CH579\AN\CH579EVT_USB_DISK_TEST\BLE\ch57x_ble_uart_mrs_app_only_test\obj/../app/ff.c:3600
					if (cl != 0) {						/* Remove the cluster chain if exist */
    2108:	9a01      	ldr	r2, [sp, #4]
    210a:	42a2      	cmp	r2, r4
    210c:	d027      	beq.n	215e <f_open+0x10a>
C:\Users\alon\Desktop\github\iot-fan_at_cnblogs\CH577_CH578_CH579\AN\CH579EVT_USB_DISK_TEST\BLE\ch57x_ble_uart_mrs_app_only_test\obj/../app/ff.c:3602
						dw = fs->winsect;
						res = remove_chain(&dj.obj, cl, 0);
    210e:	0022      	movs	r2, r4
    2110:	9901      	ldr	r1, [sp, #4]
    2112:	a808      	add	r0, sp, #32
C:\Users\alon\Desktop\github\iot-fan_at_cnblogs\CH577_CH578_CH579\AN\CH579EVT_USB_DISK_TEST\BLE\ch57x_ble_uart_mrs_app_only_test\obj/../app/ff.c:3601
						dw = fs->winsect;
    2114:	6b1e      	ldr	r6, [r3, #48]	; 0x30
C:\Users\alon\Desktop\github\iot-fan_at_cnblogs\CH577_CH578_CH579\AN\CH579EVT_USB_DISK_TEST\BLE\ch57x_ble_uart_mrs_app_only_test\obj/../app/ff.c:3602
						res = remove_chain(&dj.obj, cl, 0);
    2116:	f7ff fae2 	bl	16de <remove_chain>
    211a:	1e04      	subs	r4, r0, #0
C:\Users\alon\Desktop\github\iot-fan_at_cnblogs\CH577_CH578_CH579\AN\CH579EVT_USB_DISK_TEST\BLE\ch57x_ble_uart_mrs_app_only_test\obj/../app/ff.c:3603
						if (res == FR_OK) {
    211c:	d10a      	bne.n	2134 <f_open+0xe0>
C:\Users\alon\Desktop\github\iot-fan_at_cnblogs\CH577_CH578_CH579\AN\CH579EVT_USB_DISK_TEST\BLE\ch57x_ble_uart_mrs_app_only_test\obj/../app/ff.c:3604
							res = move_window(fs, dw);
    211e:	0031      	movs	r1, r6
    2120:	9807      	ldr	r0, [sp, #28]
    2122:	f7fe ff5d 	bl	fe0 <move_window>
    2126:	0004      	movs	r4, r0
C:\Users\alon\Desktop\github\iot-fan_at_cnblogs\CH577_CH578_CH579\AN\CH579EVT_USB_DISK_TEST\BLE\ch57x_ble_uart_mrs_app_only_test\obj/../app/ff.c:3605
							fs->last_clst = cl - 1;		/* Reuse the cluster hole */
    2128:	9801      	ldr	r0, [sp, #4]
    212a:	9b07      	ldr	r3, [sp, #28]
    212c:	3801      	subs	r0, #1
    212e:	6118      	str	r0, [r3, #16]
C:\Users\alon\Desktop\github\iot-fan_at_cnblogs\CH577_CH578_CH579\AN\CH579EVT_USB_DISK_TEST\BLE\ch57x_ble_uart_mrs_app_only_test\obj/../app/ff.c:3622
						res = FR_DENIED;
					}
				}
			}
		}
		if (res == FR_OK) {
    2130:	2c00      	cmp	r4, #0
    2132:	d014      	beq.n	215e <f_open+0x10a>
C:\Users\alon\Desktop\github\iot-fan_at_cnblogs\CH577_CH578_CH579\AN\CH579EVT_USB_DISK_TEST\BLE\ch57x_ble_uart_mrs_app_only_test\obj/../app/ff.c:3693
				}
			}
#endif
		}

		FREE_NAMBUF();
    2134:	9802      	ldr	r0, [sp, #8]
    2136:	f000 fd35 	bl	2ba4 <ff_memfree>
C:\Users\alon\Desktop\github\iot-fan_at_cnblogs\CH577_CH578_CH579\AN\CH579EVT_USB_DISK_TEST\BLE\ch57x_ble_uart_mrs_app_only_test\obj/../app/ff.c:3696
	}

	if (res != FR_OK) fp->obj.fs = 0;	/* Invalidate file object on error */
    213a:	2c00      	cmp	r4, #0
    213c:	d001      	beq.n	2142 <f_open+0xee>
C:\Users\alon\Desktop\github\iot-fan_at_cnblogs\CH577_CH578_CH579\AN\CH579EVT_USB_DISK_TEST\BLE\ch57x_ble_uart_mrs_app_only_test\obj/../app/ff.c:3696 (discriminator 1)
    213e:	2300      	movs	r3, #0
    2140:	602b      	str	r3, [r5, #0]
C:\Users\alon\Desktop\github\iot-fan_at_cnblogs\CH577_CH578_CH579\AN\CH579EVT_USB_DISK_TEST\BLE\ch57x_ble_uart_mrs_app_only_test\obj/../app/ff.c:3699

	LEAVE_FF(fs, res);
}
    2142:	0020      	movs	r0, r4
    2144:	b015      	add	sp, #84	; 0x54
    2146:	bdf0      	pop	{r4, r5, r6, r7, pc}
C:\Users\alon\Desktop\github\iot-fan_at_cnblogs\CH577_CH578_CH579\AN\CH579EVT_USB_DISK_TEST\BLE\ch57x_ble_uart_mrs_app_only_test\obj/../app/ff.c:3567
				if (dj.obj.attr & (AM_RDO | AM_DIR)) {	/* Cannot overwrite it (R/O or DIR) */
    2148:	ab04      	add	r3, sp, #16
    214a:	7d9a      	ldrb	r2, [r3, #22]
    214c:	2311      	movs	r3, #17
C:\Users\alon\Desktop\github\iot-fan_at_cnblogs\CH577_CH578_CH579\AN\CH579EVT_USB_DISK_TEST\BLE\ch57x_ble_uart_mrs_app_only_test\obj/../app/ff.c:3568
					res = FR_DENIED;
    214e:	2407      	movs	r4, #7
C:\Users\alon\Desktop\github\iot-fan_at_cnblogs\CH577_CH578_CH579\AN\CH579EVT_USB_DISK_TEST\BLE\ch57x_ble_uart_mrs_app_only_test\obj/../app/ff.c:3567
				if (dj.obj.attr & (AM_RDO | AM_DIR)) {	/* Cannot overwrite it (R/O or DIR) */
    2150:	421a      	tst	r2, r3
    2152:	d1ef      	bne.n	2134 <f_open+0xe0>
C:\Users\alon\Desktop\github\iot-fan_at_cnblogs\CH577_CH578_CH579\AN\CH579EVT_USB_DISK_TEST\BLE\ch57x_ble_uart_mrs_app_only_test\obj/../app/ff.c:3570
					if (mode & FA_CREATE_NEW) res = FR_EXIST;	/* Cannot create as new file */
    2154:	3401      	adds	r4, #1
    2156:	0773      	lsls	r3, r6, #29
    2158:	d4ec      	bmi.n	2134 <f_open+0xe0>
C:\Users\alon\Desktop\github\iot-fan_at_cnblogs\CH577_CH578_CH579\AN\CH579EVT_USB_DISK_TEST\BLE\ch57x_ble_uart_mrs_app_only_test\obj/../app/ff.c:3573
			if (res == FR_OK && (mode & FA_CREATE_ALWAYS)) {	/* Truncate the file if overwrite mode */
    215a:	4226      	tst	r6, r4
    215c:	d1b3      	bne.n	20c6 <f_open+0x72>
C:\Users\alon\Desktop\github\iot-fan_at_cnblogs\CH577_CH578_CH579\AN\CH579EVT_USB_DISK_TEST\BLE\ch57x_ble_uart_mrs_app_only_test\obj/../app/ff.c:3623
			if (mode & FA_CREATE_ALWAYS) mode |= FA_MODIFIED;	/* Set file change flag if created or overwritten */
    215e:	073b      	lsls	r3, r7, #28
    2160:	d501      	bpl.n	2166 <f_open+0x112>
C:\Users\alon\Desktop\github\iot-fan_at_cnblogs\CH577_CH578_CH579\AN\CH579EVT_USB_DISK_TEST\BLE\ch57x_ble_uart_mrs_app_only_test\obj/../app/ff.c:3623 (discriminator 1)
    2162:	2340      	movs	r3, #64	; 0x40
    2164:	431f      	orrs	r7, r3
C:\Users\alon\Desktop\github\iot-fan_at_cnblogs\CH577_CH578_CH579\AN\CH579EVT_USB_DISK_TEST\BLE\ch57x_ble_uart_mrs_app_only_test\obj/../app/ff.c:3624
			fp->dir_sect = fs->winsect;			/* Pointer to the directory entry */
    2166:	9c07      	ldr	r4, [sp, #28]
    2168:	6b23      	ldr	r3, [r4, #48]	; 0x30
    216a:	622b      	str	r3, [r5, #32]
C:\Users\alon\Desktop\github\iot-fan_at_cnblogs\CH577_CH578_CH579\AN\CH579EVT_USB_DISK_TEST\BLE\ch57x_ble_uart_mrs_app_only_test\obj/../app/ff.c:3625
			fp->dir_ptr = dj.dir;
    216c:	9b0f      	ldr	r3, [sp, #60]	; 0x3c
    216e:	626b      	str	r3, [r5, #36]	; 0x24
C:\Users\alon\Desktop\github\iot-fan_at_cnblogs\CH577_CH578_CH579\AN\CH579EVT_USB_DISK_TEST\BLE\ch57x_ble_uart_mrs_app_only_test\obj/../app/ff.c:3653
				fp->obj.sclust = ld_clust(fs, dj.dir);					/* Get object allocation info */
    2170:	7820      	ldrb	r0, [r4, #0]
    2172:	0019      	movs	r1, r3
C:\Users\alon\Desktop\github\iot-fan_at_cnblogs\CH577_CH578_CH579\AN\CH579EVT_USB_DISK_TEST\BLE\ch57x_ble_uart_mrs_app_only_test\obj/../app/ff.c:3625
			fp->dir_ptr = dj.dir;
    2174:	9301      	str	r3, [sp, #4]
C:\Users\alon\Desktop\github\iot-fan_at_cnblogs\CH577_CH578_CH579\AN\CH579EVT_USB_DISK_TEST\BLE\ch57x_ble_uart_mrs_app_only_test\obj/../app/ff.c:3653
				fp->obj.sclust = ld_clust(fs, dj.dir);					/* Get object allocation info */
    2176:	f7fe fef3 	bl	f60 <ld_clust.isra.0>
    217a:	60a8      	str	r0, [r5, #8]
    217c:	0006      	movs	r6, r0
C:\Users\alon\Desktop\github\iot-fan_at_cnblogs\CH577_CH578_CH579\AN\CH579EVT_USB_DISK_TEST\BLE\ch57x_ble_uart_mrs_app_only_test\obj/../app/ff.c:3654
				fp->obj.objsize = ld_dword(dj.dir + DIR_FileSize);
    217e:	9801      	ldr	r0, [sp, #4]
    2180:	301c      	adds	r0, #28
    2182:	f7fe fe6d 	bl	e60 <ld_dword>
C:\Users\alon\Desktop\github\iot-fan_at_cnblogs\CH577_CH578_CH579\AN\CH579EVT_USB_DISK_TEST\BLE\ch57x_ble_uart_mrs_app_only_test\obj/../app/ff.c:3659
			fp->obj.fs = fs;	 	/* Validate the file object */
    2186:	602c      	str	r4, [r5, #0]
C:\Users\alon\Desktop\github\iot-fan_at_cnblogs\CH577_CH578_CH579\AN\CH579EVT_USB_DISK_TEST\BLE\ch57x_ble_uart_mrs_app_only_test\obj/../app/ff.c:3654
				fp->obj.objsize = ld_dword(dj.dir + DIR_FileSize);
    2188:	9001      	str	r0, [sp, #4]
    218a:	60e8      	str	r0, [r5, #12]
C:\Users\alon\Desktop\github\iot-fan_at_cnblogs\CH577_CH578_CH579\AN\CH579EVT_USB_DISK_TEST\BLE\ch57x_ble_uart_mrs_app_only_test\obj/../app/ff.c:3660
			fp->obj.id = fs->id;
    218c:	88e3      	ldrh	r3, [r4, #6]
C:\Users\alon\Desktop\github\iot-fan_at_cnblogs\CH577_CH578_CH579\AN\CH579EVT_USB_DISK_TEST\BLE\ch57x_ble_uart_mrs_app_only_test\obj/../app/ff.c:3661
			fp->flag = mode;		/* Set file access mode */
    218e:	742f      	strb	r7, [r5, #16]
C:\Users\alon\Desktop\github\iot-fan_at_cnblogs\CH577_CH578_CH579\AN\CH579EVT_USB_DISK_TEST\BLE\ch57x_ble_uart_mrs_app_only_test\obj/../app/ff.c:3660
			fp->obj.id = fs->id;
    2190:	80ab      	strh	r3, [r5, #4]
C:\Users\alon\Desktop\github\iot-fan_at_cnblogs\CH577_CH578_CH579\AN\CH579EVT_USB_DISK_TEST\BLE\ch57x_ble_uart_mrs_app_only_test\obj/../app/ff.c:3662
			fp->err = 0;			/* Clear error flag */
    2192:	2300      	movs	r3, #0
    2194:	746b      	strb	r3, [r5, #17]
C:\Users\alon\Desktop\github\iot-fan_at_cnblogs\CH577_CH578_CH579\AN\CH579EVT_USB_DISK_TEST\BLE\ch57x_ble_uart_mrs_app_only_test\obj/../app/ff.c:3663
			fp->sect = 0;			/* Invalidate current data sector */
    2196:	61eb      	str	r3, [r5, #28]
C:\Users\alon\Desktop\github\iot-fan_at_cnblogs\CH577_CH578_CH579\AN\CH579EVT_USB_DISK_TEST\BLE\ch57x_ble_uart_mrs_app_only_test\obj/../app/ff.c:3664
			fp->fptr = 0;			/* Set file pointer top of the file */
    2198:	616b      	str	r3, [r5, #20]
C:\Users\alon\Desktop\github\iot-fan_at_cnblogs\CH577_CH578_CH579\AN\CH579EVT_USB_DISK_TEST\BLE\ch57x_ble_uart_mrs_app_only_test\obj/../app/ff.c:3669
			if ((mode & FA_SEEKEND) && fp->obj.objsize > 0) {	/* Seek to end of file if FA_OPEN_APPEND is specified */
    219a:	06bb      	lsls	r3, r7, #26
    219c:	d40e      	bmi.n	21bc <f_open+0x168>
C:\Users\alon\Desktop\github\iot-fan_at_cnblogs\CH577_CH578_CH579\AN\CH579EVT_USB_DISK_TEST\BLE\ch57x_ble_uart_mrs_app_only_test\obj/../app/ff.c:3614
					res = FR_NO_FILE;
    219e:	2400      	movs	r4, #0
    21a0:	e7c8      	b.n	2134 <f_open+0xe0>
C:\Users\alon\Desktop\github\iot-fan_at_cnblogs\CH577_CH578_CH579\AN\CH579EVT_USB_DISK_TEST\BLE\ch57x_ble_uart_mrs_app_only_test\obj/../app/ff.c:3612
			if (res == FR_OK) {					/* Is the object exsiting? */
    21a2:	2c00      	cmp	r4, #0
    21a4:	d1c6      	bne.n	2134 <f_open+0xe0>
C:\Users\alon\Desktop\github\iot-fan_at_cnblogs\CH577_CH578_CH579\AN\CH579EVT_USB_DISK_TEST\BLE\ch57x_ble_uart_mrs_app_only_test\obj/../app/ff.c:3613
				if (dj.obj.attr & AM_DIR) {		/* File open against a directory */
    21a6:	ab04      	add	r3, sp, #16
    21a8:	7d9b      	ldrb	r3, [r3, #22]
C:\Users\alon\Desktop\github\iot-fan_at_cnblogs\CH577_CH578_CH579\AN\CH579EVT_USB_DISK_TEST\BLE\ch57x_ble_uart_mrs_app_only_test\obj/../app/ff.c:3614
					res = FR_NO_FILE;
    21aa:	3404      	adds	r4, #4
C:\Users\alon\Desktop\github\iot-fan_at_cnblogs\CH577_CH578_CH579\AN\CH579EVT_USB_DISK_TEST\BLE\ch57x_ble_uart_mrs_app_only_test\obj/../app/ff.c:3613
				if (dj.obj.attr & AM_DIR) {		/* File open against a directory */
    21ac:	06da      	lsls	r2, r3, #27
    21ae:	d4c1      	bmi.n	2134 <f_open+0xe0>
C:\Users\alon\Desktop\github\iot-fan_at_cnblogs\CH577_CH578_CH579\AN\CH579EVT_USB_DISK_TEST\BLE\ch57x_ble_uart_mrs_app_only_test\obj/../app/ff.c:3616
					if ((mode & FA_WRITE) && (dj.obj.attr & AM_RDO)) { /* Write mode open against R/O file */
    21b0:	07b2      	lsls	r2, r6, #30
    21b2:	d5d4      	bpl.n	215e <f_open+0x10a>
C:\Users\alon\Desktop\github\iot-fan_at_cnblogs\CH577_CH578_CH579\AN\CH579EVT_USB_DISK_TEST\BLE\ch57x_ble_uart_mrs_app_only_test\obj/../app/ff.c:3568 (discriminator 1)
					res = FR_DENIED;
    21b4:	3403      	adds	r4, #3
C:\Users\alon\Desktop\github\iot-fan_at_cnblogs\CH577_CH578_CH579\AN\CH579EVT_USB_DISK_TEST\BLE\ch57x_ble_uart_mrs_app_only_test\obj/../app/ff.c:3616 (discriminator 1)
					if ((mode & FA_WRITE) && (dj.obj.attr & AM_RDO)) { /* Write mode open against R/O file */
    21b6:	07db      	lsls	r3, r3, #31
    21b8:	d4bc      	bmi.n	2134 <f_open+0xe0>
    21ba:	e7d0      	b.n	215e <f_open+0x10a>
C:\Users\alon\Desktop\github\iot-fan_at_cnblogs\CH577_CH578_CH579\AN\CH579EVT_USB_DISK_TEST\BLE\ch57x_ble_uart_mrs_app_only_test\obj/../app/ff.c:3669 (discriminator 1)
			if ((mode & FA_SEEKEND) && fp->obj.objsize > 0) {	/* Seek to end of file if FA_OPEN_APPEND is specified */
    21bc:	9b01      	ldr	r3, [sp, #4]
    21be:	2b00      	cmp	r3, #0
    21c0:	d0ed      	beq.n	219e <f_open+0x14a>
C:\Users\alon\Desktop\github\iot-fan_at_cnblogs\CH577_CH578_CH579\AN\CH579EVT_USB_DISK_TEST\BLE\ch57x_ble_uart_mrs_app_only_test\obj/../app/ff.c:3670
				fp->fptr = fp->obj.objsize;			/* Offset to seek */
    21c2:	616b      	str	r3, [r5, #20]
C:\Users\alon\Desktop\github\iot-fan_at_cnblogs\CH577_CH578_CH579\AN\CH579EVT_USB_DISK_TEST\BLE\ch57x_ble_uart_mrs_app_only_test\obj/../app/ff.c:3671
				bcs = (DWORD)fs->csize * SS(fs);	/* Cluster size in byte */
    21c4:	8964      	ldrh	r4, [r4, #10]
    21c6:	0324      	lsls	r4, r4, #12
C:\Users\alon\Desktop\github\iot-fan_at_cnblogs\CH577_CH578_CH579\AN\CH579EVT_USB_DISK_TEST\BLE\ch57x_ble_uart_mrs_app_only_test\obj/../app/ff.c:3673 (discriminator 3)
				for (ofs = fp->obj.objsize; res == FR_OK && ofs > bcs; ofs -= bcs) {
    21c8:	9b01      	ldr	r3, [sp, #4]
    21ca:	429c      	cmp	r4, r3
    21cc:	d311      	bcc.n	21f2 <f_open+0x19e>
    21ce:	2400      	movs	r4, #0
C:\Users\alon\Desktop\github\iot-fan_at_cnblogs\CH577_CH578_CH579\AN\CH579EVT_USB_DISK_TEST\BLE\ch57x_ble_uart_mrs_app_only_test\obj/../app/ff.c:3678
				fp->clust = clst;
    21d0:	61ae      	str	r6, [r5, #24]
C:\Users\alon\Desktop\github\iot-fan_at_cnblogs\CH577_CH578_CH579\AN\CH579EVT_USB_DISK_TEST\BLE\ch57x_ble_uart_mrs_app_only_test\obj/../app/ff.c:3679
				if (res == FR_OK && ofs % SS(fs)) {	/* Fill sector buffer if not on the sector boundary */
    21d2:	2c00      	cmp	r4, #0
    21d4:	d1ae      	bne.n	2134 <f_open+0xe0>
C:\Users\alon\Desktop\github\iot-fan_at_cnblogs\CH577_CH578_CH579\AN\CH579EVT_USB_DISK_TEST\BLE\ch57x_ble_uart_mrs_app_only_test\obj/../app/ff.c:3679 (discriminator 1)
    21d6:	9b01      	ldr	r3, [sp, #4]
    21d8:	051b      	lsls	r3, r3, #20
    21da:	d0e0      	beq.n	219e <f_open+0x14a>
C:\Users\alon\Desktop\github\iot-fan_at_cnblogs\CH577_CH578_CH579\AN\CH579EVT_USB_DISK_TEST\BLE\ch57x_ble_uart_mrs_app_only_test\obj/../app/ff.c:3680
					if ((sc = clst2sect(fs, clst)) == 0) {
    21dc:	0031      	movs	r1, r6
    21de:	9807      	ldr	r0, [sp, #28]
    21e0:	f7fe fe64 	bl	eac <clst2sect>
    21e4:	1e03      	subs	r3, r0, #0
    21e6:	d014      	beq.n	2212 <f_open+0x1be>
C:\Users\alon\Desktop\github\iot-fan_at_cnblogs\CH577_CH578_CH579\AN\CH579EVT_USB_DISK_TEST\BLE\ch57x_ble_uart_mrs_app_only_test\obj/../app/ff.c:3683
						fp->sect = sc + (DWORD)(ofs / SS(fs));
    21e8:	9a01      	ldr	r2, [sp, #4]
    21ea:	0b10      	lsrs	r0, r2, #12
    21ec:	18c0      	adds	r0, r0, r3
    21ee:	61e8      	str	r0, [r5, #28]
    21f0:	e7a0      	b.n	2134 <f_open+0xe0>
C:\Users\alon\Desktop\github\iot-fan_at_cnblogs\CH577_CH578_CH579\AN\CH579EVT_USB_DISK_TEST\BLE\ch57x_ble_uart_mrs_app_only_test\obj/../app/ff.c:3674
					clst = get_fat(&fp->obj, clst);
    21f2:	0031      	movs	r1, r6
    21f4:	6828      	ldr	r0, [r5, #0]
    21f6:	f7ff f953 	bl	14a0 <get_fat.isra.0>
    21fa:	9b01      	ldr	r3, [sp, #4]
    21fc:	0006      	movs	r6, r0
C:\Users\alon\Desktop\github\iot-fan_at_cnblogs\CH577_CH578_CH579\AN\CH579EVT_USB_DISK_TEST\BLE\ch57x_ble_uart_mrs_app_only_test\obj/../app/ff.c:3675
					if (clst <= 1) res = FR_INT_ERR;
    21fe:	1b1b      	subs	r3, r3, r4
    2200:	9301      	str	r3, [sp, #4]
    2202:	2801      	cmp	r0, #1
    2204:	d903      	bls.n	220e <f_open+0x1ba>
C:\Users\alon\Desktop\github\iot-fan_at_cnblogs\CH577_CH578_CH579\AN\CH579EVT_USB_DISK_TEST\BLE\ch57x_ble_uart_mrs_app_only_test\obj/../app/ff.c:3673
				for (ofs = fp->obj.objsize; res == FR_OK && ofs > bcs; ofs -= bcs) {
    2206:	1c43      	adds	r3, r0, #1
    2208:	d1de      	bne.n	21c8 <f_open+0x174>
C:\Users\alon\Desktop\github\iot-fan_at_cnblogs\CH577_CH578_CH579\AN\CH579EVT_USB_DISK_TEST\BLE\ch57x_ble_uart_mrs_app_only_test\obj/../app/ff.c:3676
					if (clst == 0xFFFFFFFF) res = FR_DISK_ERR;
    220a:	2401      	movs	r4, #1
    220c:	e7e0      	b.n	21d0 <f_open+0x17c>
C:\Users\alon\Desktop\github\iot-fan_at_cnblogs\CH577_CH578_CH579\AN\CH579EVT_USB_DISK_TEST\BLE\ch57x_ble_uart_mrs_app_only_test\obj/../app/ff.c:3675
					if (clst <= 1) res = FR_INT_ERR;
    220e:	2402      	movs	r4, #2
    2210:	e7de      	b.n	21d0 <f_open+0x17c>
C:\Users\alon\Desktop\github\iot-fan_at_cnblogs\CH577_CH578_CH579\AN\CH579EVT_USB_DISK_TEST\BLE\ch57x_ble_uart_mrs_app_only_test\obj/../app/ff.c:3681
						res = FR_INT_ERR;
    2212:	2402      	movs	r4, #2
    2214:	e78e      	b.n	2134 <f_open+0xe0>

00002216 <f_read>:
f_read():
C:\Users\alon\Desktop\github\iot-fan_at_cnblogs\CH577_CH578_CH579\AN\CH579EVT_USB_DISK_TEST\BLE\ch57x_ble_uart_mrs_app_only_test\obj/../app/ff.c:3714
	FIL* fp, 	/* Pointer to the file object */
	void* buff,	/* Pointer to data buffer */
	UINT btr,	/* Number of bytes to read */
	UINT* br	/* Pointer to number of bytes read */
)
{
    2216:	b5f0      	push	{r4, r5, r6, r7, lr}
    2218:	001f      	movs	r7, r3
C:\Users\alon\Desktop\github\iot-fan_at_cnblogs\CH577_CH578_CH579\AN\CH579EVT_USB_DISK_TEST\BLE\ch57x_ble_uart_mrs_app_only_test\obj/../app/ff.c:3723
	FSIZE_t remain;
	UINT rcnt, cc, csect;
	BYTE *rbuff = (BYTE*)buff;


	*br = 0;	/* Clear read byte counter */
    221a:	2300      	movs	r3, #0
C:\Users\alon\Desktop\github\iot-fan_at_cnblogs\CH577_CH578_CH579\AN\CH579EVT_USB_DISK_TEST\BLE\ch57x_ble_uart_mrs_app_only_test\obj/../app/ff.c:3714
{
    221c:	b089      	sub	sp, #36	; 0x24
    221e:	9101      	str	r1, [sp, #4]
C:\Users\alon\Desktop\github\iot-fan_at_cnblogs\CH577_CH578_CH579\AN\CH579EVT_USB_DISK_TEST\BLE\ch57x_ble_uart_mrs_app_only_test\obj/../app/ff.c:3723
	*br = 0;	/* Clear read byte counter */
    2220:	603b      	str	r3, [r7, #0]
C:\Users\alon\Desktop\github\iot-fan_at_cnblogs\CH577_CH578_CH579\AN\CH579EVT_USB_DISK_TEST\BLE\ch57x_ble_uart_mrs_app_only_test\obj/../app/ff.c:3724
	res = validate(&fp->obj, &fs);				/* Check validity of the file object */
    2222:	a907      	add	r1, sp, #28
C:\Users\alon\Desktop\github\iot-fan_at_cnblogs\CH577_CH578_CH579\AN\CH579EVT_USB_DISK_TEST\BLE\ch57x_ble_uart_mrs_app_only_test\obj/../app/ff.c:3714
{
    2224:	0004      	movs	r4, r0
    2226:	0015      	movs	r5, r2
C:\Users\alon\Desktop\github\iot-fan_at_cnblogs\CH577_CH578_CH579\AN\CH579EVT_USB_DISK_TEST\BLE\ch57x_ble_uart_mrs_app_only_test\obj/../app/ff.c:3724
	res = validate(&fp->obj, &fs);				/* Check validity of the file object */
    2228:	f7fe fe74 	bl	f14 <validate>
    222c:	9000      	str	r0, [sp, #0]
C:\Users\alon\Desktop\github\iot-fan_at_cnblogs\CH577_CH578_CH579\AN\CH579EVT_USB_DISK_TEST\BLE\ch57x_ble_uart_mrs_app_only_test\obj/../app/ff.c:3725
	if (res != FR_OK || (res = (FRESULT)fp->err) != FR_OK) LEAVE_FF(fs, res);	/* Check validity */
    222e:	2800      	cmp	r0, #0
    2230:	d127      	bne.n	2282 <f_read+0x6c>
C:\Users\alon\Desktop\github\iot-fan_at_cnblogs\CH577_CH578_CH579\AN\CH579EVT_USB_DISK_TEST\BLE\ch57x_ble_uart_mrs_app_only_test\obj/../app/ff.c:3725 (discriminator 2)
    2232:	7c63      	ldrb	r3, [r4, #17]
    2234:	9300      	str	r3, [sp, #0]
    2236:	2b00      	cmp	r3, #0
    2238:	d123      	bne.n	2282 <f_read+0x6c>
C:\Users\alon\Desktop\github\iot-fan_at_cnblogs\CH577_CH578_CH579\AN\CH579EVT_USB_DISK_TEST\BLE\ch57x_ble_uart_mrs_app_only_test\obj/../app/ff.c:3726
	if (!(fp->flag & FA_READ)) LEAVE_FF(fs, FR_DENIED); /* Check access mode */
    223a:	7c22      	ldrb	r2, [r4, #16]
    223c:	3301      	adds	r3, #1
    223e:	0011      	movs	r1, r2
    2240:	4019      	ands	r1, r3
    2242:	9105      	str	r1, [sp, #20]
    2244:	421a      	tst	r2, r3
    2246:	d100      	bne.n	224a <f_read+0x34>
    2248:	e086      	b.n	2358 <f_read+0x142>
C:\Users\alon\Desktop\github\iot-fan_at_cnblogs\CH577_CH578_CH579\AN\CH579EVT_USB_DISK_TEST\BLE\ch57x_ble_uart_mrs_app_only_test\obj/../app/ff.c:3727
	remain = fp->obj.objsize - fp->fptr;
    224a:	68e3      	ldr	r3, [r4, #12]
    224c:	6962      	ldr	r2, [r4, #20]
    224e:	1a9e      	subs	r6, r3, r2
    2250:	42ae      	cmp	r6, r5
    2252:	d900      	bls.n	2256 <f_read+0x40>
    2254:	002e      	movs	r6, r5
C:\Users\alon\Desktop\github\iot-fan_at_cnblogs\CH577_CH578_CH579\AN\CH579EVT_USB_DISK_TEST\BLE\ch57x_ble_uart_mrs_app_only_test\obj/../app/ff.c:3730
	if (btr > remain) btr = (UINT)remain;		/* Truncate btr by remaining bytes */

	for ( ;  btr;								/* Repeat until btr bytes read */
    2256:	2e00      	cmp	r6, #0
    2258:	d013      	beq.n	2282 <f_read+0x6c>
C:\Users\alon\Desktop\github\iot-fan_at_cnblogs\CH577_CH578_CH579\AN\CH579EVT_USB_DISK_TEST\BLE\ch57x_ble_uart_mrs_app_only_test\obj/../app/ff.c:3732
		btr -= rcnt, *br += rcnt, rbuff += rcnt, fp->fptr += rcnt) {
		if (fp->fptr % SS(fs) == 0) {			/* On the sector boundary? */
    225a:	6962      	ldr	r2, [r4, #20]
    225c:	0513      	lsls	r3, r2, #20
    225e:	d160      	bne.n	2322 <f_read+0x10c>
C:\Users\alon\Desktop\github\iot-fan_at_cnblogs\CH577_CH578_CH579\AN\CH579EVT_USB_DISK_TEST\BLE\ch57x_ble_uart_mrs_app_only_test\obj/../app/ff.c:3733
			csect = (UINT)(fp->fptr / SS(fs) & (fs->csize - 1));	/* Sector offset in the cluster */
    2260:	0b11      	lsrs	r1, r2, #12
    2262:	0008      	movs	r0, r1
    2264:	9b07      	ldr	r3, [sp, #28]
    2266:	895b      	ldrh	r3, [r3, #10]
    2268:	3b01      	subs	r3, #1
    226a:	4018      	ands	r0, r3
    226c:	9003      	str	r0, [sp, #12]
C:\Users\alon\Desktop\github\iot-fan_at_cnblogs\CH577_CH578_CH579\AN\CH579EVT_USB_DISK_TEST\BLE\ch57x_ble_uart_mrs_app_only_test\obj/../app/ff.c:3734
			if (csect == 0) {					/* On the cluster boundary? */
    226e:	4219      	tst	r1, r3
    2270:	d117      	bne.n	22a2 <f_read+0x8c>
C:\Users\alon\Desktop\github\iot-fan_at_cnblogs\CH577_CH578_CH579\AN\CH579EVT_USB_DISK_TEST\BLE\ch57x_ble_uart_mrs_app_only_test\obj/../app/ff.c:3735
				if (fp->fptr == 0) {			/* On the top of the file? */
    2272:	2a00      	cmp	r2, #0
    2274:	d108      	bne.n	2288 <f_read+0x72>
C:\Users\alon\Desktop\github\iot-fan_at_cnblogs\CH577_CH578_CH579\AN\CH579EVT_USB_DISK_TEST\BLE\ch57x_ble_uart_mrs_app_only_test\obj/../app/ff.c:3736
					clst = fp->obj.sclust;		/* Follow cluster chain from the origin */
    2276:	68a0      	ldr	r0, [r4, #8]
C:\Users\alon\Desktop\github\iot-fan_at_cnblogs\CH577_CH578_CH579\AN\CH579EVT_USB_DISK_TEST\BLE\ch57x_ble_uart_mrs_app_only_test\obj/../app/ff.c:3747
#endif
					{
						clst = get_fat(&fp->obj, fp->clust);	/* Follow cluster chain on the FAT */
					}
				}
				if (clst < 2) ABORT(fs, FR_INT_ERR);
    2278:	2801      	cmp	r0, #1
    227a:	d80a      	bhi.n	2292 <f_read+0x7c>
C:\Users\alon\Desktop\github\iot-fan_at_cnblogs\CH577_CH578_CH579\AN\CH579EVT_USB_DISK_TEST\BLE\ch57x_ble_uart_mrs_app_only_test\obj/../app/ff.c:3747 (discriminator 1)
    227c:	2002      	movs	r0, #2
    227e:	7460      	strb	r0, [r4, #17]
    2280:	9000      	str	r0, [sp, #0]
C:\Users\alon\Desktop\github\iot-fan_at_cnblogs\CH577_CH578_CH579\AN\CH579EVT_USB_DISK_TEST\BLE\ch57x_ble_uart_mrs_app_only_test\obj/../app/ff.c:3798
		mem_cpy(rbuff, fp->buf + fp->fptr % SS(fs), rcnt);	/* Extract partial sector */
#endif
	}

	LEAVE_FF(fs, FR_OK);
}
    2282:	9800      	ldr	r0, [sp, #0]
    2284:	b009      	add	sp, #36	; 0x24
    2286:	bdf0      	pop	{r4, r5, r6, r7, pc}
C:\Users\alon\Desktop\github\iot-fan_at_cnblogs\CH577_CH578_CH579\AN\CH579EVT_USB_DISK_TEST\BLE\ch57x_ble_uart_mrs_app_only_test\obj/../app/ff.c:3744
						clst = get_fat(&fp->obj, fp->clust);	/* Follow cluster chain on the FAT */
    2288:	69a1      	ldr	r1, [r4, #24]
    228a:	6820      	ldr	r0, [r4, #0]
    228c:	f7ff f908 	bl	14a0 <get_fat.isra.0>
    2290:	e7f2      	b.n	2278 <f_read+0x62>
C:\Users\alon\Desktop\github\iot-fan_at_cnblogs\CH577_CH578_CH579\AN\CH579EVT_USB_DISK_TEST\BLE\ch57x_ble_uart_mrs_app_only_test\obj/../app/ff.c:3748 (discriminator 2)
				if (clst == 0xFFFFFFFF) ABORT(fs, FR_DISK_ERR);
    2292:	1c43      	adds	r3, r0, #1
    2294:	d104      	bne.n	22a0 <f_read+0x8a>
C:\Users\alon\Desktop\github\iot-fan_at_cnblogs\CH577_CH578_CH579\AN\CH579EVT_USB_DISK_TEST\BLE\ch57x_ble_uart_mrs_app_only_test\obj/../app/ff.c:3748 (discriminator 1)
    2296:	2301      	movs	r3, #1
    2298:	7463      	strb	r3, [r4, #17]
    229a:	9b05      	ldr	r3, [sp, #20]
C:\Users\alon\Desktop\github\iot-fan_at_cnblogs\CH577_CH578_CH579\AN\CH579EVT_USB_DISK_TEST\BLE\ch57x_ble_uart_mrs_app_only_test\obj/../app/ff.c:3726
	if (!(fp->flag & FA_READ)) LEAVE_FF(fs, FR_DENIED); /* Check access mode */
    229c:	9300      	str	r3, [sp, #0]
    229e:	e7f0      	b.n	2282 <f_read+0x6c>
C:\Users\alon\Desktop\github\iot-fan_at_cnblogs\CH577_CH578_CH579\AN\CH579EVT_USB_DISK_TEST\BLE\ch57x_ble_uart_mrs_app_only_test\obj/../app/ff.c:3749 (discriminator 2)
				fp->clust = clst;				/* Update current cluster */
    22a0:	61a0      	str	r0, [r4, #24]
C:\Users\alon\Desktop\github\iot-fan_at_cnblogs\CH577_CH578_CH579\AN\CH579EVT_USB_DISK_TEST\BLE\ch57x_ble_uart_mrs_app_only_test\obj/../app/ff.c:3751
			sect = clst2sect(fs, fp->clust);	/* Get current sector */
    22a2:	9b07      	ldr	r3, [sp, #28]
    22a4:	69a1      	ldr	r1, [r4, #24]
    22a6:	0018      	movs	r0, r3
    22a8:	9302      	str	r3, [sp, #8]
    22aa:	f7fe fdff 	bl	eac <clst2sect>
C:\Users\alon\Desktop\github\iot-fan_at_cnblogs\CH577_CH578_CH579\AN\CH579EVT_USB_DISK_TEST\BLE\ch57x_ble_uart_mrs_app_only_test\obj/../app/ff.c:3752
			if (sect == 0) ABORT(fs, FR_INT_ERR);
    22ae:	2800      	cmp	r0, #0
    22b0:	d0e4      	beq.n	227c <f_read+0x66>
C:\Users\alon\Desktop\github\iot-fan_at_cnblogs\CH577_CH578_CH579\AN\CH579EVT_USB_DISK_TEST\BLE\ch57x_ble_uart_mrs_app_only_test\obj/../app/ff.c:3753 (discriminator 2)
			sect += csect;
    22b2:	9b03      	ldr	r3, [sp, #12]
    22b4:	181b      	adds	r3, r3, r0
    22b6:	9304      	str	r3, [sp, #16]
C:\Users\alon\Desktop\github\iot-fan_at_cnblogs\CH577_CH578_CH579\AN\CH579EVT_USB_DISK_TEST\BLE\ch57x_ble_uart_mrs_app_only_test\obj/../app/ff.c:3755 (discriminator 2)
			if (cc > 0) {						/* Read maximum contiguous sectors directly */
    22b8:	2380      	movs	r3, #128	; 0x80
    22ba:	015b      	lsls	r3, r3, #5
    22bc:	429e      	cmp	r6, r3
    22be:	d32e      	bcc.n	231e <f_read+0x108>
C:\Users\alon\Desktop\github\iot-fan_at_cnblogs\CH577_CH578_CH579\AN\CH579EVT_USB_DISK_TEST\BLE\ch57x_ble_uart_mrs_app_only_test\obj/../app/ff.c:3756
				if (csect + cc > fs->csize) {	/* Clip at cluster boundary */
    22c0:	9b02      	ldr	r3, [sp, #8]
    22c2:	9a03      	ldr	r2, [sp, #12]
C:\Users\alon\Desktop\github\iot-fan_at_cnblogs\CH577_CH578_CH579\AN\CH579EVT_USB_DISK_TEST\BLE\ch57x_ble_uart_mrs_app_only_test\obj/../app/ff.c:3754
			cc = btr / SS(fs);					/* When remaining bytes >= sector size, */
    22c4:	0b35      	lsrs	r5, r6, #12
C:\Users\alon\Desktop\github\iot-fan_at_cnblogs\CH577_CH578_CH579\AN\CH579EVT_USB_DISK_TEST\BLE\ch57x_ble_uart_mrs_app_only_test\obj/../app/ff.c:3756
				if (csect + cc > fs->csize) {	/* Clip at cluster boundary */
    22c6:	895b      	ldrh	r3, [r3, #10]
    22c8:	1952      	adds	r2, r2, r5
    22ca:	429a      	cmp	r2, r3
    22cc:	d901      	bls.n	22d2 <f_read+0xbc>
C:\Users\alon\Desktop\github\iot-fan_at_cnblogs\CH577_CH578_CH579\AN\CH579EVT_USB_DISK_TEST\BLE\ch57x_ble_uart_mrs_app_only_test\obj/../app/ff.c:3757
					cc = fs->csize - csect;
    22ce:	9a03      	ldr	r2, [sp, #12]
    22d0:	1a9d      	subs	r5, r3, r2
C:\Users\alon\Desktop\github\iot-fan_at_cnblogs\CH577_CH578_CH579\AN\CH579EVT_USB_DISK_TEST\BLE\ch57x_ble_uart_mrs_app_only_test\obj/../app/ff.c:3759
				if (disk_read(fs->pdrv, rbuff, sect, cc) != RES_OK) ABORT(fs, FR_DISK_ERR);
    22d2:	9b02      	ldr	r3, [sp, #8]
    22d4:	9a04      	ldr	r2, [sp, #16]
    22d6:	7858      	ldrb	r0, [r3, #1]
    22d8:	9901      	ldr	r1, [sp, #4]
    22da:	002b      	movs	r3, r5
    22dc:	f7fe fd66 	bl	dac <disk_read>
    22e0:	2800      	cmp	r0, #0
    22e2:	d1d8      	bne.n	2296 <f_read+0x80>
C:\Users\alon\Desktop\github\iot-fan_at_cnblogs\CH577_CH578_CH579\AN\CH579EVT_USB_DISK_TEST\BLE\ch57x_ble_uart_mrs_app_only_test\obj/../app/ff.c:3762 (discriminator 2)
				if (fs->wflag && fs->winsect - sect < cc) {
    22e4:	9907      	ldr	r1, [sp, #28]
    22e6:	78cb      	ldrb	r3, [r1, #3]
    22e8:	2b00      	cmp	r3, #0
    22ea:	d00c      	beq.n	2306 <f_read+0xf0>
C:\Users\alon\Desktop\github\iot-fan_at_cnblogs\CH577_CH578_CH579\AN\CH579EVT_USB_DISK_TEST\BLE\ch57x_ble_uart_mrs_app_only_test\obj/../app/ff.c:3762 (discriminator 1)
    22ec:	6b0b      	ldr	r3, [r1, #48]	; 0x30
    22ee:	9a04      	ldr	r2, [sp, #16]
    22f0:	1a98      	subs	r0, r3, r2
    22f2:	42a8      	cmp	r0, r5
    22f4:	d207      	bcs.n	2306 <f_read+0xf0>
mem_cpy():
C:\Users\alon\Desktop\github\iot-fan_at_cnblogs\CH577_CH578_CH579\AN\CH579EVT_USB_DISK_TEST\BLE\ch57x_ble_uart_mrs_app_only_test\obj/../app/ff.c:649
	if (cnt != 0) {
    22f6:	2280      	movs	r2, #128	; 0x80
f_read():
C:\Users\alon\Desktop\github\iot-fan_at_cnblogs\CH577_CH578_CH579\AN\CH579EVT_USB_DISK_TEST\BLE\ch57x_ble_uart_mrs_app_only_test\obj/../app/ff.c:3763
					mem_cpy(rbuff + ((fs->winsect - sect) * SS(fs)), fs->win, SS(fs));
    22f8:	9b01      	ldr	r3, [sp, #4]
    22fa:	0300      	lsls	r0, r0, #12
    22fc:	3134      	adds	r1, #52	; 0x34
    22fe:	1818      	adds	r0, r3, r0
mem_cpy():
C:\Users\alon\Desktop\github\iot-fan_at_cnblogs\CH577_CH578_CH579\AN\CH579EVT_USB_DISK_TEST\BLE\ch57x_ble_uart_mrs_app_only_test\obj/../app/ff.c:3763
    2300:	0152      	lsls	r2, r2, #5
    2302:	f7fe fe25 	bl	f50 <mem_cpy.part.0>
f_read():
C:\Users\alon\Desktop\github\iot-fan_at_cnblogs\CH577_CH578_CH579\AN\CH579EVT_USB_DISK_TEST\BLE\ch57x_ble_uart_mrs_app_only_test\obj/../app/ff.c:3771
				rcnt = SS(fs) * cc;				/* Number of bytes transferred */
    2306:	032d      	lsls	r5, r5, #12
C:\Users\alon\Desktop\github\iot-fan_at_cnblogs\CH577_CH578_CH579\AN\CH579EVT_USB_DISK_TEST\BLE\ch57x_ble_uart_mrs_app_only_test\obj/../app/ff.c:3731
		btr -= rcnt, *br += rcnt, rbuff += rcnt, fp->fptr += rcnt) {
    2308:	683b      	ldr	r3, [r7, #0]
    230a:	1b76      	subs	r6, r6, r5
    230c:	195b      	adds	r3, r3, r5
    230e:	603b      	str	r3, [r7, #0]
    2310:	9b01      	ldr	r3, [sp, #4]
    2312:	195b      	adds	r3, r3, r5
    2314:	9301      	str	r3, [sp, #4]
    2316:	6963      	ldr	r3, [r4, #20]
    2318:	195d      	adds	r5, r3, r5
    231a:	6165      	str	r5, [r4, #20]
    231c:	e79b      	b.n	2256 <f_read+0x40>
C:\Users\alon\Desktop\github\iot-fan_at_cnblogs\CH577_CH578_CH579\AN\CH579EVT_USB_DISK_TEST\BLE\ch57x_ble_uart_mrs_app_only_test\obj/../app/ff.c:3785
			fp->sect = sect;
    231e:	9b04      	ldr	r3, [sp, #16]
    2320:	61e3      	str	r3, [r4, #28]
C:\Users\alon\Desktop\github\iot-fan_at_cnblogs\CH577_CH578_CH579\AN\CH579EVT_USB_DISK_TEST\BLE\ch57x_ble_uart_mrs_app_only_test\obj/../app/ff.c:3787
		rcnt = SS(fs) - (UINT)fp->fptr % SS(fs);	/* Number of bytes left in the sector */
    2322:	2280      	movs	r2, #128	; 0x80
    2324:	6963      	ldr	r3, [r4, #20]
    2326:	0152      	lsls	r2, r2, #5
    2328:	051b      	lsls	r3, r3, #20
    232a:	0d1b      	lsrs	r3, r3, #20
    232c:	0035      	movs	r5, r6
    232e:	1ad3      	subs	r3, r2, r3
C:\Users\alon\Desktop\github\iot-fan_at_cnblogs\CH577_CH578_CH579\AN\CH579EVT_USB_DISK_TEST\BLE\ch57x_ble_uart_mrs_app_only_test\obj/../app/ff.c:3788
		if (rcnt > btr) rcnt = btr;					/* Clip it by btr if needed */
    2330:	429e      	cmp	r6, r3
    2332:	d900      	bls.n	2336 <f_read+0x120>
    2334:	001d      	movs	r5, r3
C:\Users\alon\Desktop\github\iot-fan_at_cnblogs\CH577_CH578_CH579\AN\CH579EVT_USB_DISK_TEST\BLE\ch57x_ble_uart_mrs_app_only_test\obj/../app/ff.c:3790
		if (move_window(fs, fp->sect) != FR_OK) ABORT(fs, FR_DISK_ERR);	/* Move sector window */
    2336:	69e1      	ldr	r1, [r4, #28]
    2338:	9807      	ldr	r0, [sp, #28]
    233a:	f7fe fe51 	bl	fe0 <move_window>
    233e:	2800      	cmp	r0, #0
    2340:	d1a9      	bne.n	2296 <f_read+0x80>
C:\Users\alon\Desktop\github\iot-fan_at_cnblogs\CH577_CH578_CH579\AN\CH579EVT_USB_DISK_TEST\BLE\ch57x_ble_uart_mrs_app_only_test\obj/../app/ff.c:3791 (discriminator 2)
		mem_cpy(rbuff, fs->win + fp->fptr % SS(fs), rcnt);	/* Extract partial sector */
    2342:	6963      	ldr	r3, [r4, #20]
    2344:	9907      	ldr	r1, [sp, #28]
    2346:	051b      	lsls	r3, r3, #20
    2348:	0d1b      	lsrs	r3, r3, #20
    234a:	3134      	adds	r1, #52	; 0x34
mem_cpy():
C:\Users\alon\Desktop\github\iot-fan_at_cnblogs\CH577_CH578_CH579\AN\CH579EVT_USB_DISK_TEST\BLE\ch57x_ble_uart_mrs_app_only_test\obj/../app/ff.c:3791 (discriminator 2)
    234c:	002a      	movs	r2, r5
    234e:	9801      	ldr	r0, [sp, #4]
f_read():
C:\Users\alon\Desktop\github\iot-fan_at_cnblogs\CH577_CH578_CH579\AN\CH579EVT_USB_DISK_TEST\BLE\ch57x_ble_uart_mrs_app_only_test\obj/../app/ff.c:3791 (discriminator 2)
    2350:	18c9      	adds	r1, r1, r3
mem_cpy():
C:\Users\alon\Desktop\github\iot-fan_at_cnblogs\CH577_CH578_CH579\AN\CH579EVT_USB_DISK_TEST\BLE\ch57x_ble_uart_mrs_app_only_test\obj/../app/ff.c:3791 (discriminator 2)
    2352:	f7fe fdfd 	bl	f50 <mem_cpy.part.0>
C:\Users\alon\Desktop\github\iot-fan_at_cnblogs\CH577_CH578_CH579\AN\CH579EVT_USB_DISK_TEST\BLE\ch57x_ble_uart_mrs_app_only_test\obj/../app/ff.c:654 (discriminator 2)
}
    2356:	e7d7      	b.n	2308 <f_read+0xf2>
f_read():
C:\Users\alon\Desktop\github\iot-fan_at_cnblogs\CH577_CH578_CH579\AN\CH579EVT_USB_DISK_TEST\BLE\ch57x_ble_uart_mrs_app_only_test\obj/../app/ff.c:3726
	if (!(fp->flag & FA_READ)) LEAVE_FF(fs, FR_DENIED); /* Check access mode */
    2358:	2307      	movs	r3, #7
    235a:	e79f      	b.n	229c <f_read+0x86>

0000235c <f_write>:
f_write():
C:\Users\alon\Desktop\github\iot-fan_at_cnblogs\CH577_CH578_CH579\AN\CH579EVT_USB_DISK_TEST\BLE\ch57x_ble_uart_mrs_app_only_test\obj/../app/ff.c:3814
	FIL* fp,			/* Pointer to the file object */
	const void* buff,	/* Pointer to the data to be written */
	UINT btw,			/* Number of bytes to write */
	UINT* bw			/* Pointer to number of bytes written */
)
{
    235c:	b5f0      	push	{r4, r5, r6, r7, lr}
    235e:	b089      	sub	sp, #36	; 0x24
    2360:	9305      	str	r3, [sp, #20]
C:\Users\alon\Desktop\github\iot-fan_at_cnblogs\CH577_CH578_CH579\AN\CH579EVT_USB_DISK_TEST\BLE\ch57x_ble_uart_mrs_app_only_test\obj/../app/ff.c:3822
	DWORD clst, sect;
	UINT wcnt, cc, csect;
	const BYTE *wbuff = (const BYTE*)buff;


	*bw = 0;	/* Clear write byte counter */
    2362:	2300      	movs	r3, #0
C:\Users\alon\Desktop\github\iot-fan_at_cnblogs\CH577_CH578_CH579\AN\CH579EVT_USB_DISK_TEST\BLE\ch57x_ble_uart_mrs_app_only_test\obj/../app/ff.c:3814
{
    2364:	0017      	movs	r7, r2
C:\Users\alon\Desktop\github\iot-fan_at_cnblogs\CH577_CH578_CH579\AN\CH579EVT_USB_DISK_TEST\BLE\ch57x_ble_uart_mrs_app_only_test\obj/../app/ff.c:3822
	*bw = 0;	/* Clear write byte counter */
    2366:	9a05      	ldr	r2, [sp, #20]
C:\Users\alon\Desktop\github\iot-fan_at_cnblogs\CH577_CH578_CH579\AN\CH579EVT_USB_DISK_TEST\BLE\ch57x_ble_uart_mrs_app_only_test\obj/../app/ff.c:3814
{
    2368:	9102      	str	r1, [sp, #8]
C:\Users\alon\Desktop\github\iot-fan_at_cnblogs\CH577_CH578_CH579\AN\CH579EVT_USB_DISK_TEST\BLE\ch57x_ble_uart_mrs_app_only_test\obj/../app/ff.c:3822
	*bw = 0;	/* Clear write byte counter */
    236a:	6013      	str	r3, [r2, #0]
C:\Users\alon\Desktop\github\iot-fan_at_cnblogs\CH577_CH578_CH579\AN\CH579EVT_USB_DISK_TEST\BLE\ch57x_ble_uart_mrs_app_only_test\obj/../app/ff.c:3823
	res = validate(&fp->obj, &fs);			/* Check validity of the file object */
    236c:	a907      	add	r1, sp, #28
C:\Users\alon\Desktop\github\iot-fan_at_cnblogs\CH577_CH578_CH579\AN\CH579EVT_USB_DISK_TEST\BLE\ch57x_ble_uart_mrs_app_only_test\obj/../app/ff.c:3814
{
    236e:	0004      	movs	r4, r0
C:\Users\alon\Desktop\github\iot-fan_at_cnblogs\CH577_CH578_CH579\AN\CH579EVT_USB_DISK_TEST\BLE\ch57x_ble_uart_mrs_app_only_test\obj/../app/ff.c:3823
	res = validate(&fp->obj, &fs);			/* Check validity of the file object */
    2370:	f7fe fdd0 	bl	f14 <validate>
    2374:	9001      	str	r0, [sp, #4]
C:\Users\alon\Desktop\github\iot-fan_at_cnblogs\CH577_CH578_CH579\AN\CH579EVT_USB_DISK_TEST\BLE\ch57x_ble_uart_mrs_app_only_test\obj/../app/ff.c:3824
	if (res != FR_OK || (res = (FRESULT)fp->err) != FR_OK) LEAVE_FF(fs, res);	/* Check validity */
    2376:	2800      	cmp	r0, #0
    2378:	d129      	bne.n	23ce <f_write+0x72>
C:\Users\alon\Desktop\github\iot-fan_at_cnblogs\CH577_CH578_CH579\AN\CH579EVT_USB_DISK_TEST\BLE\ch57x_ble_uart_mrs_app_only_test\obj/../app/ff.c:3824 (discriminator 2)
    237a:	7c63      	ldrb	r3, [r4, #17]
    237c:	9301      	str	r3, [sp, #4]
    237e:	2b00      	cmp	r3, #0
    2380:	d125      	bne.n	23ce <f_write+0x72>
C:\Users\alon\Desktop\github\iot-fan_at_cnblogs\CH577_CH578_CH579\AN\CH579EVT_USB_DISK_TEST\BLE\ch57x_ble_uart_mrs_app_only_test\obj/../app/ff.c:3825
	if (!(fp->flag & FA_WRITE)) LEAVE_FF(fs, FR_DENIED);	/* Check access mode */
    2382:	7c23      	ldrb	r3, [r4, #16]
    2384:	079b      	lsls	r3, r3, #30
    2386:	d400      	bmi.n	238a <f_write+0x2e>
    2388:	e0ad      	b.n	24e6 <f_write+0x18a>
C:\Users\alon\Desktop\github\iot-fan_at_cnblogs\CH577_CH578_CH579\AN\CH579EVT_USB_DISK_TEST\BLE\ch57x_ble_uart_mrs_app_only_test\obj/../app/ff.c:3828

	/* Check fptr wrap-around (file size cannot reach 4 GiB at FAT volume) */
	if ((!FF_FS_EXFAT || fs->fs_type != FS_EXFAT) && (DWORD)(fp->fptr + btw) < (DWORD)fp->fptr) {
    238a:	6963      	ldr	r3, [r4, #20]
    238c:	19da      	adds	r2, r3, r7
    238e:	4293      	cmp	r3, r2
    2390:	d900      	bls.n	2394 <f_write+0x38>
C:\Users\alon\Desktop\github\iot-fan_at_cnblogs\CH577_CH578_CH579\AN\CH579EVT_USB_DISK_TEST\BLE\ch57x_ble_uart_mrs_app_only_test\obj/../app/ff.c:3829
		btw = (UINT)(0xFFFFFFFF - (DWORD)fp->fptr);
    2392:	43df      	mvns	r7, r3
C:\Users\alon\Desktop\github\iot-fan_at_cnblogs\CH577_CH578_CH579\AN\CH579EVT_USB_DISK_TEST\BLE\ch57x_ble_uart_mrs_app_only_test\obj/../app/ff.c:3832
	}

	for ( ;  btw;							/* Repeat until all data written */
    2394:	2f00      	cmp	r7, #0
    2396:	d016      	beq.n	23c6 <f_write+0x6a>
C:\Users\alon\Desktop\github\iot-fan_at_cnblogs\CH577_CH578_CH579\AN\CH579EVT_USB_DISK_TEST\BLE\ch57x_ble_uart_mrs_app_only_test\obj/../app/ff.c:3834
		btw -= wcnt, *bw += wcnt, wbuff += wcnt, fp->fptr += wcnt, fp->obj.objsize = (fp->fptr > fp->obj.objsize) ? fp->fptr : fp->obj.objsize) {
		if (fp->fptr % SS(fs) == 0) {		/* On the sector boundary? */
    2398:	6962      	ldr	r2, [r4, #20]
    239a:	0513      	lsls	r3, r2, #20
    239c:	d000      	beq.n	23a0 <f_write+0x44>
    239e:	e084      	b.n	24aa <f_write+0x14e>
C:\Users\alon\Desktop\github\iot-fan_at_cnblogs\CH577_CH578_CH579\AN\CH579EVT_USB_DISK_TEST\BLE\ch57x_ble_uart_mrs_app_only_test\obj/../app/ff.c:3835
			csect = (UINT)(fp->fptr / SS(fs)) & (fs->csize - 1);	/* Sector offset in the cluster */
    23a0:	0b11      	lsrs	r1, r2, #12
    23a2:	0008      	movs	r0, r1
    23a4:	9b07      	ldr	r3, [sp, #28]
    23a6:	895b      	ldrh	r3, [r3, #10]
    23a8:	3b01      	subs	r3, #1
    23aa:	4018      	ands	r0, r3
    23ac:	9004      	str	r0, [sp, #16]
C:\Users\alon\Desktop\github\iot-fan_at_cnblogs\CH577_CH578_CH579\AN\CH579EVT_USB_DISK_TEST\BLE\ch57x_ble_uart_mrs_app_only_test\obj/../app/ff.c:3836
			if (csect == 0) {				/* On the cluster boundary? */
    23ae:	4219      	tst	r1, r3
    23b0:	d121      	bne.n	23f6 <f_write+0x9a>
C:\Users\alon\Desktop\github\iot-fan_at_cnblogs\CH577_CH578_CH579\AN\CH579EVT_USB_DISK_TEST\BLE\ch57x_ble_uart_mrs_app_only_test\obj/../app/ff.c:3837
				if (fp->fptr == 0) {		/* On the top of the file? */
    23b2:	2a00      	cmp	r2, #0
    23b4:	d10e      	bne.n	23d4 <f_write+0x78>
C:\Users\alon\Desktop\github\iot-fan_at_cnblogs\CH577_CH578_CH579\AN\CH579EVT_USB_DISK_TEST\BLE\ch57x_ble_uart_mrs_app_only_test\obj/../app/ff.c:3838
					clst = fp->obj.sclust;	/* Follow from the origin */
    23b6:	68a1      	ldr	r1, [r4, #8]
C:\Users\alon\Desktop\github\iot-fan_at_cnblogs\CH577_CH578_CH579\AN\CH579EVT_USB_DISK_TEST\BLE\ch57x_ble_uart_mrs_app_only_test\obj/../app/ff.c:3839
					if (clst == 0) {		/* If no cluster is allocated, */
    23b8:	2900      	cmp	r1, #0
    23ba:	d10d      	bne.n	23d8 <f_write+0x7c>
C:\Users\alon\Desktop\github\iot-fan_at_cnblogs\CH577_CH578_CH579\AN\CH579EVT_USB_DISK_TEST\BLE\ch57x_ble_uart_mrs_app_only_test\obj/../app/ff.c:3849
					if (fp->cltbl) {
						clst = clmt_clust(fp, fp->fptr);	/* Get cluster# from the CLMT */
					} else
#endif
					{
						clst = create_chain(&fp->obj, fp->clust);	/* Follow or stretch cluster chain on the FAT */
    23bc:	0020      	movs	r0, r4
    23be:	f7ff f918 	bl	15f2 <create_chain>
    23c2:	1e01      	subs	r1, r0, #0
C:\Users\alon\Desktop\github\iot-fan_at_cnblogs\CH577_CH578_CH579\AN\CH579EVT_USB_DISK_TEST\BLE\ch57x_ble_uart_mrs_app_only_test\obj/../app/ff.c:3852
					}
				}
				if (clst == 0) break;		/* Could not allocate a new cluster (disk full) */
    23c4:	d108      	bne.n	23d8 <f_write+0x7c>
C:\Users\alon\Desktop\github\iot-fan_at_cnblogs\CH577_CH578_CH579\AN\CH579EVT_USB_DISK_TEST\BLE\ch57x_ble_uart_mrs_app_only_test\obj/../app/ff.c:3917
		mem_cpy(fp->buf + fp->fptr % SS(fs), wbuff, wcnt);	/* Fit data to the sector */
		fp->flag |= FA_DIRTY;
#endif
	}

	fp->flag |= FA_MODIFIED;				/* Set file change flag */
    23c6:	2340      	movs	r3, #64	; 0x40
    23c8:	7c22      	ldrb	r2, [r4, #16]
    23ca:	4313      	orrs	r3, r2
    23cc:	7423      	strb	r3, [r4, #16]
C:\Users\alon\Desktop\github\iot-fan_at_cnblogs\CH577_CH578_CH579\AN\CH579EVT_USB_DISK_TEST\BLE\ch57x_ble_uart_mrs_app_only_test\obj/../app/ff.c:3920

	LEAVE_FF(fs, FR_OK);
}
    23ce:	9801      	ldr	r0, [sp, #4]
    23d0:	b009      	add	sp, #36	; 0x24
    23d2:	bdf0      	pop	{r4, r5, r6, r7, pc}
C:\Users\alon\Desktop\github\iot-fan_at_cnblogs\CH577_CH578_CH579\AN\CH579EVT_USB_DISK_TEST\BLE\ch57x_ble_uart_mrs_app_only_test\obj/../app/ff.c:3849
						clst = create_chain(&fp->obj, fp->clust);	/* Follow or stretch cluster chain on the FAT */
    23d4:	69a1      	ldr	r1, [r4, #24]
    23d6:	e7f1      	b.n	23bc <f_write+0x60>
C:\Users\alon\Desktop\github\iot-fan_at_cnblogs\CH577_CH578_CH579\AN\CH579EVT_USB_DISK_TEST\BLE\ch57x_ble_uart_mrs_app_only_test\obj/../app/ff.c:3853
				if (clst == 1) ABORT(fs, FR_INT_ERR);
    23d8:	2901      	cmp	r1, #1
    23da:	d103      	bne.n	23e4 <f_write+0x88>
C:\Users\alon\Desktop\github\iot-fan_at_cnblogs\CH577_CH578_CH579\AN\CH579EVT_USB_DISK_TEST\BLE\ch57x_ble_uart_mrs_app_only_test\obj/../app/ff.c:3853 (discriminator 1)
    23dc:	2002      	movs	r0, #2
C:\Users\alon\Desktop\github\iot-fan_at_cnblogs\CH577_CH578_CH579\AN\CH579EVT_USB_DISK_TEST\BLE\ch57x_ble_uart_mrs_app_only_test\obj/../app/ff.c:3854 (discriminator 1)
				if (clst == 0xFFFFFFFF) ABORT(fs, FR_DISK_ERR);
    23de:	7460      	strb	r0, [r4, #17]
    23e0:	9001      	str	r0, [sp, #4]
    23e2:	e7f4      	b.n	23ce <f_write+0x72>
C:\Users\alon\Desktop\github\iot-fan_at_cnblogs\CH577_CH578_CH579\AN\CH579EVT_USB_DISK_TEST\BLE\ch57x_ble_uart_mrs_app_only_test\obj/../app/ff.c:3854 (discriminator 2)
    23e4:	1c4b      	adds	r3, r1, #1
    23e6:	d101      	bne.n	23ec <f_write+0x90>
C:\Users\alon\Desktop\github\iot-fan_at_cnblogs\CH577_CH578_CH579\AN\CH579EVT_USB_DISK_TEST\BLE\ch57x_ble_uart_mrs_app_only_test\obj/../app/ff.c:3854 (discriminator 1)
    23e8:	2001      	movs	r0, #1
    23ea:	e7f8      	b.n	23de <f_write+0x82>
C:\Users\alon\Desktop\github\iot-fan_at_cnblogs\CH577_CH578_CH579\AN\CH579EVT_USB_DISK_TEST\BLE\ch57x_ble_uart_mrs_app_only_test\obj/../app/ff.c:3856 (discriminator 2)
				if (fp->obj.sclust == 0) fp->obj.sclust = clst;	/* Set start cluster if the first write */
    23ec:	68a3      	ldr	r3, [r4, #8]
C:\Users\alon\Desktop\github\iot-fan_at_cnblogs\CH577_CH578_CH579\AN\CH579EVT_USB_DISK_TEST\BLE\ch57x_ble_uart_mrs_app_only_test\obj/../app/ff.c:3855 (discriminator 2)
				fp->clust = clst;			/* Update current cluster */
    23ee:	61a1      	str	r1, [r4, #24]
C:\Users\alon\Desktop\github\iot-fan_at_cnblogs\CH577_CH578_CH579\AN\CH579EVT_USB_DISK_TEST\BLE\ch57x_ble_uart_mrs_app_only_test\obj/../app/ff.c:3856 (discriminator 2)
				if (fp->obj.sclust == 0) fp->obj.sclust = clst;	/* Set start cluster if the first write */
    23f0:	2b00      	cmp	r3, #0
    23f2:	d100      	bne.n	23f6 <f_write+0x9a>
C:\Users\alon\Desktop\github\iot-fan_at_cnblogs\CH577_CH578_CH579\AN\CH579EVT_USB_DISK_TEST\BLE\ch57x_ble_uart_mrs_app_only_test\obj/../app/ff.c:3856 (discriminator 1)
    23f4:	60a1      	str	r1, [r4, #8]
C:\Users\alon\Desktop\github\iot-fan_at_cnblogs\CH577_CH578_CH579\AN\CH579EVT_USB_DISK_TEST\BLE\ch57x_ble_uart_mrs_app_only_test\obj/../app/ff.c:3859
			if (fs->winsect == fp->sect && sync_window(fs) != FR_OK) ABORT(fs, FR_DISK_ERR);	/* Write-back sector cache */
    23f6:	9807      	ldr	r0, [sp, #28]
    23f8:	69e2      	ldr	r2, [r4, #28]
    23fa:	6b03      	ldr	r3, [r0, #48]	; 0x30
    23fc:	4293      	cmp	r3, r2
    23fe:	d103      	bne.n	2408 <f_write+0xac>
C:\Users\alon\Desktop\github\iot-fan_at_cnblogs\CH577_CH578_CH579\AN\CH579EVT_USB_DISK_TEST\BLE\ch57x_ble_uart_mrs_app_only_test\obj/../app/ff.c:3859 (discriminator 1)
    2400:	f7fe fdc9 	bl	f96 <sync_window>
    2404:	2800      	cmp	r0, #0
    2406:	d1ef      	bne.n	23e8 <f_write+0x8c>
C:\Users\alon\Desktop\github\iot-fan_at_cnblogs\CH577_CH578_CH579\AN\CH579EVT_USB_DISK_TEST\BLE\ch57x_ble_uart_mrs_app_only_test\obj/../app/ff.c:3866
			sect = clst2sect(fs, fp->clust);	/* Get current sector */
    2408:	9b07      	ldr	r3, [sp, #28]
    240a:	69a1      	ldr	r1, [r4, #24]
    240c:	0018      	movs	r0, r3
    240e:	9303      	str	r3, [sp, #12]
    2410:	f7fe fd4c 	bl	eac <clst2sect>
C:\Users\alon\Desktop\github\iot-fan_at_cnblogs\CH577_CH578_CH579\AN\CH579EVT_USB_DISK_TEST\BLE\ch57x_ble_uart_mrs_app_only_test\obj/../app/ff.c:3867
			if (sect == 0) ABORT(fs, FR_INT_ERR);
    2414:	2800      	cmp	r0, #0
    2416:	d0e1      	beq.n	23dc <f_write+0x80>
C:\Users\alon\Desktop\github\iot-fan_at_cnblogs\CH577_CH578_CH579\AN\CH579EVT_USB_DISK_TEST\BLE\ch57x_ble_uart_mrs_app_only_test\obj/../app/ff.c:3868 (discriminator 2)
			sect += csect;
    2418:	9b04      	ldr	r3, [sp, #16]
    241a:	181e      	adds	r6, r3, r0
C:\Users\alon\Desktop\github\iot-fan_at_cnblogs\CH577_CH578_CH579\AN\CH579EVT_USB_DISK_TEST\BLE\ch57x_ble_uart_mrs_app_only_test\obj/../app/ff.c:3870 (discriminator 2)
			if (cc > 0) {					/* Write maximum contiguous sectors directly */
    241c:	2380      	movs	r3, #128	; 0x80
    241e:	015b      	lsls	r3, r3, #5
    2420:	429f      	cmp	r7, r3
    2422:	d336      	bcc.n	2492 <f_write+0x136>
C:\Users\alon\Desktop\github\iot-fan_at_cnblogs\CH577_CH578_CH579\AN\CH579EVT_USB_DISK_TEST\BLE\ch57x_ble_uart_mrs_app_only_test\obj/../app/ff.c:3871
				if (csect + cc > fs->csize) {	/* Clip at cluster boundary */
    2424:	9b03      	ldr	r3, [sp, #12]
    2426:	9a04      	ldr	r2, [sp, #16]
C:\Users\alon\Desktop\github\iot-fan_at_cnblogs\CH577_CH578_CH579\AN\CH579EVT_USB_DISK_TEST\BLE\ch57x_ble_uart_mrs_app_only_test\obj/../app/ff.c:3869
			cc = btw / SS(fs);				/* When remaining bytes >= sector size, */
    2428:	0b3d      	lsrs	r5, r7, #12
C:\Users\alon\Desktop\github\iot-fan_at_cnblogs\CH577_CH578_CH579\AN\CH579EVT_USB_DISK_TEST\BLE\ch57x_ble_uart_mrs_app_only_test\obj/../app/ff.c:3871
				if (csect + cc > fs->csize) {	/* Clip at cluster boundary */
    242a:	895b      	ldrh	r3, [r3, #10]
    242c:	1952      	adds	r2, r2, r5
    242e:	429a      	cmp	r2, r3
    2430:	d901      	bls.n	2436 <f_write+0xda>
C:\Users\alon\Desktop\github\iot-fan_at_cnblogs\CH577_CH578_CH579\AN\CH579EVT_USB_DISK_TEST\BLE\ch57x_ble_uart_mrs_app_only_test\obj/../app/ff.c:3872
					cc = fs->csize - csect;
    2432:	9a04      	ldr	r2, [sp, #16]
    2434:	1a9d      	subs	r5, r3, r2
C:\Users\alon\Desktop\github\iot-fan_at_cnblogs\CH577_CH578_CH579\AN\CH579EVT_USB_DISK_TEST\BLE\ch57x_ble_uart_mrs_app_only_test\obj/../app/ff.c:3874
				if (disk_write(fs->pdrv, wbuff, sect, cc) != RES_OK) ABORT(fs, FR_DISK_ERR);
    2436:	9b03      	ldr	r3, [sp, #12]
    2438:	0032      	movs	r2, r6
    243a:	7858      	ldrb	r0, [r3, #1]
    243c:	9902      	ldr	r1, [sp, #8]
    243e:	002b      	movs	r3, r5
    2440:	f7fe fcf4 	bl	e2c <disk_write>
    2444:	9003      	str	r0, [sp, #12]
    2446:	2800      	cmp	r0, #0
    2448:	d1ce      	bne.n	23e8 <f_write+0x8c>
C:\Users\alon\Desktop\github\iot-fan_at_cnblogs\CH577_CH578_CH579\AN\CH579EVT_USB_DISK_TEST\BLE\ch57x_ble_uart_mrs_app_only_test\obj/../app/ff.c:3877 (discriminator 2)
				if (fs->winsect - sect < cc) {	/* Refill sector cache if it gets invalidated by the direct write */
    244a:	9807      	ldr	r0, [sp, #28]
    244c:	6b03      	ldr	r3, [r0, #48]	; 0x30
    244e:	1b9e      	subs	r6, r3, r6
    2450:	42ae      	cmp	r6, r5
    2452:	d20a      	bcs.n	246a <f_write+0x10e>
mem_cpy():
C:\Users\alon\Desktop\github\iot-fan_at_cnblogs\CH577_CH578_CH579\AN\CH579EVT_USB_DISK_TEST\BLE\ch57x_ble_uart_mrs_app_only_test\obj/../app/ff.c:649
	if (cnt != 0) {
    2454:	2280      	movs	r2, #128	; 0x80
f_write():
C:\Users\alon\Desktop\github\iot-fan_at_cnblogs\CH577_CH578_CH579\AN\CH579EVT_USB_DISK_TEST\BLE\ch57x_ble_uart_mrs_app_only_test\obj/../app/ff.c:3878
					mem_cpy(fs->win, wbuff + ((fs->winsect - sect) * SS(fs)), SS(fs));
    2456:	9b02      	ldr	r3, [sp, #8]
    2458:	0336      	lsls	r6, r6, #12
    245a:	1999      	adds	r1, r3, r6
mem_cpy():
C:\Users\alon\Desktop\github\iot-fan_at_cnblogs\CH577_CH578_CH579\AN\CH579EVT_USB_DISK_TEST\BLE\ch57x_ble_uart_mrs_app_only_test\obj/../app/ff.c:3878
    245c:	0152      	lsls	r2, r2, #5
f_write():
C:\Users\alon\Desktop\github\iot-fan_at_cnblogs\CH577_CH578_CH579\AN\CH579EVT_USB_DISK_TEST\BLE\ch57x_ble_uart_mrs_app_only_test\obj/../app/ff.c:3878
    245e:	3034      	adds	r0, #52	; 0x34
mem_cpy():
C:\Users\alon\Desktop\github\iot-fan_at_cnblogs\CH577_CH578_CH579\AN\CH579EVT_USB_DISK_TEST\BLE\ch57x_ble_uart_mrs_app_only_test\obj/../app/ff.c:3878
    2460:	f7fe fd76 	bl	f50 <mem_cpy.part.0>
f_write():
C:\Users\alon\Desktop\github\iot-fan_at_cnblogs\CH577_CH578_CH579\AN\CH579EVT_USB_DISK_TEST\BLE\ch57x_ble_uart_mrs_app_only_test\obj/../app/ff.c:3879
					fs->wflag = 0;
    2464:	9b07      	ldr	r3, [sp, #28]
    2466:	9a03      	ldr	r2, [sp, #12]
    2468:	70da      	strb	r2, [r3, #3]
C:\Users\alon\Desktop\github\iot-fan_at_cnblogs\CH577_CH578_CH579\AN\CH579EVT_USB_DISK_TEST\BLE\ch57x_ble_uart_mrs_app_only_test\obj/../app/ff.c:3888
				wcnt = SS(fs) * cc;		/* Number of bytes transferred */
    246a:	032d      	lsls	r5, r5, #12
C:\Users\alon\Desktop\github\iot-fan_at_cnblogs\CH577_CH578_CH579\AN\CH579EVT_USB_DISK_TEST\BLE\ch57x_ble_uart_mrs_app_only_test\obj/../app/ff.c:3833
		btw -= wcnt, *bw += wcnt, wbuff += wcnt, fp->fptr += wcnt, fp->obj.objsize = (fp->fptr > fp->obj.objsize) ? fp->fptr : fp->obj.objsize) {
    246c:	9b05      	ldr	r3, [sp, #20]
    246e:	9a05      	ldr	r2, [sp, #20]
    2470:	681b      	ldr	r3, [r3, #0]
    2472:	1b7f      	subs	r7, r7, r5
    2474:	9303      	str	r3, [sp, #12]
    2476:	195b      	adds	r3, r3, r5
    2478:	6013      	str	r3, [r2, #0]
    247a:	9b02      	ldr	r3, [sp, #8]
    247c:	195b      	adds	r3, r3, r5
    247e:	9302      	str	r3, [sp, #8]
    2480:	6963      	ldr	r3, [r4, #20]
    2482:	18ed      	adds	r5, r5, r3
    2484:	68e3      	ldr	r3, [r4, #12]
    2486:	6165      	str	r5, [r4, #20]
    2488:	42ab      	cmp	r3, r5
    248a:	d200      	bcs.n	248e <f_write+0x132>
    248c:	002b      	movs	r3, r5
    248e:	60e3      	str	r3, [r4, #12]
    2490:	e780      	b.n	2394 <f_write+0x38>
C:\Users\alon\Desktop\github\iot-fan_at_cnblogs\CH577_CH578_CH579\AN\CH579EVT_USB_DISK_TEST\BLE\ch57x_ble_uart_mrs_app_only_test\obj/../app/ff.c:3892
			if (fp->fptr >= fp->obj.objsize) {	/* Avoid silly cache filling on the growing edge */
    2492:	6963      	ldr	r3, [r4, #20]
    2494:	68e2      	ldr	r2, [r4, #12]
    2496:	4293      	cmp	r3, r2
    2498:	d306      	bcc.n	24a8 <f_write+0x14c>
C:\Users\alon\Desktop\github\iot-fan_at_cnblogs\CH577_CH578_CH579\AN\CH579EVT_USB_DISK_TEST\BLE\ch57x_ble_uart_mrs_app_only_test\obj/../app/ff.c:3893
				if (sync_window(fs) != FR_OK) ABORT(fs, FR_DISK_ERR);
    249a:	9803      	ldr	r0, [sp, #12]
    249c:	f7fe fd7b 	bl	f96 <sync_window>
    24a0:	2800      	cmp	r0, #0
    24a2:	d1a1      	bne.n	23e8 <f_write+0x8c>
C:\Users\alon\Desktop\github\iot-fan_at_cnblogs\CH577_CH578_CH579\AN\CH579EVT_USB_DISK_TEST\BLE\ch57x_ble_uart_mrs_app_only_test\obj/../app/ff.c:3894 (discriminator 2)
				fs->winsect = sect;
    24a4:	9b07      	ldr	r3, [sp, #28]
    24a6:	631e      	str	r6, [r3, #48]	; 0x30
C:\Users\alon\Desktop\github\iot-fan_at_cnblogs\CH577_CH578_CH579\AN\CH579EVT_USB_DISK_TEST\BLE\ch57x_ble_uart_mrs_app_only_test\obj/../app/ff.c:3903
			fp->sect = sect;
    24a8:	61e6      	str	r6, [r4, #28]
C:\Users\alon\Desktop\github\iot-fan_at_cnblogs\CH577_CH578_CH579\AN\CH579EVT_USB_DISK_TEST\BLE\ch57x_ble_uart_mrs_app_only_test\obj/../app/ff.c:3905
		wcnt = SS(fs) - (UINT)fp->fptr % SS(fs);	/* Number of bytes left in the sector */
    24aa:	2280      	movs	r2, #128	; 0x80
    24ac:	6963      	ldr	r3, [r4, #20]
    24ae:	0152      	lsls	r2, r2, #5
    24b0:	051b      	lsls	r3, r3, #20
    24b2:	0d1b      	lsrs	r3, r3, #20
    24b4:	003d      	movs	r5, r7
    24b6:	1ad3      	subs	r3, r2, r3
C:\Users\alon\Desktop\github\iot-fan_at_cnblogs\CH577_CH578_CH579\AN\CH579EVT_USB_DISK_TEST\BLE\ch57x_ble_uart_mrs_app_only_test\obj/../app/ff.c:3906
		if (wcnt > btw) wcnt = btw;					/* Clip it by btw if needed */
    24b8:	429f      	cmp	r7, r3
    24ba:	d900      	bls.n	24be <f_write+0x162>
    24bc:	001d      	movs	r5, r3
C:\Users\alon\Desktop\github\iot-fan_at_cnblogs\CH577_CH578_CH579\AN\CH579EVT_USB_DISK_TEST\BLE\ch57x_ble_uart_mrs_app_only_test\obj/../app/ff.c:3908
		if (move_window(fs, fp->sect) != FR_OK) ABORT(fs, FR_DISK_ERR);	/* Move sector window */
    24be:	69e1      	ldr	r1, [r4, #28]
    24c0:	9807      	ldr	r0, [sp, #28]
    24c2:	f7fe fd8d 	bl	fe0 <move_window>
    24c6:	2800      	cmp	r0, #0
    24c8:	d18e      	bne.n	23e8 <f_write+0x8c>
C:\Users\alon\Desktop\github\iot-fan_at_cnblogs\CH577_CH578_CH579\AN\CH579EVT_USB_DISK_TEST\BLE\ch57x_ble_uart_mrs_app_only_test\obj/../app/ff.c:3909 (discriminator 2)
		mem_cpy(fs->win + fp->fptr % SS(fs), wbuff, wcnt);	/* Fit data to the sector */
    24ca:	6963      	ldr	r3, [r4, #20]
    24cc:	9807      	ldr	r0, [sp, #28]
    24ce:	051b      	lsls	r3, r3, #20
    24d0:	0d1b      	lsrs	r3, r3, #20
    24d2:	3034      	adds	r0, #52	; 0x34
mem_cpy():
C:\Users\alon\Desktop\github\iot-fan_at_cnblogs\CH577_CH578_CH579\AN\CH579EVT_USB_DISK_TEST\BLE\ch57x_ble_uart_mrs_app_only_test\obj/../app/ff.c:3909 (discriminator 2)
    24d4:	002a      	movs	r2, r5
f_write():
C:\Users\alon\Desktop\github\iot-fan_at_cnblogs\CH577_CH578_CH579\AN\CH579EVT_USB_DISK_TEST\BLE\ch57x_ble_uart_mrs_app_only_test\obj/../app/ff.c:3909 (discriminator 2)
    24d6:	18c0      	adds	r0, r0, r3
mem_cpy():
C:\Users\alon\Desktop\github\iot-fan_at_cnblogs\CH577_CH578_CH579\AN\CH579EVT_USB_DISK_TEST\BLE\ch57x_ble_uart_mrs_app_only_test\obj/../app/ff.c:3909 (discriminator 2)
    24d8:	9902      	ldr	r1, [sp, #8]
    24da:	f7fe fd39 	bl	f50 <mem_cpy.part.0>
f_write():
C:\Users\alon\Desktop\github\iot-fan_at_cnblogs\CH577_CH578_CH579\AN\CH579EVT_USB_DISK_TEST\BLE\ch57x_ble_uart_mrs_app_only_test\obj/../app/ff.c:3910 (discriminator 2)
		fs->wflag = 1;
    24de:	2201      	movs	r2, #1
    24e0:	9b07      	ldr	r3, [sp, #28]
    24e2:	70da      	strb	r2, [r3, #3]
    24e4:	e7c2      	b.n	246c <f_write+0x110>
C:\Users\alon\Desktop\github\iot-fan_at_cnblogs\CH577_CH578_CH579\AN\CH579EVT_USB_DISK_TEST\BLE\ch57x_ble_uart_mrs_app_only_test\obj/../app/ff.c:3825
	if (!(fp->flag & FA_WRITE)) LEAVE_FF(fs, FR_DENIED);	/* Check access mode */
    24e6:	2307      	movs	r3, #7
    24e8:	9301      	str	r3, [sp, #4]
    24ea:	e770      	b.n	23ce <f_write+0x72>

000024ec <f_sync>:
f_sync():
C:\Users\alon\Desktop\github\iot-fan_at_cnblogs\CH577_CH578_CH579\AN\CH579EVT_USB_DISK_TEST\BLE\ch57x_ble_uart_mrs_app_only_test\obj/../app/ff.c:3932
/*-----------------------------------------------------------------------*/

FRESULT f_sync (
	FIL* fp		/* Pointer to the file object */
)
{
    24ec:	b5f7      	push	{r0, r1, r2, r4, r5, r6, r7, lr}
C:\Users\alon\Desktop\github\iot-fan_at_cnblogs\CH577_CH578_CH579\AN\CH579EVT_USB_DISK_TEST\BLE\ch57x_ble_uart_mrs_app_only_test\obj/../app/ff.c:3939
	FATFS *fs;
	DWORD tm;
	BYTE *dir;


	res = validate(&fp->obj, &fs);	/* Check validity of the file object */
    24ee:	a901      	add	r1, sp, #4
C:\Users\alon\Desktop\github\iot-fan_at_cnblogs\CH577_CH578_CH579\AN\CH579EVT_USB_DISK_TEST\BLE\ch57x_ble_uart_mrs_app_only_test\obj/../app/ff.c:3932
{
    24f0:	0005      	movs	r5, r0
C:\Users\alon\Desktop\github\iot-fan_at_cnblogs\CH577_CH578_CH579\AN\CH579EVT_USB_DISK_TEST\BLE\ch57x_ble_uart_mrs_app_only_test\obj/../app/ff.c:3939
	res = validate(&fp->obj, &fs);	/* Check validity of the file object */
    24f2:	f7fe fd0f 	bl	f14 <validate>
    24f6:	1e04      	subs	r4, r0, #0
C:\Users\alon\Desktop\github\iot-fan_at_cnblogs\CH577_CH578_CH579\AN\CH579EVT_USB_DISK_TEST\BLE\ch57x_ble_uart_mrs_app_only_test\obj/../app/ff.c:3940
	if (res == FR_OK) {
    24f8:	d12b      	bne.n	2552 <f_sync+0x66>
C:\Users\alon\Desktop\github\iot-fan_at_cnblogs\CH577_CH578_CH579\AN\CH579EVT_USB_DISK_TEST\BLE\ch57x_ble_uart_mrs_app_only_test\obj/../app/ff.c:3941
		if (fp->flag & FA_MODIFIED) {	/* Is there any change to the file? */
    24fa:	7c2b      	ldrb	r3, [r5, #16]
    24fc:	2740      	movs	r7, #64	; 0x40
    24fe:	001c      	movs	r4, r3
    2500:	403c      	ands	r4, r7
    2502:	423b      	tst	r3, r7
    2504:	d025      	beq.n	2552 <f_sync+0x66>
C:\Users\alon\Desktop\github\iot-fan_at_cnblogs\CH577_CH578_CH579\AN\CH579EVT_USB_DISK_TEST\BLE\ch57x_ble_uart_mrs_app_only_test\obj/../app/ff.c:3982
					FREE_NAMBUF();
				}
			} else
#endif
			{
				res = move_window(fs, fp->dir_sect);
    2506:	6a29      	ldr	r1, [r5, #32]
    2508:	9801      	ldr	r0, [sp, #4]
    250a:	f7fe fd69 	bl	fe0 <move_window>
    250e:	1e04      	subs	r4, r0, #0
C:\Users\alon\Desktop\github\iot-fan_at_cnblogs\CH577_CH578_CH579\AN\CH579EVT_USB_DISK_TEST\BLE\ch57x_ble_uart_mrs_app_only_test\obj/../app/ff.c:3983
				if (res == FR_OK) {
    2510:	d11f      	bne.n	2552 <f_sync+0x66>
C:\Users\alon\Desktop\github\iot-fan_at_cnblogs\CH577_CH578_CH579\AN\CH579EVT_USB_DISK_TEST\BLE\ch57x_ble_uart_mrs_app_only_test\obj/../app/ff.c:3985
					dir = fp->dir_ptr;
					dir[DIR_Attr] |= AM_ARC;						/* Set archive attribute to indicate that the file has been changed */
    2512:	2320      	movs	r3, #32
C:\Users\alon\Desktop\github\iot-fan_at_cnblogs\CH577_CH578_CH579\AN\CH579EVT_USB_DISK_TEST\BLE\ch57x_ble_uart_mrs_app_only_test\obj/../app/ff.c:3984
					dir = fp->dir_ptr;
    2514:	6a6e      	ldr	r6, [r5, #36]	; 0x24
C:\Users\alon\Desktop\github\iot-fan_at_cnblogs\CH577_CH578_CH579\AN\CH579EVT_USB_DISK_TEST\BLE\ch57x_ble_uart_mrs_app_only_test\obj/../app/ff.c:3985
					dir[DIR_Attr] |= AM_ARC;						/* Set archive attribute to indicate that the file has been changed */
    2516:	7af2      	ldrb	r2, [r6, #11]
C:\Users\alon\Desktop\github\iot-fan_at_cnblogs\CH577_CH578_CH579\AN\CH579EVT_USB_DISK_TEST\BLE\ch57x_ble_uart_mrs_app_only_test\obj/../app/ff.c:3986
					st_clust(fp->obj.fs, dir, fp->obj.sclust);		/* Update file allocation information  */
    2518:	0031      	movs	r1, r6
C:\Users\alon\Desktop\github\iot-fan_at_cnblogs\CH577_CH578_CH579\AN\CH579EVT_USB_DISK_TEST\BLE\ch57x_ble_uart_mrs_app_only_test\obj/../app/ff.c:3985
					dir[DIR_Attr] |= AM_ARC;						/* Set archive attribute to indicate that the file has been changed */
    251a:	4313      	orrs	r3, r2
    251c:	72f3      	strb	r3, [r6, #11]
C:\Users\alon\Desktop\github\iot-fan_at_cnblogs\CH577_CH578_CH579\AN\CH579EVT_USB_DISK_TEST\BLE\ch57x_ble_uart_mrs_app_only_test\obj/../app/ff.c:3986
					st_clust(fp->obj.fs, dir, fp->obj.sclust);		/* Update file allocation information  */
    251e:	68aa      	ldr	r2, [r5, #8]
    2520:	6828      	ldr	r0, [r5, #0]
    2522:	f7fe fd2c 	bl	f7e <st_clust.isra.0>
C:\Users\alon\Desktop\github\iot-fan_at_cnblogs\CH577_CH578_CH579\AN\CH579EVT_USB_DISK_TEST\BLE\ch57x_ble_uart_mrs_app_only_test\obj/../app/ff.c:3987
					st_dword(dir + DIR_FileSize, (DWORD)fp->obj.objsize);	/* Update file size */
    2526:	0030      	movs	r0, r6
    2528:	68e9      	ldr	r1, [r5, #12]
    252a:	301c      	adds	r0, #28
    252c:	f7fe fca3 	bl	e76 <st_dword>
st_dword():
C:\Users\alon\Desktop\github\iot-fan_at_cnblogs\CH577_CH578_CH579\AN\CH579EVT_USB_DISK_TEST\BLE\ch57x_ble_uart_mrs_app_only_test\obj/../app/ff.c:618
	*ptr++ = (BYTE)val; val >>= 8;
    2530:	2321      	movs	r3, #33	; 0x21
f_sync():
C:\Users\alon\Desktop\github\iot-fan_at_cnblogs\CH577_CH578_CH579\AN\CH579EVT_USB_DISK_TEST\BLE\ch57x_ble_uart_mrs_app_only_test\obj/../app/ff.c:3990
					st_dword(dir + DIR_ModTime, tm);				/* Update modified time */
					st_word(dir + DIR_LstAccDate, 0);
					fs->wflag = 1;
    2532:	9801      	ldr	r0, [sp, #4]
st_dword():
C:\Users\alon\Desktop\github\iot-fan_at_cnblogs\CH577_CH578_CH579\AN\CH579EVT_USB_DISK_TEST\BLE\ch57x_ble_uart_mrs_app_only_test\obj/../app/ff.c:618
	*ptr++ = (BYTE)val; val >>= 8;
    2534:	7633      	strb	r3, [r6, #24]
C:\Users\alon\Desktop\github\iot-fan_at_cnblogs\CH577_CH578_CH579\AN\CH579EVT_USB_DISK_TEST\BLE\ch57x_ble_uart_mrs_app_only_test\obj/../app/ff.c:619
	*ptr++ = (BYTE)val;
    2536:	332b      	adds	r3, #43	; 0x2b
    2538:	7673      	strb	r3, [r6, #25]
f_sync():
C:\Users\alon\Desktop\github\iot-fan_at_cnblogs\CH577_CH578_CH579\AN\CH579EVT_USB_DISK_TEST\BLE\ch57x_ble_uart_mrs_app_only_test\obj/../app/ff.c:3990
					fs->wflag = 1;
    253a:	3b4b      	subs	r3, #75	; 0x4b
st_dword():
C:\Users\alon\Desktop\github\iot-fan_at_cnblogs\CH577_CH578_CH579\AN\CH579EVT_USB_DISK_TEST\BLE\ch57x_ble_uart_mrs_app_only_test\obj/../app/ff.c:616
	*ptr++ = (BYTE)val; val >>= 8;
    253c:	75b4      	strb	r4, [r6, #22]
C:\Users\alon\Desktop\github\iot-fan_at_cnblogs\CH577_CH578_CH579\AN\CH579EVT_USB_DISK_TEST\BLE\ch57x_ble_uart_mrs_app_only_test\obj/../app/ff.c:617
	*ptr++ = (BYTE)val; val >>= 8;
    253e:	75f4      	strb	r4, [r6, #23]
st_word():
C:\Users\alon\Desktop\github\iot-fan_at_cnblogs\CH577_CH578_CH579\AN\CH579EVT_USB_DISK_TEST\BLE\ch57x_ble_uart_mrs_app_only_test\obj/../app/ff.c:610
	*ptr++ = (BYTE)val; val >>= 8;
    2540:	74b4      	strb	r4, [r6, #18]
C:\Users\alon\Desktop\github\iot-fan_at_cnblogs\CH577_CH578_CH579\AN\CH579EVT_USB_DISK_TEST\BLE\ch57x_ble_uart_mrs_app_only_test\obj/../app/ff.c:611
	*ptr++ = (BYTE)val;
    2542:	74f4      	strb	r4, [r6, #19]
f_sync():
C:\Users\alon\Desktop\github\iot-fan_at_cnblogs\CH577_CH578_CH579\AN\CH579EVT_USB_DISK_TEST\BLE\ch57x_ble_uart_mrs_app_only_test\obj/../app/ff.c:3990
					fs->wflag = 1;
    2544:	70c3      	strb	r3, [r0, #3]
C:\Users\alon\Desktop\github\iot-fan_at_cnblogs\CH577_CH578_CH579\AN\CH579EVT_USB_DISK_TEST\BLE\ch57x_ble_uart_mrs_app_only_test\obj/../app/ff.c:3991
					res = sync_fs(fs);					/* Restore it to the directory */
    2546:	f7ff fb93 	bl	1c70 <sync_fs>
    254a:	0004      	movs	r4, r0
C:\Users\alon\Desktop\github\iot-fan_at_cnblogs\CH577_CH578_CH579\AN\CH579EVT_USB_DISK_TEST\BLE\ch57x_ble_uart_mrs_app_only_test\obj/../app/ff.c:3992
					fp->flag &= (BYTE)~FA_MODIFIED;
    254c:	7c2b      	ldrb	r3, [r5, #16]
    254e:	43bb      	bics	r3, r7
    2550:	742b      	strb	r3, [r5, #16]
C:\Users\alon\Desktop\github\iot-fan_at_cnblogs\CH577_CH578_CH579\AN\CH579EVT_USB_DISK_TEST\BLE\ch57x_ble_uart_mrs_app_only_test\obj/../app/ff.c:3999
			}
		}
	}

	LEAVE_FF(fs, res);
}
    2552:	0020      	movs	r0, r4
    2554:	bdfe      	pop	{r1, r2, r3, r4, r5, r6, r7, pc}

00002556 <f_close>:
f_close():
C:\Users\alon\Desktop\github\iot-fan_at_cnblogs\CH577_CH578_CH579\AN\CH579EVT_USB_DISK_TEST\BLE\ch57x_ble_uart_mrs_app_only_test\obj/../app/ff.c:4013
/*-----------------------------------------------------------------------*/

FRESULT f_close (
	FIL* fp		/* Pointer to the file object to be closed */
)
{
    2556:	b513      	push	{r0, r1, r4, lr}
    2558:	0004      	movs	r4, r0
C:\Users\alon\Desktop\github\iot-fan_at_cnblogs\CH577_CH578_CH579\AN\CH579EVT_USB_DISK_TEST\BLE\ch57x_ble_uart_mrs_app_only_test\obj/../app/ff.c:4018
	FRESULT res;
	FATFS *fs;

#if !FF_FS_READONLY
	res = f_sync(fp);					/* Flush cached data */
    255a:	f7ff ffc7 	bl	24ec <f_sync>
C:\Users\alon\Desktop\github\iot-fan_at_cnblogs\CH577_CH578_CH579\AN\CH579EVT_USB_DISK_TEST\BLE\ch57x_ble_uart_mrs_app_only_test\obj/../app/ff.c:4019
	if (res == FR_OK)
    255e:	2800      	cmp	r0, #0
    2560:	d106      	bne.n	2570 <f_close+0x1a>
C:\Users\alon\Desktop\github\iot-fan_at_cnblogs\CH577_CH578_CH579\AN\CH579EVT_USB_DISK_TEST\BLE\ch57x_ble_uart_mrs_app_only_test\obj/../app/ff.c:4022
#endif
	{
		res = validate(&fp->obj, &fs);	/* Lock volume */
    2562:	0020      	movs	r0, r4
    2564:	a901      	add	r1, sp, #4
    2566:	f7fe fcd5 	bl	f14 <validate>
C:\Users\alon\Desktop\github\iot-fan_at_cnblogs\CH577_CH578_CH579\AN\CH579EVT_USB_DISK_TEST\BLE\ch57x_ble_uart_mrs_app_only_test\obj/../app/ff.c:4023
		if (res == FR_OK) {
    256a:	2800      	cmp	r0, #0
    256c:	d100      	bne.n	2570 <f_close+0x1a>
C:\Users\alon\Desktop\github\iot-fan_at_cnblogs\CH577_CH578_CH579\AN\CH579EVT_USB_DISK_TEST\BLE\ch57x_ble_uart_mrs_app_only_test\obj/../app/ff.c:4028
#if FF_FS_LOCK != 0
			res = dec_lock(fp->obj.lockid);		/* Decrement file open counter */
			if (res == FR_OK) fp->obj.fs = 0;	/* Invalidate file object */
#else
			fp->obj.fs = 0;	/* Invalidate file object */
    256e:	6020      	str	r0, [r4, #0]
C:\Users\alon\Desktop\github\iot-fan_at_cnblogs\CH577_CH578_CH579\AN\CH579EVT_USB_DISK_TEST\BLE\ch57x_ble_uart_mrs_app_only_test\obj/../app/ff.c:4036
			unlock_fs(fs, FR_OK);		/* Unlock volume */
#endif
		}
	}
	return res;
}
    2570:	bd16      	pop	{r1, r2, r4, pc}
	...

00002574 <f_mkfs>:
f_mkfs():
C:\Users\alon\Desktop\github\iot-fan_at_cnblogs\CH577_CH578_CH579\AN\CH579EVT_USB_DISK_TEST\BLE\ch57x_ble_uart_mrs_app_only_test\obj/../app/ff.c:5512
	BYTE opt,			/* Format option */
	DWORD au,			/* Size of allocation unit (cluster) [byte] */
	void* work,			/* Pointer to working buffer (null: use heap memory) */
	UINT len			/* Size of working buffer [byte] */
)
{
    2574:	b5f0      	push	{r4, r5, r6, r7, lr}
    2576:	b091      	sub	sp, #68	; 0x44
    2578:	900d      	str	r0, [sp, #52]	; 0x34
C:\Users\alon\Desktop\github\iot-fan_at_cnblogs\CH577_CH578_CH579\AN\CH579EVT_USB_DISK_TEST\BLE\ch57x_ble_uart_mrs_app_only_test\obj/../app/ff.c:5531
	DWORD tbl[3];
#endif


	/* Check mounted drive and clear work area */
	vol = get_ldnumber(&path);					/* Get target logical drive */
    257a:	a80d      	add	r0, sp, #52	; 0x34
C:\Users\alon\Desktop\github\iot-fan_at_cnblogs\CH577_CH578_CH579\AN\CH579EVT_USB_DISK_TEST\BLE\ch57x_ble_uart_mrs_app_only_test\obj/../app/ff.c:5512
{
    257c:	000f      	movs	r7, r1
    257e:	0015      	movs	r5, r2
    2580:	9300      	str	r3, [sp, #0]
C:\Users\alon\Desktop\github\iot-fan_at_cnblogs\CH577_CH578_CH579\AN\CH579EVT_USB_DISK_TEST\BLE\ch57x_ble_uart_mrs_app_only_test\obj/../app/ff.c:5531
	vol = get_ldnumber(&path);					/* Get target logical drive */
    2582:	f7fe fcad 	bl	ee0 <get_ldnumber>
C:\Users\alon\Desktop\github\iot-fan_at_cnblogs\CH577_CH578_CH579\AN\CH579EVT_USB_DISK_TEST\BLE\ch57x_ble_uart_mrs_app_only_test\obj/../app/ff.c:5532
	if (vol < 0) return FR_INVALID_DRIVE;
    2586:	260b      	movs	r6, #11
    2588:	2800      	cmp	r0, #0
    258a:	db52      	blt.n	2632 <f_mkfs+0xbe>
C:\Users\alon\Desktop\github\iot-fan_at_cnblogs\CH577_CH578_CH579\AN\CH579EVT_USB_DISK_TEST\BLE\ch57x_ble_uart_mrs_app_only_test\obj/../app/ff.c:5533
	if (FatFs[vol]) FatFs[vol]->fs_type = 0;	/* Clear the volume if mounted */
    258c:	4b98      	ldr	r3, [pc, #608]	; (27f0 <f_mkfs+0x27c>)
    258e:	0082      	lsls	r2, r0, #2
    2590:	58d3      	ldr	r3, [r2, r3]
    2592:	2b00      	cmp	r3, #0
    2594:	d001      	beq.n	259a <f_mkfs+0x26>
C:\Users\alon\Desktop\github\iot-fan_at_cnblogs\CH577_CH578_CH579\AN\CH579EVT_USB_DISK_TEST\BLE\ch57x_ble_uart_mrs_app_only_test\obj/../app/ff.c:5533 (discriminator 1)
    2596:	2200      	movs	r2, #0
    2598:	701a      	strb	r2, [r3, #0]
C:\Users\alon\Desktop\github\iot-fan_at_cnblogs\CH577_CH578_CH579\AN\CH579EVT_USB_DISK_TEST\BLE\ch57x_ble_uart_mrs_app_only_test\obj/../app/ff.c:5534
	pdrv = LD2PD(vol);	/* Physical drive */
    259a:	b2c3      	uxtb	r3, r0
C:\Users\alon\Desktop\github\iot-fan_at_cnblogs\CH577_CH578_CH579\AN\CH579EVT_USB_DISK_TEST\BLE\ch57x_ble_uart_mrs_app_only_test\obj/../app/ff.c:5538
	part = LD2PT(vol);	/* Partition (0:create as new, 1-4:get from partition table) */

	/* Check physical drive status */
	stat = disk_initialize(pdrv);
    259c:	0018      	movs	r0, r3
C:\Users\alon\Desktop\github\iot-fan_at_cnblogs\CH577_CH578_CH579\AN\CH579EVT_USB_DISK_TEST\BLE\ch57x_ble_uart_mrs_app_only_test\obj/../app/ff.c:5534
	pdrv = LD2PD(vol);	/* Physical drive */
    259e:	9304      	str	r3, [sp, #16]
C:\Users\alon\Desktop\github\iot-fan_at_cnblogs\CH577_CH578_CH579\AN\CH579EVT_USB_DISK_TEST\BLE\ch57x_ble_uart_mrs_app_only_test\obj/../app/ff.c:5538
	stat = disk_initialize(pdrv);
    25a0:	f7fe fbbc 	bl	d1c <disk_initialize>
C:\Users\alon\Desktop\github\iot-fan_at_cnblogs\CH577_CH578_CH579\AN\CH579EVT_USB_DISK_TEST\BLE\ch57x_ble_uart_mrs_app_only_test\obj/../app/ff.c:5539
	if (stat & STA_NOINIT) return FR_NOT_READY;
    25a4:	2603      	movs	r6, #3
    25a6:	07c3      	lsls	r3, r0, #31
    25a8:	d443      	bmi.n	2632 <f_mkfs+0xbe>
C:\Users\alon\Desktop\github\iot-fan_at_cnblogs\CH577_CH578_CH579\AN\CH579EVT_USB_DISK_TEST\BLE\ch57x_ble_uart_mrs_app_only_test\obj/../app/ff.c:5540
	if (stat & STA_PROTECT) return FR_WRITE_PROTECTED;
    25aa:	3607      	adds	r6, #7
    25ac:	0743      	lsls	r3, r0, #29
    25ae:	d440      	bmi.n	2632 <f_mkfs+0xbe>
C:\Users\alon\Desktop\github\iot-fan_at_cnblogs\CH577_CH578_CH579\AN\CH579EVT_USB_DISK_TEST\BLE\ch57x_ble_uart_mrs_app_only_test\obj/../app/ff.c:5541
	if (disk_ioctl(pdrv, GET_BLOCK_SIZE, &sz_blk) != RES_OK || !sz_blk || sz_blk > 32768 || (sz_blk & (sz_blk - 1))) sz_blk = 1;	/* Erase block to align data area */
    25b0:	2103      	movs	r1, #3
    25b2:	9804      	ldr	r0, [sp, #16]
    25b4:	aa0e      	add	r2, sp, #56	; 0x38
    25b6:	f7fe fbc7 	bl	d48 <disk_ioctl>
    25ba:	2800      	cmp	r0, #0
    25bc:	d107      	bne.n	25ce <f_mkfs+0x5a>
C:\Users\alon\Desktop\github\iot-fan_at_cnblogs\CH577_CH578_CH579\AN\CH579EVT_USB_DISK_TEST\BLE\ch57x_ble_uart_mrs_app_only_test\obj/../app/ff.c:5541 (discriminator 2)
    25be:	2180      	movs	r1, #128	; 0x80
    25c0:	9b0e      	ldr	r3, [sp, #56]	; 0x38
    25c2:	0209      	lsls	r1, r1, #8
    25c4:	1e5a      	subs	r2, r3, #1
    25c6:	428a      	cmp	r2, r1
    25c8:	d201      	bcs.n	25ce <f_mkfs+0x5a>
C:\Users\alon\Desktop\github\iot-fan_at_cnblogs\CH577_CH578_CH579\AN\CH579EVT_USB_DISK_TEST\BLE\ch57x_ble_uart_mrs_app_only_test\obj/../app/ff.c:5541 (discriminator 6)
    25ca:	421a      	tst	r2, r3
    25cc:	d001      	beq.n	25d2 <f_mkfs+0x5e>
C:\Users\alon\Desktop\github\iot-fan_at_cnblogs\CH577_CH578_CH579\AN\CH579EVT_USB_DISK_TEST\BLE\ch57x_ble_uart_mrs_app_only_test\obj/../app/ff.c:5541 (discriminator 7)
    25ce:	2301      	movs	r3, #1
    25d0:	930e      	str	r3, [sp, #56]	; 0x38
C:\Users\alon\Desktop\github\iot-fan_at_cnblogs\CH577_CH578_CH579\AN\CH579EVT_USB_DISK_TEST\BLE\ch57x_ble_uart_mrs_app_only_test\obj/../app/ff.c:5548
	if (disk_ioctl(pdrv, GET_SECTOR_SIZE, &ss) != RES_OK) return FR_DISK_ERR;
	if (ss > FF_MAX_SS || ss < FF_MIN_SS || (ss & (ss - 1))) return FR_DISK_ERR;
#else
	ss = FF_MAX_SS;
#endif
	if ((au != 0 && au < ss) || au > 0x1000000 || (au & (au - 1))) return FR_INVALID_PARAMETER;	/* Check if au is valid */
    25d2:	2d00      	cmp	r5, #0
    25d4:	d009      	beq.n	25ea <f_mkfs+0x76>
C:\Users\alon\Desktop\github\iot-fan_at_cnblogs\CH577_CH578_CH579\AN\CH579EVT_USB_DISK_TEST\BLE\ch57x_ble_uart_mrs_app_only_test\obj/../app/ff.c:5548 (discriminator 1)
    25d6:	4b87      	ldr	r3, [pc, #540]	; (27f4 <f_mkfs+0x280>)
    25d8:	4a87      	ldr	r2, [pc, #540]	; (27f8 <f_mkfs+0x284>)
    25da:	18eb      	adds	r3, r5, r3
    25dc:	4293      	cmp	r3, r2
    25de:	d901      	bls.n	25e4 <f_mkfs+0x70>
C:\Users\alon\Desktop\github\iot-fan_at_cnblogs\CH577_CH578_CH579\AN\CH579EVT_USB_DISK_TEST\BLE\ch57x_ble_uart_mrs_app_only_test\obj/../app/ff.c:5590 (discriminator 3)
		if (FF_FS_EXFAT && (opt & FM_EXFAT)) {	/* exFAT possible? */
			if ((opt & FM_ANY) == FM_EXFAT || sz_vol >= 0x4000000 || au > 128) {	/* exFAT only, vol >= 64Ms or au > 128s ? */
				fmt = FS_EXFAT; break;
			}
		}
		if (au > 128) LEAVE_MKFS(FR_INVALID_PARAMETER);	/* Too large au for FAT/FAT32 */
    25e0:	2613      	movs	r6, #19
    25e2:	e026      	b.n	2632 <f_mkfs+0xbe>
C:\Users\alon\Desktop\github\iot-fan_at_cnblogs\CH577_CH578_CH579\AN\CH579EVT_USB_DISK_TEST\BLE\ch57x_ble_uart_mrs_app_only_test\obj/../app/ff.c:5548 (discriminator 6)
	if ((au != 0 && au < ss) || au > 0x1000000 || (au & (au - 1))) return FR_INVALID_PARAMETER;	/* Check if au is valid */
    25e4:	1e6b      	subs	r3, r5, #1
    25e6:	421d      	tst	r5, r3
    25e8:	d1fa      	bne.n	25e0 <f_mkfs+0x6c>
C:\Users\alon\Desktop\github\iot-fan_at_cnblogs\CH577_CH578_CH579\AN\CH579EVT_USB_DISK_TEST\BLE\ch57x_ble_uart_mrs_app_only_test\obj/../app/ff.c:5553
	if (!work) {	/* Use heap memory for working buffer */
    25ea:	9b00      	ldr	r3, [sp, #0]
    25ec:	2b00      	cmp	r3, #0
    25ee:	d123      	bne.n	2638 <f_mkfs+0xc4>
C:\Users\alon\Desktop\github\iot-fan_at_cnblogs\CH577_CH578_CH579\AN\CH579EVT_USB_DISK_TEST\BLE\ch57x_ble_uart_mrs_app_only_test\obj/../app/ff.c:5554
		for (szb_buf = MAX_MALLOC, buf = 0; szb_buf >= ss && (buf = ff_memalloc(szb_buf)) == 0; szb_buf /= 2) ;
    25f0:	2380      	movs	r3, #128	; 0x80
    25f2:	2604      	movs	r6, #4
    25f4:	021b      	lsls	r3, r3, #8
    25f6:	9308      	str	r3, [sp, #32]
C:\Users\alon\Desktop\github\iot-fan_at_cnblogs\CH577_CH578_CH579\AN\CH579EVT_USB_DISK_TEST\BLE\ch57x_ble_uart_mrs_app_only_test\obj/../app/ff.c:5554 (discriminator 3)
    25f8:	9808      	ldr	r0, [sp, #32]
    25fa:	f000 facf 	bl	2b9c <ff_memalloc>
    25fe:	9b08      	ldr	r3, [sp, #32]
    2600:	1e04      	subs	r4, r0, #0
    2602:	d010      	beq.n	2626 <f_mkfs+0xb2>
C:\Users\alon\Desktop\github\iot-fan_at_cnblogs\CH577_CH578_CH579\AN\CH579EVT_USB_DISK_TEST\BLE\ch57x_ble_uart_mrs_app_only_test\obj/../app/ff.c:5555
		sz_buf = szb_buf / ss;		/* Size of working buffer (sector) */
    2604:	0b1b      	lsrs	r3, r3, #12
    2606:	9307      	str	r3, [sp, #28]
C:\Users\alon\Desktop\github\iot-fan_at_cnblogs\CH577_CH578_CH579\AN\CH579EVT_USB_DISK_TEST\BLE\ch57x_ble_uart_mrs_app_only_test\obj/../app/ff.c:5563 (discriminator 2)
	if (!buf || sz_buf == 0) return FR_NOT_ENOUGH_CORE;
    2608:	9b07      	ldr	r3, [sp, #28]
    260a:	2b00      	cmp	r3, #0
    260c:	d010      	beq.n	2630 <f_mkfs+0xbc>
C:\Users\alon\Desktop\github\iot-fan_at_cnblogs\CH577_CH578_CH579\AN\CH579EVT_USB_DISK_TEST\BLE\ch57x_ble_uart_mrs_app_only_test\obj/../app/ff.c:5576
		if (disk_ioctl(pdrv, GET_SECTOR_COUNT, &sz_vol) != RES_OK) LEAVE_MKFS(FR_DISK_ERR);
    260e:	2101      	movs	r1, #1
    2610:	9804      	ldr	r0, [sp, #16]
    2612:	aa0f      	add	r2, sp, #60	; 0x3c
    2614:	f7fe fb98 	bl	d48 <disk_ioctl>
    2618:	2800      	cmp	r0, #0
    261a:	d014      	beq.n	2646 <f_mkfs+0xd2>
C:\Users\alon\Desktop\github\iot-fan_at_cnblogs\CH577_CH578_CH579\AN\CH579EVT_USB_DISK_TEST\BLE\ch57x_ble_uart_mrs_app_only_test\obj/../app/ff.c:5576 (discriminator 1)
    261c:	2601      	movs	r6, #1
    261e:	9b00      	ldr	r3, [sp, #0]
C:\Users\alon\Desktop\github\iot-fan_at_cnblogs\CH577_CH578_CH579\AN\CH579EVT_USB_DISK_TEST\BLE\ch57x_ble_uart_mrs_app_only_test\obj/../app/ff.c:5960 (discriminator 2)
		}
	}

	if (disk_ioctl(pdrv, CTRL_SYNC, 0) != RES_OK) LEAVE_MKFS(FR_DISK_ERR);

	LEAVE_MKFS(FR_OK);
    2620:	2b00      	cmp	r3, #0
    2622:	d106      	bne.n	2632 <f_mkfs+0xbe>
    2624:	e285      	b.n	2b32 <f_mkfs+0x5be>
C:\Users\alon\Desktop\github\iot-fan_at_cnblogs\CH577_CH578_CH579\AN\CH579EVT_USB_DISK_TEST\BLE\ch57x_ble_uart_mrs_app_only_test\obj/../app/ff.c:5554 (discriminator 4)
		for (szb_buf = MAX_MALLOC, buf = 0; szb_buf >= ss && (buf = ff_memalloc(szb_buf)) == 0; szb_buf /= 2) ;
    2626:	085b      	lsrs	r3, r3, #1
    2628:	3e01      	subs	r6, #1
    262a:	9308      	str	r3, [sp, #32]
    262c:	2e00      	cmp	r6, #0
    262e:	d1e3      	bne.n	25f8 <f_mkfs+0x84>
C:\Users\alon\Desktop\github\iot-fan_at_cnblogs\CH577_CH578_CH579\AN\CH579EVT_USB_DISK_TEST\BLE\ch57x_ble_uart_mrs_app_only_test\obj/../app/ff.c:5563
	if (!buf || sz_buf == 0) return FR_NOT_ENOUGH_CORE;
    2630:	2611      	movs	r6, #17
C:\Users\alon\Desktop\github\iot-fan_at_cnblogs\CH577_CH578_CH579\AN\CH579EVT_USB_DISK_TEST\BLE\ch57x_ble_uart_mrs_app_only_test\obj/../app/ff.c:5961
}
    2632:	0030      	movs	r0, r6
    2634:	b011      	add	sp, #68	; 0x44
    2636:	bdf0      	pop	{r4, r5, r6, r7, pc}
C:\Users\alon\Desktop\github\iot-fan_at_cnblogs\CH577_CH578_CH579\AN\CH579EVT_USB_DISK_TEST\BLE\ch57x_ble_uart_mrs_app_only_test\obj/../app/ff.c:5560
		sz_buf = len / ss;		/* Size of working buffer (sector) */
    2638:	9b16      	ldr	r3, [sp, #88]	; 0x58
C:\Users\alon\Desktop\github\iot-fan_at_cnblogs\CH577_CH578_CH579\AN\CH579EVT_USB_DISK_TEST\BLE\ch57x_ble_uart_mrs_app_only_test\obj/../app/ff.c:5561
		szb_buf = sz_buf * ss;	/* Size of working buffer (byte) */
    263a:	9c00      	ldr	r4, [sp, #0]
C:\Users\alon\Desktop\github\iot-fan_at_cnblogs\CH577_CH578_CH579\AN\CH579EVT_USB_DISK_TEST\BLE\ch57x_ble_uart_mrs_app_only_test\obj/../app/ff.c:5560
		sz_buf = len / ss;		/* Size of working buffer (sector) */
    263c:	0b1b      	lsrs	r3, r3, #12
    263e:	9307      	str	r3, [sp, #28]
C:\Users\alon\Desktop\github\iot-fan_at_cnblogs\CH577_CH578_CH579\AN\CH579EVT_USB_DISK_TEST\BLE\ch57x_ble_uart_mrs_app_only_test\obj/../app/ff.c:5561
		szb_buf = sz_buf * ss;	/* Size of working buffer (byte) */
    2640:	031b      	lsls	r3, r3, #12
    2642:	9308      	str	r3, [sp, #32]
C:\Users\alon\Desktop\github\iot-fan_at_cnblogs\CH577_CH578_CH579\AN\CH579EVT_USB_DISK_TEST\BLE\ch57x_ble_uart_mrs_app_only_test\obj/../app/ff.c:5563
	if (!buf || sz_buf == 0) return FR_NOT_ENOUGH_CORE;
    2644:	e7e0      	b.n	2608 <f_mkfs+0x94>
C:\Users\alon\Desktop\github\iot-fan_at_cnblogs\CH577_CH578_CH579\AN\CH579EVT_USB_DISK_TEST\BLE\ch57x_ble_uart_mrs_app_only_test\obj/../app/ff.c:5577 (discriminator 2)
		b_vol = (opt & FM_SFD) ? 0 : 63;		/* Volume start sector */
    2646:	2308      	movs	r3, #8
    2648:	003a      	movs	r2, r7
    264a:	401a      	ands	r2, r3
    264c:	9209      	str	r2, [sp, #36]	; 0x24
    264e:	9003      	str	r0, [sp, #12]
    2650:	421f      	tst	r7, r3
    2652:	d101      	bne.n	2658 <f_mkfs+0xe4>
C:\Users\alon\Desktop\github\iot-fan_at_cnblogs\CH577_CH578_CH579\AN\CH579EVT_USB_DISK_TEST\BLE\ch57x_ble_uart_mrs_app_only_test\obj/../app/ff.c:5577
    2654:	3337      	adds	r3, #55	; 0x37
    2656:	9303      	str	r3, [sp, #12]
C:\Users\alon\Desktop\github\iot-fan_at_cnblogs\CH577_CH578_CH579\AN\CH579EVT_USB_DISK_TEST\BLE\ch57x_ble_uart_mrs_app_only_test\obj/../app/ff.c:5578 (discriminator 4)
		if (sz_vol < b_vol) LEAVE_MKFS(FR_MKFS_ABORTED);
    2658:	9e0f      	ldr	r6, [sp, #60]	; 0x3c
    265a:	9b03      	ldr	r3, [sp, #12]
    265c:	429e      	cmp	r6, r3
    265e:	d207      	bcs.n	2670 <f_mkfs+0xfc>
C:\Users\alon\Desktop\github\iot-fan_at_cnblogs\CH577_CH578_CH579\AN\CH579EVT_USB_DISK_TEST\BLE\ch57x_ble_uart_mrs_app_only_test\obj/../app/ff.c:5829 (discriminator 3)
			if (fmt == FS_FAT12 && n_clst > MAX_FAT12) LEAVE_MKFS(FR_MKFS_ABORTED);	/* Too many clusters for FAT12 */
    2660:	9b00      	ldr	r3, [sp, #0]
    2662:	2b00      	cmp	r3, #0
    2664:	d102      	bne.n	266c <f_mkfs+0xf8>
C:\Users\alon\Desktop\github\iot-fan_at_cnblogs\CH577_CH578_CH579\AN\CH579EVT_USB_DISK_TEST\BLE\ch57x_ble_uart_mrs_app_only_test\obj/../app/ff.c:5578 (discriminator 3)
		if (sz_vol < b_vol) LEAVE_MKFS(FR_MKFS_ABORTED);
    2666:	0020      	movs	r0, r4
    2668:	f000 fa9c 	bl	2ba4 <ff_memfree>
    266c:	260e      	movs	r6, #14
    266e:	e7e0      	b.n	2632 <f_mkfs+0xbe>
C:\Users\alon\Desktop\github\iot-fan_at_cnblogs\CH577_CH578_CH579\AN\CH579EVT_USB_DISK_TEST\BLE\ch57x_ble_uart_mrs_app_only_test\obj/../app/ff.c:5579 (discriminator 2)
		sz_vol -= b_vol;						/* Volume size */
    2670:	9b03      	ldr	r3, [sp, #12]
    2672:	1af3      	subs	r3, r6, r3
    2674:	9306      	str	r3, [sp, #24]
    2676:	930f      	str	r3, [sp, #60]	; 0x3c
C:\Users\alon\Desktop\github\iot-fan_at_cnblogs\CH577_CH578_CH579\AN\CH579EVT_USB_DISK_TEST\BLE\ch57x_ble_uart_mrs_app_only_test\obj/../app/ff.c:5581 (discriminator 2)
	if (sz_vol < 128) LEAVE_MKFS(FR_MKFS_ABORTED);	/* Check if volume size is >=128s */
    2678:	2b7f      	cmp	r3, #127	; 0x7f
    267a:	d9f1      	bls.n	2660 <f_mkfs+0xec>
C:\Users\alon\Desktop\github\iot-fan_at_cnblogs\CH577_CH578_CH579\AN\CH579EVT_USB_DISK_TEST\BLE\ch57x_ble_uart_mrs_app_only_test\obj/../app/ff.c:5590
		if (au > 128) LEAVE_MKFS(FR_INVALID_PARAMETER);	/* Too large au for FAT/FAT32 */
    267c:	2381      	movs	r3, #129	; 0x81
    267e:	031b      	lsls	r3, r3, #12
    2680:	429d      	cmp	r5, r3
    2682:	d306      	bcc.n	2692 <f_mkfs+0x11e>
C:\Users\alon\Desktop\github\iot-fan_at_cnblogs\CH577_CH578_CH579\AN\CH579EVT_USB_DISK_TEST\BLE\ch57x_ble_uart_mrs_app_only_test\obj/../app/ff.c:5590 (discriminator 1)
    2684:	9b00      	ldr	r3, [sp, #0]
    2686:	2b00      	cmp	r3, #0
    2688:	d1aa      	bne.n	25e0 <f_mkfs+0x6c>
C:\Users\alon\Desktop\github\iot-fan_at_cnblogs\CH577_CH578_CH579\AN\CH579EVT_USB_DISK_TEST\BLE\ch57x_ble_uart_mrs_app_only_test\obj/../app/ff.c:5590 (discriminator 3)
    268a:	0020      	movs	r0, r4
    268c:	f000 fa8a 	bl	2ba4 <ff_memfree>
    2690:	e7a6      	b.n	25e0 <f_mkfs+0x6c>
    2692:	2302      	movs	r3, #2
    2694:	003a      	movs	r2, r7
    2696:	401a      	ands	r2, r3
C:\Users\alon\Desktop\github\iot-fan_at_cnblogs\CH577_CH578_CH579\AN\CH579EVT_USB_DISK_TEST\BLE\ch57x_ble_uart_mrs_app_only_test\obj/../app/ff.c:5549 (discriminator 2)
	au /= ss;	/* Cluster size in unit of sector */
    2698:	0b2d      	lsrs	r5, r5, #12
C:\Users\alon\Desktop\github\iot-fan_at_cnblogs\CH577_CH578_CH579\AN\CH579EVT_USB_DISK_TEST\BLE\ch57x_ble_uart_mrs_app_only_test\obj/../app/ff.c:5591 (discriminator 2)
		if (opt & FM_FAT32) {	/* FAT32 possible? */
    269a:	920c      	str	r2, [sp, #48]	; 0x30
    269c:	421f      	tst	r7, r3
    269e:	d079      	beq.n	2794 <f_mkfs+0x220>
C:\Users\alon\Desktop\github\iot-fan_at_cnblogs\CH577_CH578_CH579\AN\CH579EVT_USB_DISK_TEST\BLE\ch57x_ble_uart_mrs_app_only_test\obj/../app/ff.c:5592
			if ((opt & FM_ANY) == FM_FAT32 || !(opt & FM_FAT)) {	/* FAT32 only or no-FAT? */
    26a0:	3305      	adds	r3, #5
    26a2:	403b      	ands	r3, r7
    26a4:	2b02      	cmp	r3, #2
    26a6:	d051      	beq.n	274c <f_mkfs+0x1d8>
C:\Users\alon\Desktop\github\iot-fan_at_cnblogs\CH577_CH578_CH579\AN\CH579EVT_USB_DISK_TEST\BLE\ch57x_ble_uart_mrs_app_only_test\obj/../app/ff.c:5592 (discriminator 1)
    26a8:	07fb      	lsls	r3, r7, #31
    26aa:	d54f      	bpl.n	274c <f_mkfs+0x1d8>
C:\Users\alon\Desktop\github\iot-fan_at_cnblogs\CH577_CH578_CH579\AN\CH579EVT_USB_DISK_TEST\BLE\ch57x_ble_uart_mrs_app_only_test\obj/../app/ff.c:5778
				if (pau == 0) {	/* au auto-selection */
    26ac:	1e2e      	subs	r6, r5, #0
    26ae:	d109      	bne.n	26c4 <f_mkfs+0x150>
C:\Users\alon\Desktop\github\iot-fan_at_cnblogs\CH577_CH578_CH579\AN\CH579EVT_USB_DISK_TEST\BLE\ch57x_ble_uart_mrs_app_only_test\obj/../app/ff.c:5780
					for (i = 0, pau = 1; cst[i] && cst[i] <= n; i++, pau <<= 1) ;	/* Get from table */
    26b0:	2601      	movs	r6, #1
C:\Users\alon\Desktop\github\iot-fan_at_cnblogs\CH577_CH578_CH579\AN\CH579EVT_USB_DISK_TEST\BLE\ch57x_ble_uart_mrs_app_only_test\obj/../app/ff.c:5779
					n = sz_vol / 0x1000;	/* Volume size in unit of 4KS */
    26b2:	9b06      	ldr	r3, [sp, #24]
    26b4:	0b19      	lsrs	r1, r3, #12
C:\Users\alon\Desktop\github\iot-fan_at_cnblogs\CH577_CH578_CH579\AN\CH579EVT_USB_DISK_TEST\BLE\ch57x_ble_uart_mrs_app_only_test\obj/../app/ff.c:5780
					for (i = 0, pau = 1; cst[i] && cst[i] <= n; i++, pau <<= 1) ;	/* Get from table */
    26b6:	4b51      	ldr	r3, [pc, #324]	; (27fc <f_mkfs+0x288>)
C:\Users\alon\Desktop\github\iot-fan_at_cnblogs\CH577_CH578_CH579\AN\CH579EVT_USB_DISK_TEST\BLE\ch57x_ble_uart_mrs_app_only_test\obj/../app/ff.c:5780 (discriminator 1)
    26b8:	881a      	ldrh	r2, [r3, #0]
    26ba:	2a00      	cmp	r2, #0
    26bc:	d002      	beq.n	26c4 <f_mkfs+0x150>
    26be:	3302      	adds	r3, #2
C:\Users\alon\Desktop\github\iot-fan_at_cnblogs\CH577_CH578_CH579\AN\CH579EVT_USB_DISK_TEST\BLE\ch57x_ble_uart_mrs_app_only_test\obj/../app/ff.c:5780 (discriminator 3)
    26c0:	428a      	cmp	r2, r1
    26c2:	d96c      	bls.n	279e <f_mkfs+0x22a>
C:\Users\alon\Desktop\github\iot-fan_at_cnblogs\CH577_CH578_CH579\AN\CH579EVT_USB_DISK_TEST\BLE\ch57x_ble_uart_mrs_app_only_test\obj/../app/ff.c:5782
				n_clst = sz_vol / pau;
    26c4:	0031      	movs	r1, r6
    26c6:	9806      	ldr	r0, [sp, #24]
    26c8:	f7fd fd00 	bl	cc <__udivsi3>
C:\Users\alon\Desktop\github\iot-fan_at_cnblogs\CH577_CH578_CH579\AN\CH579EVT_USB_DISK_TEST\BLE\ch57x_ble_uart_mrs_app_only_test\obj/../app/ff.c:5783
				if (n_clst > MAX_FAT12) {
    26cc:	4a4c      	ldr	r2, [pc, #304]	; (2800 <f_mkfs+0x28c>)
C:\Users\alon\Desktop\github\iot-fan_at_cnblogs\CH577_CH578_CH579\AN\CH579EVT_USB_DISK_TEST\BLE\ch57x_ble_uart_mrs_app_only_test\obj/../app/ff.c:5782
				n_clst = sz_vol / pau;
    26ce:	0003      	movs	r3, r0
C:\Users\alon\Desktop\github\iot-fan_at_cnblogs\CH577_CH578_CH579\AN\CH579EVT_USB_DISK_TEST\BLE\ch57x_ble_uart_mrs_app_only_test\obj/../app/ff.c:5783
				if (n_clst > MAX_FAT12) {
    26d0:	4290      	cmp	r0, r2
    26d2:	d966      	bls.n	27a2 <f_mkfs+0x22e>
C:\Users\alon\Desktop\github\iot-fan_at_cnblogs\CH577_CH578_CH579\AN\CH579EVT_USB_DISK_TEST\BLE\ch57x_ble_uart_mrs_app_only_test\obj/../app/ff.c:5784
					n = n_clst * 2 + 4;		/* FAT size [byte] */
    26d4:	2302      	movs	r3, #2
    26d6:	3002      	adds	r0, #2
    26d8:	0040      	lsls	r0, r0, #1
C:\Users\alon\Desktop\github\iot-fan_at_cnblogs\CH577_CH578_CH579\AN\CH579EVT_USB_DISK_TEST\BLE\ch57x_ble_uart_mrs_app_only_test\obj/../app/ff.c:5786
					fmt = FS_FAT12;
    26da:	9301      	str	r3, [sp, #4]
C:\Users\alon\Desktop\github\iot-fan_at_cnblogs\CH577_CH578_CH579\AN\CH579EVT_USB_DISK_TEST\BLE\ch57x_ble_uart_mrs_app_only_test\obj/../app/ff.c:5789
				sz_fat = (n + ss - 1) / ss;		/* FAT size [sector] */
    26dc:	4b49      	ldr	r3, [pc, #292]	; (2804 <f_mkfs+0x290>)
C:\Users\alon\Desktop\github\iot-fan_at_cnblogs\CH577_CH578_CH579\AN\CH579EVT_USB_DISK_TEST\BLE\ch57x_ble_uart_mrs_app_only_test\obj/../app/ff.c:5790
				sz_rsv = 1;						/* Number of reserved sectors */
    26de:	2701      	movs	r7, #1
C:\Users\alon\Desktop\github\iot-fan_at_cnblogs\CH577_CH578_CH579\AN\CH579EVT_USB_DISK_TEST\BLE\ch57x_ble_uart_mrs_app_only_test\obj/../app/ff.c:5789
				sz_fat = (n + ss - 1) / ss;		/* FAT size [sector] */
    26e0:	18c0      	adds	r0, r0, r3
    26e2:	0b03      	lsrs	r3, r0, #12
    26e4:	9302      	str	r3, [sp, #8]
C:\Users\alon\Desktop\github\iot-fan_at_cnblogs\CH577_CH578_CH579\AN\CH579EVT_USB_DISK_TEST\BLE\ch57x_ble_uart_mrs_app_only_test\obj/../app/ff.c:5791
				sz_dir = (DWORD)n_rootdir * SZDIRE / ss;	/* Rootdir size [sector] */
    26e6:	2304      	movs	r3, #4
    26e8:	930b      	str	r3, [sp, #44]	; 0x2c
C:\Users\alon\Desktop\github\iot-fan_at_cnblogs\CH577_CH578_CH579\AN\CH579EVT_USB_DISK_TEST\BLE\ch57x_ble_uart_mrs_app_only_test\obj/../app/ff.c:5793
			b_fat = b_vol + sz_rsv;						/* FAT base */
    26ea:	9b03      	ldr	r3, [sp, #12]
C:\Users\alon\Desktop\github\iot-fan_at_cnblogs\CH577_CH578_CH579\AN\CH579EVT_USB_DISK_TEST\BLE\ch57x_ble_uart_mrs_app_only_test\obj/../app/ff.c:5794
			b_data = b_fat + sz_fat * n_fats + sz_dir;	/* Data base */
    26ec:	9a0b      	ldr	r2, [sp, #44]	; 0x2c
C:\Users\alon\Desktop\github\iot-fan_at_cnblogs\CH577_CH578_CH579\AN\CH579EVT_USB_DISK_TEST\BLE\ch57x_ble_uart_mrs_app_only_test\obj/../app/ff.c:5793
			b_fat = b_vol + sz_rsv;						/* FAT base */
    26ee:	18fb      	adds	r3, r7, r3
    26f0:	9305      	str	r3, [sp, #20]
C:\Users\alon\Desktop\github\iot-fan_at_cnblogs\CH577_CH578_CH579\AN\CH579EVT_USB_DISK_TEST\BLE\ch57x_ble_uart_mrs_app_only_test\obj/../app/ff.c:5794
			b_data = b_fat + sz_fat * n_fats + sz_dir;	/* Data base */
    26f2:	9b02      	ldr	r3, [sp, #8]
    26f4:	1899      	adds	r1, r3, r2
    26f6:	9b05      	ldr	r3, [sp, #20]
C:\Users\alon\Desktop\github\iot-fan_at_cnblogs\CH577_CH578_CH579\AN\CH579EVT_USB_DISK_TEST\BLE\ch57x_ble_uart_mrs_app_only_test\obj/../app/ff.c:5797
			n = ((b_data + sz_blk - 1) & ~(sz_blk - 1)) - b_data;	/* Next nearest erase block from current data base */
    26f8:	9a0e      	ldr	r2, [sp, #56]	; 0x38
C:\Users\alon\Desktop\github\iot-fan_at_cnblogs\CH577_CH578_CH579\AN\CH579EVT_USB_DISK_TEST\BLE\ch57x_ble_uart_mrs_app_only_test\obj/../app/ff.c:5794
			b_data = b_fat + sz_fat * n_fats + sz_dir;	/* Data base */
    26fa:	18c9      	adds	r1, r1, r3
C:\Users\alon\Desktop\github\iot-fan_at_cnblogs\CH577_CH578_CH579\AN\CH579EVT_USB_DISK_TEST\BLE\ch57x_ble_uart_mrs_app_only_test\obj/../app/ff.c:5797
			n = ((b_data + sz_blk - 1) & ~(sz_blk - 1)) - b_data;	/* Next nearest erase block from current data base */
    26fc:	1e53      	subs	r3, r2, #1
    26fe:	185b      	adds	r3, r3, r1
    2700:	4252      	negs	r2, r2
    2702:	401a      	ands	r2, r3
C:\Users\alon\Desktop\github\iot-fan_at_cnblogs\CH577_CH578_CH579\AN\CH579EVT_USB_DISK_TEST\BLE\ch57x_ble_uart_mrs_app_only_test\obj/../app/ff.c:5798
			if (fmt == FS_FAT32) {		/* FAT32: Move FAT base */
    2704:	9b01      	ldr	r3, [sp, #4]
C:\Users\alon\Desktop\github\iot-fan_at_cnblogs\CH577_CH578_CH579\AN\CH579EVT_USB_DISK_TEST\BLE\ch57x_ble_uart_mrs_app_only_test\obj/../app/ff.c:5797
			n = ((b_data + sz_blk - 1) & ~(sz_blk - 1)) - b_data;	/* Next nearest erase block from current data base */
    2706:	1a52      	subs	r2, r2, r1
C:\Users\alon\Desktop\github\iot-fan_at_cnblogs\CH577_CH578_CH579\AN\CH579EVT_USB_DISK_TEST\BLE\ch57x_ble_uart_mrs_app_only_test\obj/../app/ff.c:5798
			if (fmt == FS_FAT32) {		/* FAT32: Move FAT base */
    2708:	2b03      	cmp	r3, #3
    270a:	d151      	bne.n	27b0 <f_mkfs+0x23c>
C:\Users\alon\Desktop\github\iot-fan_at_cnblogs\CH577_CH578_CH579\AN\CH579EVT_USB_DISK_TEST\BLE\ch57x_ble_uart_mrs_app_only_test\obj/../app/ff.c:5799
				sz_rsv += n; b_fat += n;
    270c:	9b05      	ldr	r3, [sp, #20]
    270e:	18bf      	adds	r7, r7, r2
    2710:	189b      	adds	r3, r3, r2
    2712:	9305      	str	r3, [sp, #20]
C:\Users\alon\Desktop\github\iot-fan_at_cnblogs\CH577_CH578_CH579\AN\CH579EVT_USB_DISK_TEST\BLE\ch57x_ble_uart_mrs_app_only_test\obj/../app/ff.c:5805
			if (sz_vol < b_data + pau * 16 - b_vol) LEAVE_MKFS(FR_MKFS_ABORTED);	/* Too small volume */
    2714:	9a03      	ldr	r2, [sp, #12]
    2716:	0133      	lsls	r3, r6, #4
    2718:	1a9b      	subs	r3, r3, r2
    271a:	9a06      	ldr	r2, [sp, #24]
    271c:	185b      	adds	r3, r3, r1
    271e:	429a      	cmp	r2, r3
    2720:	d39e      	bcc.n	2660 <f_mkfs+0xec>
C:\Users\alon\Desktop\github\iot-fan_at_cnblogs\CH577_CH578_CH579\AN\CH579EVT_USB_DISK_TEST\BLE\ch57x_ble_uart_mrs_app_only_test\obj/../app/ff.c:5806 (discriminator 2)
			n_clst = (sz_vol - sz_rsv - sz_fat * n_fats - sz_dir) / pau;
    2722:	9b06      	ldr	r3, [sp, #24]
    2724:	9a0b      	ldr	r2, [sp, #44]	; 0x2c
    2726:	0031      	movs	r1, r6
    2728:	1a98      	subs	r0, r3, r2
    272a:	9b02      	ldr	r3, [sp, #8]
    272c:	1bc0      	subs	r0, r0, r7
    272e:	1ac0      	subs	r0, r0, r3
    2730:	f7fd fccc 	bl	cc <__udivsi3>
C:\Users\alon\Desktop\github\iot-fan_at_cnblogs\CH577_CH578_CH579\AN\CH579EVT_USB_DISK_TEST\BLE\ch57x_ble_uart_mrs_app_only_test\obj/../app/ff.c:5807 (discriminator 2)
			if (fmt == FS_FAT32) {
    2734:	9b01      	ldr	r3, [sp, #4]
C:\Users\alon\Desktop\github\iot-fan_at_cnblogs\CH577_CH578_CH579\AN\CH579EVT_USB_DISK_TEST\BLE\ch57x_ble_uart_mrs_app_only_test\obj/../app/ff.c:5806 (discriminator 2)
			n_clst = (sz_vol - sz_rsv - sz_fat * n_fats - sz_dir) / pau;
    2736:	900a      	str	r0, [sp, #40]	; 0x28
C:\Users\alon\Desktop\github\iot-fan_at_cnblogs\CH577_CH578_CH579\AN\CH579EVT_USB_DISK_TEST\BLE\ch57x_ble_uart_mrs_app_only_test\obj/../app/ff.c:5807 (discriminator 2)
			if (fmt == FS_FAT32) {
    2738:	2b03      	cmp	r3, #3
    273a:	d13d      	bne.n	27b8 <f_mkfs+0x244>
C:\Users\alon\Desktop\github\iot-fan_at_cnblogs\CH577_CH578_CH579\AN\CH579EVT_USB_DISK_TEST\BLE\ch57x_ble_uart_mrs_app_only_test\obj/../app/ff.c:5808
				if (n_clst <= MAX_FAT16) {	/* Too few clusters for FAT32 */
    273c:	4b32      	ldr	r3, [pc, #200]	; (2808 <f_mkfs+0x294>)
    273e:	4298      	cmp	r0, r3
    2740:	d873      	bhi.n	282a <f_mkfs+0x2b6>
C:\Users\alon\Desktop\github\iot-fan_at_cnblogs\CH577_CH578_CH579\AN\CH579EVT_USB_DISK_TEST\BLE\ch57x_ble_uart_mrs_app_only_test\obj/../app/ff.c:5809
					if (au == 0 && (au = pau / 2) != 0) continue;	/* Adjust cluster size and retry */
    2742:	2d00      	cmp	r5, #0
    2744:	d18c      	bne.n	2660 <f_mkfs+0xec>
C:\Users\alon\Desktop\github\iot-fan_at_cnblogs\CH577_CH578_CH579\AN\CH579EVT_USB_DISK_TEST\BLE\ch57x_ble_uart_mrs_app_only_test\obj/../app/ff.c:5809 (discriminator 1)
    2746:	0875      	lsrs	r5, r6, #1
    2748:	2e01      	cmp	r6, #1
    274a:	d989      	bls.n	2660 <f_mkfs+0xec>
C:\Users\alon\Desktop\github\iot-fan_at_cnblogs\CH577_CH578_CH579\AN\CH579EVT_USB_DISK_TEST\BLE\ch57x_ble_uart_mrs_app_only_test\obj/../app/ff.c:5768
				if (pau == 0) {	/* au auto-selection */
    274c:	1e2f      	subs	r7, r5, #0
    274e:	d10a      	bne.n	2766 <f_mkfs+0x1f2>
C:\Users\alon\Desktop\github\iot-fan_at_cnblogs\CH577_CH578_CH579\AN\CH579EVT_USB_DISK_TEST\BLE\ch57x_ble_uart_mrs_app_only_test\obj/../app/ff.c:5770
					for (i = 0, pau = 1; cst32[i] && cst32[i] <= n; i++, pau <<= 1) ;	/* Get from table */
    2750:	2501      	movs	r5, #1
C:\Users\alon\Desktop\github\iot-fan_at_cnblogs\CH577_CH578_CH579\AN\CH579EVT_USB_DISK_TEST\BLE\ch57x_ble_uart_mrs_app_only_test\obj/../app/ff.c:5769
					n = sz_vol / 0x20000;	/* Volume size in unit of 128KS */
    2752:	9b06      	ldr	r3, [sp, #24]
    2754:	0c5a      	lsrs	r2, r3, #17
C:\Users\alon\Desktop\github\iot-fan_at_cnblogs\CH577_CH578_CH579\AN\CH579EVT_USB_DISK_TEST\BLE\ch57x_ble_uart_mrs_app_only_test\obj/../app/ff.c:5770
					for (i = 0, pau = 1; cst32[i] && cst32[i] <= n; i++, pau <<= 1) ;	/* Get from table */
    2756:	4b2d      	ldr	r3, [pc, #180]	; (280c <f_mkfs+0x298>)
C:\Users\alon\Desktop\github\iot-fan_at_cnblogs\CH577_CH578_CH579\AN\CH579EVT_USB_DISK_TEST\BLE\ch57x_ble_uart_mrs_app_only_test\obj/../app/ff.c:5770 (discriminator 1)
    2758:	881f      	ldrh	r7, [r3, #0]
    275a:	2f00      	cmp	r7, #0
    275c:	d003      	beq.n	2766 <f_mkfs+0x1f2>
    275e:	3302      	adds	r3, #2
C:\Users\alon\Desktop\github\iot-fan_at_cnblogs\CH577_CH578_CH579\AN\CH579EVT_USB_DISK_TEST\BLE\ch57x_ble_uart_mrs_app_only_test\obj/../app/ff.c:5770 (discriminator 3)
    2760:	4297      	cmp	r7, r2
    2762:	d91a      	bls.n	279a <f_mkfs+0x226>
    2764:	2700      	movs	r7, #0
C:\Users\alon\Desktop\github\iot-fan_at_cnblogs\CH577_CH578_CH579\AN\CH579EVT_USB_DISK_TEST\BLE\ch57x_ble_uart_mrs_app_only_test\obj/../app/ff.c:5772
				n_clst = sz_vol / pau;	/* Number of clusters */
    2766:	0029      	movs	r1, r5
    2768:	9806      	ldr	r0, [sp, #24]
    276a:	f7fd fcaf 	bl	cc <__udivsi3>
C:\Users\alon\Desktop\github\iot-fan_at_cnblogs\CH577_CH578_CH579\AN\CH579EVT_USB_DISK_TEST\BLE\ch57x_ble_uart_mrs_app_only_test\obj/../app/ff.c:5773
				sz_fat = (n_clst * 4 + 8 + ss - 1) / ss;	/* FAT size [sector] */
    276e:	4a28      	ldr	r2, [pc, #160]	; (2810 <f_mkfs+0x29c>)
    2770:	0083      	lsls	r3, r0, #2
    2772:	189b      	adds	r3, r3, r2
    2774:	0b1b      	lsrs	r3, r3, #12
    2776:	9302      	str	r3, [sp, #8]
C:\Users\alon\Desktop\github\iot-fan_at_cnblogs\CH577_CH578_CH579\AN\CH579EVT_USB_DISK_TEST\BLE\ch57x_ble_uart_mrs_app_only_test\obj/../app/ff.c:5776
				if (n_clst <= MAX_FAT16 || n_clst > MAX_FAT32) LEAVE_MKFS(FR_MKFS_ABORTED);
    2778:	4b26      	ldr	r3, [pc, #152]	; (2814 <f_mkfs+0x2a0>)
    277a:	18c0      	adds	r0, r0, r3
    277c:	4b26      	ldr	r3, [pc, #152]	; (2818 <f_mkfs+0x2a4>)
    277e:	4298      	cmp	r0, r3
    2780:	d900      	bls.n	2784 <f_mkfs+0x210>
    2782:	e76d      	b.n	2660 <f_mkfs+0xec>
C:\Users\alon\Desktop\github\iot-fan_at_cnblogs\CH577_CH578_CH579\AN\CH579EVT_USB_DISK_TEST\BLE\ch57x_ble_uart_mrs_app_only_test\obj/../app/ff.c:5775
				sz_dir = 0;		/* No static directory */
    2784:	2300      	movs	r3, #0
    2786:	930b      	str	r3, [sp, #44]	; 0x2c
    2788:	3303      	adds	r3, #3
    278a:	002e      	movs	r6, r5
    278c:	9301      	str	r3, [sp, #4]
    278e:	003d      	movs	r5, r7
C:\Users\alon\Desktop\github\iot-fan_at_cnblogs\CH577_CH578_CH579\AN\CH579EVT_USB_DISK_TEST\BLE\ch57x_ble_uart_mrs_app_only_test\obj/../app/ff.c:5774
				sz_rsv = 32;	/* Number of reserved sectors */
    2790:	2720      	movs	r7, #32
    2792:	e7aa      	b.n	26ea <f_mkfs+0x176>
C:\Users\alon\Desktop\github\iot-fan_at_cnblogs\CH577_CH578_CH579\AN\CH579EVT_USB_DISK_TEST\BLE\ch57x_ble_uart_mrs_app_only_test\obj/../app/ff.c:5596
		if (!(opt & FM_FAT)) LEAVE_MKFS(FR_INVALID_PARAMETER);	/* no-FAT? */
    2794:	07fb      	lsls	r3, r7, #31
    2796:	d489      	bmi.n	26ac <f_mkfs+0x138>
    2798:	e774      	b.n	2684 <f_mkfs+0x110>
C:\Users\alon\Desktop\github\iot-fan_at_cnblogs\CH577_CH578_CH579\AN\CH579EVT_USB_DISK_TEST\BLE\ch57x_ble_uart_mrs_app_only_test\obj/../app/ff.c:5770 (discriminator 4)
					for (i = 0, pau = 1; cst32[i] && cst32[i] <= n; i++, pau <<= 1) ;	/* Get from table */
    279a:	006d      	lsls	r5, r5, #1
    279c:	e7dc      	b.n	2758 <f_mkfs+0x1e4>
C:\Users\alon\Desktop\github\iot-fan_at_cnblogs\CH577_CH578_CH579\AN\CH579EVT_USB_DISK_TEST\BLE\ch57x_ble_uart_mrs_app_only_test\obj/../app/ff.c:5780 (discriminator 4)
					for (i = 0, pau = 1; cst[i] && cst[i] <= n; i++, pau <<= 1) ;	/* Get from table */
    279e:	0076      	lsls	r6, r6, #1
    27a0:	e78a      	b.n	26b8 <f_mkfs+0x144>
C:\Users\alon\Desktop\github\iot-fan_at_cnblogs\CH577_CH578_CH579\AN\CH579EVT_USB_DISK_TEST\BLE\ch57x_ble_uart_mrs_app_only_test\obj/../app/ff.c:5787
					n = (n_clst * 3 + 1) / 2 + 3;	/* FAT size [byte] */
    27a2:	2003      	movs	r0, #3
    27a4:	4358      	muls	r0, r3
    27a6:	3001      	adds	r0, #1
    27a8:	0840      	lsrs	r0, r0, #1
C:\Users\alon\Desktop\github\iot-fan_at_cnblogs\CH577_CH578_CH579\AN\CH579EVT_USB_DISK_TEST\BLE\ch57x_ble_uart_mrs_app_only_test\obj/../app/ff.c:5786
					fmt = FS_FAT12;
    27aa:	2301      	movs	r3, #1
C:\Users\alon\Desktop\github\iot-fan_at_cnblogs\CH577_CH578_CH579\AN\CH579EVT_USB_DISK_TEST\BLE\ch57x_ble_uart_mrs_app_only_test\obj/../app/ff.c:5787
					n = (n_clst * 3 + 1) / 2 + 3;	/* FAT size [byte] */
    27ac:	3003      	adds	r0, #3
    27ae:	e794      	b.n	26da <f_mkfs+0x166>
C:\Users\alon\Desktop\github\iot-fan_at_cnblogs\CH577_CH578_CH579\AN\CH579EVT_USB_DISK_TEST\BLE\ch57x_ble_uart_mrs_app_only_test\obj/../app/ff.c:5801
				sz_fat += n / n_fats;
    27b0:	9b02      	ldr	r3, [sp, #8]
    27b2:	189b      	adds	r3, r3, r2
    27b4:	9302      	str	r3, [sp, #8]
    27b6:	e7ad      	b.n	2714 <f_mkfs+0x1a0>
C:\Users\alon\Desktop\github\iot-fan_at_cnblogs\CH577_CH578_CH579\AN\CH579EVT_USB_DISK_TEST\BLE\ch57x_ble_uart_mrs_app_only_test\obj/../app/ff.c:5813
			if (fmt == FS_FAT16) {
    27b8:	9b01      	ldr	r3, [sp, #4]
    27ba:	2b02      	cmp	r3, #2
    27bc:	d12e      	bne.n	281c <f_mkfs+0x2a8>
C:\Users\alon\Desktop\github\iot-fan_at_cnblogs\CH577_CH578_CH579\AN\CH579EVT_USB_DISK_TEST\BLE\ch57x_ble_uart_mrs_app_only_test\obj/../app/ff.c:5814
				if (n_clst > MAX_FAT16) {	/* Too many clusters for FAT16 */
    27be:	4b12      	ldr	r3, [pc, #72]	; (2808 <f_mkfs+0x294>)
    27c0:	9a0a      	ldr	r2, [sp, #40]	; 0x28
    27c2:	429a      	cmp	r2, r3
    27c4:	d908      	bls.n	27d8 <f_mkfs+0x264>
C:\Users\alon\Desktop\github\iot-fan_at_cnblogs\CH577_CH578_CH579\AN\CH579EVT_USB_DISK_TEST\BLE\ch57x_ble_uart_mrs_app_only_test\obj/../app/ff.c:5815
					if (au == 0 && (pau * 2) <= 64) {
    27c6:	2d00      	cmp	r5, #0
    27c8:	d000      	beq.n	27cc <f_mkfs+0x258>
    27ca:	e1d6      	b.n	2b7a <f_mkfs+0x606>
C:\Users\alon\Desktop\github\iot-fan_at_cnblogs\CH577_CH578_CH579\AN\CH579EVT_USB_DISK_TEST\BLE\ch57x_ble_uart_mrs_app_only_test\obj/../app/ff.c:5815 (discriminator 1)
    27cc:	0076      	lsls	r6, r6, #1
    27ce:	2e40      	cmp	r6, #64	; 0x40
    27d0:	d900      	bls.n	27d4 <f_mkfs+0x260>
    27d2:	e1c9      	b.n	2b68 <f_mkfs+0x5f4>
    27d4:	0035      	movs	r5, r6
    27d6:	e769      	b.n	26ac <f_mkfs+0x138>
C:\Users\alon\Desktop\github\iot-fan_at_cnblogs\CH577_CH578_CH579\AN\CH579EVT_USB_DISK_TEST\BLE\ch57x_ble_uart_mrs_app_only_test\obj/../app/ff.c:5824
				if  (n_clst <= MAX_FAT12) {	/* Too few clusters for FAT16 */
    27d8:	4b09      	ldr	r3, [pc, #36]	; (2800 <f_mkfs+0x28c>)
    27da:	9a0a      	ldr	r2, [sp, #40]	; 0x28
    27dc:	429a      	cmp	r2, r3
    27de:	d824      	bhi.n	282a <f_mkfs+0x2b6>
C:\Users\alon\Desktop\github\iot-fan_at_cnblogs\CH577_CH578_CH579\AN\CH579EVT_USB_DISK_TEST\BLE\ch57x_ble_uart_mrs_app_only_test\obj/../app/ff.c:5825
					if (au == 0 && (au = pau * 2) <= 128) continue;	/* Adjust cluster size and retry */
    27e0:	2d00      	cmp	r5, #0
    27e2:	d000      	beq.n	27e6 <f_mkfs+0x272>
    27e4:	e73c      	b.n	2660 <f_mkfs+0xec>
C:\Users\alon\Desktop\github\iot-fan_at_cnblogs\CH577_CH578_CH579\AN\CH579EVT_USB_DISK_TEST\BLE\ch57x_ble_uart_mrs_app_only_test\obj/../app/ff.c:5825 (discriminator 1)
    27e6:	0075      	lsls	r5, r6, #1
    27e8:	2d80      	cmp	r5, #128	; 0x80
    27ea:	d800      	bhi.n	27ee <f_mkfs+0x27a>
    27ec:	e75e      	b.n	26ac <f_mkfs+0x138>
    27ee:	e737      	b.n	2660 <f_mkfs+0xec>
    27f0:	200041ec 	.word	0x200041ec
    27f4:	fffff000 	.word	0xfffff000
    27f8:	00fff000 	.word	0x00fff000
    27fc:	00004c98 	.word	0x00004c98
    2800:	00000ff5 	.word	0x00000ff5
    2804:	00000fff 	.word	0x00000fff
    2808:	0000fff5 	.word	0x0000fff5
    280c:	00004ca6 	.word	0x00004ca6
    2810:	00001007 	.word	0x00001007
    2814:	ffff000a 	.word	0xffff000a
    2818:	0ffeffff 	.word	0x0ffeffff
C:\Users\alon\Desktop\github\iot-fan_at_cnblogs\CH577_CH578_CH579\AN\CH579EVT_USB_DISK_TEST\BLE\ch57x_ble_uart_mrs_app_only_test\obj/../app/ff.c:5829 (discriminator 1)
			if (fmt == FS_FAT12 && n_clst > MAX_FAT12) LEAVE_MKFS(FR_MKFS_ABORTED);	/* Too many clusters for FAT12 */
    281c:	2201      	movs	r2, #1
    281e:	4bd9      	ldr	r3, [pc, #868]	; (2b84 <f_mkfs+0x610>)
    2820:	9201      	str	r2, [sp, #4]
    2822:	9a0a      	ldr	r2, [sp, #40]	; 0x28
    2824:	429a      	cmp	r2, r3
    2826:	d900      	bls.n	282a <f_mkfs+0x2b6>
    2828:	e71a      	b.n	2660 <f_mkfs+0xec>
C:\Users\alon\Desktop\github\iot-fan_at_cnblogs\CH577_CH578_CH579\AN\CH579EVT_USB_DISK_TEST\BLE\ch57x_ble_uart_mrs_app_only_test\obj/../app/ff.c:5840
		mem_set(buf, 0, ss);
    282a:	2280      	movs	r2, #128	; 0x80
    282c:	2100      	movs	r1, #0
    282e:	0020      	movs	r0, r4
    2830:	0152      	lsls	r2, r2, #5
    2832:	f7fe fb28 	bl	e86 <mem_set>
mem_cpy():
C:\Users\alon\Desktop\github\iot-fan_at_cnblogs\CH577_CH578_CH579\AN\CH579EVT_USB_DISK_TEST\BLE\ch57x_ble_uart_mrs_app_only_test\obj/../app/ff.c:649
	if (cnt != 0) {
    2836:	49d4      	ldr	r1, [pc, #848]	; (2b88 <f_mkfs+0x614>)
    2838:	220b      	movs	r2, #11
    283a:	0020      	movs	r0, r4
    283c:	f7fe fb88 	bl	f50 <mem_cpy.part.0>
st_word():
C:\Users\alon\Desktop\github\iot-fan_at_cnblogs\CH577_CH578_CH579\AN\CH579EVT_USB_DISK_TEST\BLE\ch57x_ble_uart_mrs_app_only_test\obj/../app/ff.c:611
	*ptr++ = (BYTE)val;
    2840:	2310      	movs	r3, #16
    2842:	7323      	strb	r3, [r4, #12]
f_mkfs():
C:\Users\alon\Desktop\github\iot-fan_at_cnblogs\CH577_CH578_CH579\AN\CH579EVT_USB_DISK_TEST\BLE\ch57x_ble_uart_mrs_app_only_test\obj/../app/ff.c:5845
		buf[BPB_NumFATs] = (BYTE)n_fats;				/* Number of FATs */
    2844:	3b0f      	subs	r3, #15
    2846:	7423      	strb	r3, [r4, #16]
C:\Users\alon\Desktop\github\iot-fan_at_cnblogs\CH577_CH578_CH579\AN\CH579EVT_USB_DISK_TEST\BLE\ch57x_ble_uart_mrs_app_only_test\obj/../app/ff.c:5846
		st_word(buf + BPB_RootEntCnt, (WORD)((fmt == FS_FAT32) ? 0 : n_rootdir));	/* Number of root directory entries */
    2848:	9b01      	ldr	r3, [sp, #4]
st_word():
C:\Users\alon\Desktop\github\iot-fan_at_cnblogs\CH577_CH578_CH579\AN\CH579EVT_USB_DISK_TEST\BLE\ch57x_ble_uart_mrs_app_only_test\obj/../app/ff.c:610
	*ptr++ = (BYTE)val; val >>= 8;
    284a:	2200      	movs	r2, #0
f_mkfs():
C:\Users\alon\Desktop\github\iot-fan_at_cnblogs\CH577_CH578_CH579\AN\CH579EVT_USB_DISK_TEST\BLE\ch57x_ble_uart_mrs_app_only_test\obj/../app/ff.c:5846
		st_word(buf + BPB_RootEntCnt, (WORD)((fmt == FS_FAT32) ? 0 : n_rootdir));	/* Number of root directory entries */
    284c:	3b03      	subs	r3, #3
    284e:	1e59      	subs	r1, r3, #1
    2850:	418b      	sbcs	r3, r1
st_word():
C:\Users\alon\Desktop\github\iot-fan_at_cnblogs\CH577_CH578_CH579\AN\CH579EVT_USB_DISK_TEST\BLE\ch57x_ble_uart_mrs_app_only_test\obj/../app/ff.c:610
	*ptr++ = (BYTE)val; val >>= 8;
    2852:	005b      	lsls	r3, r3, #1
C:\Users\alon\Desktop\github\iot-fan_at_cnblogs\CH577_CH578_CH579\AN\CH579EVT_USB_DISK_TEST\BLE\ch57x_ble_uart_mrs_app_only_test\obj/../app/ff.c:611
	*ptr++ = (BYTE)val;
    2854:	74a3      	strb	r3, [r4, #18]
f_mkfs():
C:\Users\alon\Desktop\github\iot-fan_at_cnblogs\CH577_CH578_CH579\AN\CH579EVT_USB_DISK_TEST\BLE\ch57x_ble_uart_mrs_app_only_test\obj/../app/ff.c:5847
		if (sz_vol < 0x10000) {
    2856:	2380      	movs	r3, #128	; 0x80
st_word():
C:\Users\alon\Desktop\github\iot-fan_at_cnblogs\CH577_CH578_CH579\AN\CH579EVT_USB_DISK_TEST\BLE\ch57x_ble_uart_mrs_app_only_test\obj/../app/ff.c:610
	*ptr++ = (BYTE)val; val >>= 8;
    2858:	73a7      	strb	r7, [r4, #14]
f_mkfs():
C:\Users\alon\Desktop\github\iot-fan_at_cnblogs\CH577_CH578_CH579\AN\CH579EVT_USB_DISK_TEST\BLE\ch57x_ble_uart_mrs_app_only_test\obj/../app/ff.c:5847
		if (sz_vol < 0x10000) {
    285a:	990f      	ldr	r1, [sp, #60]	; 0x3c
st_word():
C:\Users\alon\Desktop\github\iot-fan_at_cnblogs\CH577_CH578_CH579\AN\CH579EVT_USB_DISK_TEST\BLE\ch57x_ble_uart_mrs_app_only_test\obj/../app/ff.c:610
	*ptr++ = (BYTE)val; val >>= 8;
    285c:	b2bf      	uxth	r7, r7
    285e:	0a3f      	lsrs	r7, r7, #8
    2860:	72e2      	strb	r2, [r4, #11]
f_mkfs():
C:\Users\alon\Desktop\github\iot-fan_at_cnblogs\CH577_CH578_CH579\AN\CH579EVT_USB_DISK_TEST\BLE\ch57x_ble_uart_mrs_app_only_test\obj/../app/ff.c:5843
		buf[BPB_SecPerClus] = (BYTE)pau;				/* Cluster size [sector] */
    2862:	7366      	strb	r6, [r4, #13]
st_word():
C:\Users\alon\Desktop\github\iot-fan_at_cnblogs\CH577_CH578_CH579\AN\CH579EVT_USB_DISK_TEST\BLE\ch57x_ble_uart_mrs_app_only_test\obj/../app/ff.c:611
	*ptr++ = (BYTE)val;
    2864:	73e7      	strb	r7, [r4, #15]
C:\Users\alon\Desktop\github\iot-fan_at_cnblogs\CH577_CH578_CH579\AN\CH579EVT_USB_DISK_TEST\BLE\ch57x_ble_uart_mrs_app_only_test\obj/../app/ff.c:610
	*ptr++ = (BYTE)val; val >>= 8;
    2866:	7462      	strb	r2, [r4, #17]
f_mkfs():
C:\Users\alon\Desktop\github\iot-fan_at_cnblogs\CH577_CH578_CH579\AN\CH579EVT_USB_DISK_TEST\BLE\ch57x_ble_uart_mrs_app_only_test\obj/../app/ff.c:5847
		if (sz_vol < 0x10000) {
    2868:	025b      	lsls	r3, r3, #9
    286a:	4299      	cmp	r1, r3
    286c:	d252      	bcs.n	2914 <f_mkfs+0x3a0>
st_word():
C:\Users\alon\Desktop\github\iot-fan_at_cnblogs\CH577_CH578_CH579\AN\CH579EVT_USB_DISK_TEST\BLE\ch57x_ble_uart_mrs_app_only_test\obj/../app/ff.c:610
	*ptr++ = (BYTE)val; val >>= 8;
    286e:	74e1      	strb	r1, [r4, #19]
    2870:	b289      	uxth	r1, r1
    2872:	0a09      	lsrs	r1, r1, #8
C:\Users\alon\Desktop\github\iot-fan_at_cnblogs\CH577_CH578_CH579\AN\CH579EVT_USB_DISK_TEST\BLE\ch57x_ble_uart_mrs_app_only_test\obj/../app/ff.c:611
	*ptr++ = (BYTE)val;
    2874:	7521      	strb	r1, [r4, #20]
f_mkfs():
C:\Users\alon\Desktop\github\iot-fan_at_cnblogs\CH577_CH578_CH579\AN\CH579EVT_USB_DISK_TEST\BLE\ch57x_ble_uart_mrs_app_only_test\obj/../app/ff.c:5852
		buf[BPB_Media] = 0xF8;							/* Media descriptor byte */
    2876:	23f8      	movs	r3, #248	; 0xf8
st_word():
C:\Users\alon\Desktop\github\iot-fan_at_cnblogs\CH577_CH578_CH579\AN\CH579EVT_USB_DISK_TEST\BLE\ch57x_ble_uart_mrs_app_only_test\obj/../app/ff.c:611
	*ptr++ = (BYTE)val;
    2878:	2500      	movs	r5, #0
f_mkfs():
C:\Users\alon\Desktop\github\iot-fan_at_cnblogs\CH577_CH578_CH579\AN\CH579EVT_USB_DISK_TEST\BLE\ch57x_ble_uart_mrs_app_only_test\obj/../app/ff.c:5855
		st_dword(buf + BPB_HiddSec, b_vol);				/* Volume offset in the physical drive [sector] */
    287a:	0020      	movs	r0, r4
C:\Users\alon\Desktop\github\iot-fan_at_cnblogs\CH577_CH578_CH579\AN\CH579EVT_USB_DISK_TEST\BLE\ch57x_ble_uart_mrs_app_only_test\obj/../app/ff.c:5852
		buf[BPB_Media] = 0xF8;							/* Media descriptor byte */
    287c:	7563      	strb	r3, [r4, #21]
st_word():
C:\Users\alon\Desktop\github\iot-fan_at_cnblogs\CH577_CH578_CH579\AN\CH579EVT_USB_DISK_TEST\BLE\ch57x_ble_uart_mrs_app_only_test\obj/../app/ff.c:610
	*ptr++ = (BYTE)val; val >>= 8;
    287e:	3bb9      	subs	r3, #185	; 0xb9
    2880:	7623      	strb	r3, [r4, #24]
    2882:	33c0      	adds	r3, #192	; 0xc0
    2884:	76a3      	strb	r3, [r4, #26]
f_mkfs():
C:\Users\alon\Desktop\github\iot-fan_at_cnblogs\CH577_CH578_CH579\AN\CH579EVT_USB_DISK_TEST\BLE\ch57x_ble_uart_mrs_app_only_test\obj/../app/ff.c:5855
		st_dword(buf + BPB_HiddSec, b_vol);				/* Volume offset in the physical drive [sector] */
    2886:	9903      	ldr	r1, [sp, #12]
st_word():
C:\Users\alon\Desktop\github\iot-fan_at_cnblogs\CH577_CH578_CH579\AN\CH579EVT_USB_DISK_TEST\BLE\ch57x_ble_uart_mrs_app_only_test\obj/../app/ff.c:611
	*ptr++ = (BYTE)val;
    2888:	7665      	strb	r5, [r4, #25]
    288a:	76e5      	strb	r5, [r4, #27]
f_mkfs():
C:\Users\alon\Desktop\github\iot-fan_at_cnblogs\CH577_CH578_CH579\AN\CH579EVT_USB_DISK_TEST\BLE\ch57x_ble_uart_mrs_app_only_test\obj/../app/ff.c:5855
		st_dword(buf + BPB_HiddSec, b_vol);				/* Volume offset in the physical drive [sector] */
    288c:	301c      	adds	r0, #28
    288e:	f7fe faf2 	bl	e76 <st_dword>
C:\Users\alon\Desktop\github\iot-fan_at_cnblogs\CH577_CH578_CH579\AN\CH579EVT_USB_DISK_TEST\BLE\ch57x_ble_uart_mrs_app_only_test\obj/../app/ff.c:5856
		if (fmt == FS_FAT32) {
    2892:	9b01      	ldr	r3, [sp, #4]
    2894:	2b03      	cmp	r3, #3
    2896:	d142      	bne.n	291e <f_mkfs+0x3aa>
st_dword():
C:\Users\alon\Desktop\github\iot-fan_at_cnblogs\CH577_CH578_CH579\AN\CH579EVT_USB_DISK_TEST\BLE\ch57x_ble_uart_mrs_app_only_test\obj/../app/ff.c:616
	*ptr++ = (BYTE)val; val >>= 8;
    2898:	0023      	movs	r3, r4
C:\Users\alon\Desktop\github\iot-fan_at_cnblogs\CH577_CH578_CH579\AN\CH579EVT_USB_DISK_TEST\BLE\ch57x_ble_uart_mrs_app_only_test\obj/../app/ff.c:618
	*ptr++ = (BYTE)val; val >>= 8;
    289a:	2221      	movs	r2, #33	; 0x21
f_mkfs():
C:\Users\alon\Desktop\github\iot-fan_at_cnblogs\CH577_CH578_CH579\AN\CH579EVT_USB_DISK_TEST\BLE\ch57x_ble_uart_mrs_app_only_test\obj/../app/ff.c:5858
			st_dword(buf + BPB_FATSz32, sz_fat);		/* FAT size [sector] */
    289c:	0020      	movs	r0, r4
st_dword():
C:\Users\alon\Desktop\github\iot-fan_at_cnblogs\CH577_CH578_CH579\AN\CH579EVT_USB_DISK_TEST\BLE\ch57x_ble_uart_mrs_app_only_test\obj/../app/ff.c:616
	*ptr++ = (BYTE)val; val >>= 8;
    289e:	3343      	adds	r3, #67	; 0x43
C:\Users\alon\Desktop\github\iot-fan_at_cnblogs\CH577_CH578_CH579\AN\CH579EVT_USB_DISK_TEST\BLE\ch57x_ble_uart_mrs_app_only_test\obj/../app/ff.c:618
	*ptr++ = (BYTE)val; val >>= 8;
    28a0:	709a      	strb	r2, [r3, #2]
C:\Users\alon\Desktop\github\iot-fan_at_cnblogs\CH577_CH578_CH579\AN\CH579EVT_USB_DISK_TEST\BLE\ch57x_ble_uart_mrs_app_only_test\obj/../app/ff.c:619
	*ptr++ = (BYTE)val;
    28a2:	322b      	adds	r2, #43	; 0x2b
    28a4:	70da      	strb	r2, [r3, #3]
f_mkfs():
C:\Users\alon\Desktop\github\iot-fan_at_cnblogs\CH577_CH578_CH579\AN\CH579EVT_USB_DISK_TEST\BLE\ch57x_ble_uart_mrs_app_only_test\obj/../app/ff.c:5858
			st_dword(buf + BPB_FATSz32, sz_fat);		/* FAT size [sector] */
    28a6:	9902      	ldr	r1, [sp, #8]
st_dword():
C:\Users\alon\Desktop\github\iot-fan_at_cnblogs\CH577_CH578_CH579\AN\CH579EVT_USB_DISK_TEST\BLE\ch57x_ble_uart_mrs_app_only_test\obj/../app/ff.c:616
	*ptr++ = (BYTE)val; val >>= 8;
    28a8:	701d      	strb	r5, [r3, #0]
C:\Users\alon\Desktop\github\iot-fan_at_cnblogs\CH577_CH578_CH579\AN\CH579EVT_USB_DISK_TEST\BLE\ch57x_ble_uart_mrs_app_only_test\obj/../app/ff.c:617
	*ptr++ = (BYTE)val; val >>= 8;
    28aa:	705d      	strb	r5, [r3, #1]
f_mkfs():
C:\Users\alon\Desktop\github\iot-fan_at_cnblogs\CH577_CH578_CH579\AN\CH579EVT_USB_DISK_TEST\BLE\ch57x_ble_uart_mrs_app_only_test\obj/../app/ff.c:5858
			st_dword(buf + BPB_FATSz32, sz_fat);		/* FAT size [sector] */
    28ac:	3024      	adds	r0, #36	; 0x24
    28ae:	f7fe fae2 	bl	e76 <st_dword>
st_dword():
C:\Users\alon\Desktop\github\iot-fan_at_cnblogs\CH577_CH578_CH579\AN\CH579EVT_USB_DISK_TEST\BLE\ch57x_ble_uart_mrs_app_only_test\obj/../app/ff.c:616
	*ptr++ = (BYTE)val; val >>= 8;
    28b2:	0023      	movs	r3, r4
    28b4:	2202      	movs	r2, #2
mem_cpy():
C:\Users\alon\Desktop\github\iot-fan_at_cnblogs\CH577_CH578_CH579\AN\CH579EVT_USB_DISK_TEST\BLE\ch57x_ble_uart_mrs_app_only_test\obj/../app/ff.c:616
    28b6:	0020      	movs	r0, r4
st_dword():
C:\Users\alon\Desktop\github\iot-fan_at_cnblogs\CH577_CH578_CH579\AN\CH579EVT_USB_DISK_TEST\BLE\ch57x_ble_uart_mrs_app_only_test\obj/../app/ff.c:616
    28b8:	332c      	adds	r3, #44	; 0x2c
    28ba:	701a      	strb	r2, [r3, #0]
st_word():
C:\Users\alon\Desktop\github\iot-fan_at_cnblogs\CH577_CH578_CH579\AN\CH579EVT_USB_DISK_TEST\BLE\ch57x_ble_uart_mrs_app_only_test\obj/../app/ff.c:610
	*ptr++ = (BYTE)val; val >>= 8;
    28bc:	3a01      	subs	r2, #1
    28be:	711a      	strb	r2, [r3, #4]
    28c0:	3205      	adds	r2, #5
    28c2:	719a      	strb	r2, [r3, #6]
f_mkfs():
C:\Users\alon\Desktop\github\iot-fan_at_cnblogs\CH577_CH578_CH579\AN\CH579EVT_USB_DISK_TEST\BLE\ch57x_ble_uart_mrs_app_only_test\obj/../app/ff.c:5862
			buf[BS_DrvNum32] = 0x80;					/* Drive number (for int13) */
    28c4:	327a      	adds	r2, #122	; 0x7a
    28c6:	751a      	strb	r2, [r3, #20]
mem_cpy():
C:\Users\alon\Desktop\github\iot-fan_at_cnblogs\CH577_CH578_CH579\AN\CH579EVT_USB_DISK_TEST\BLE\ch57x_ble_uart_mrs_app_only_test\obj/../app/ff.c:5862
    28c8:	49b0      	ldr	r1, [pc, #704]	; (2b8c <f_mkfs+0x618>)
f_mkfs():
C:\Users\alon\Desktop\github\iot-fan_at_cnblogs\CH577_CH578_CH579\AN\CH579EVT_USB_DISK_TEST\BLE\ch57x_ble_uart_mrs_app_only_test\obj/../app/ff.c:5863
			buf[BS_BootSig32] = 0x29;					/* Extended boot signature */
    28ca:	3a57      	subs	r2, #87	; 0x57
    28cc:	759a      	strb	r2, [r3, #22]
st_dword():
C:\Users\alon\Desktop\github\iot-fan_at_cnblogs\CH577_CH578_CH579\AN\CH579EVT_USB_DISK_TEST\BLE\ch57x_ble_uart_mrs_app_only_test\obj/../app/ff.c:617
	*ptr++ = (BYTE)val; val >>= 8;
    28ce:	705d      	strb	r5, [r3, #1]
C:\Users\alon\Desktop\github\iot-fan_at_cnblogs\CH577_CH578_CH579\AN\CH579EVT_USB_DISK_TEST\BLE\ch57x_ble_uart_mrs_app_only_test\obj/../app/ff.c:618
	*ptr++ = (BYTE)val; val >>= 8;
    28d0:	709d      	strb	r5, [r3, #2]
C:\Users\alon\Desktop\github\iot-fan_at_cnblogs\CH577_CH578_CH579\AN\CH579EVT_USB_DISK_TEST\BLE\ch57x_ble_uart_mrs_app_only_test\obj/../app/ff.c:619
	*ptr++ = (BYTE)val;
    28d2:	70dd      	strb	r5, [r3, #3]
st_word():
C:\Users\alon\Desktop\github\iot-fan_at_cnblogs\CH577_CH578_CH579\AN\CH579EVT_USB_DISK_TEST\BLE\ch57x_ble_uart_mrs_app_only_test\obj/../app/ff.c:611
	*ptr++ = (BYTE)val;
    28d4:	715d      	strb	r5, [r3, #5]
    28d6:	71dd      	strb	r5, [r3, #7]
mem_cpy():
C:\Users\alon\Desktop\github\iot-fan_at_cnblogs\CH577_CH578_CH579\AN\CH579EVT_USB_DISK_TEST\BLE\ch57x_ble_uart_mrs_app_only_test\obj/../app/ff.c:649
	if (cnt != 0) {
    28d8:	3a16      	subs	r2, #22
    28da:	3047      	adds	r0, #71	; 0x47
    28dc:	f7fe fb38 	bl	f50 <mem_cpy.part.0>
st_word():
C:\Users\alon\Desktop\github\iot-fan_at_cnblogs\CH577_CH578_CH579\AN\CH579EVT_USB_DISK_TEST\BLE\ch57x_ble_uart_mrs_app_only_test\obj/../app/ff.c:610
	*ptr++ = (BYTE)val; val >>= 8;
    28e0:	23ff      	movs	r3, #255	; 0xff
    28e2:	2255      	movs	r2, #85	; 0x55
C:\Users\alon\Desktop\github\iot-fan_at_cnblogs\CH577_CH578_CH579\AN\CH579EVT_USB_DISK_TEST\BLE\ch57x_ble_uart_mrs_app_only_test\obj/../app/ff.c:611
	*ptr++ = (BYTE)val;
    28e4:	27aa      	movs	r7, #170	; 0xaa
C:\Users\alon\Desktop\github\iot-fan_at_cnblogs\CH577_CH578_CH579\AN\CH579EVT_USB_DISK_TEST\BLE\ch57x_ble_uart_mrs_app_only_test\obj/../app/ff.c:610
	*ptr++ = (BYTE)val; val >>= 8;
    28e6:	005b      	lsls	r3, r3, #1
    28e8:	54e2      	strb	r2, [r4, r3]
C:\Users\alon\Desktop\github\iot-fan_at_cnblogs\CH577_CH578_CH579\AN\CH579EVT_USB_DISK_TEST\BLE\ch57x_ble_uart_mrs_app_only_test\obj/../app/ff.c:611
	*ptr++ = (BYTE)val;
    28ea:	4ba9      	ldr	r3, [pc, #676]	; (2b90 <f_mkfs+0x61c>)
f_mkfs():
C:\Users\alon\Desktop\github\iot-fan_at_cnblogs\CH577_CH578_CH579\AN\CH579EVT_USB_DISK_TEST\BLE\ch57x_ble_uart_mrs_app_only_test\obj/../app/ff.c:5873
		if (disk_write(pdrv, buf, b_vol, 1) != RES_OK) LEAVE_MKFS(FR_DISK_ERR);	/* Write it to the VBR sector */
    28ec:	0021      	movs	r1, r4
st_word():
C:\Users\alon\Desktop\github\iot-fan_at_cnblogs\CH577_CH578_CH579\AN\CH579EVT_USB_DISK_TEST\BLE\ch57x_ble_uart_mrs_app_only_test\obj/../app/ff.c:611
	*ptr++ = (BYTE)val;
    28ee:	54e7      	strb	r7, [r4, r3]
f_mkfs():
C:\Users\alon\Desktop\github\iot-fan_at_cnblogs\CH577_CH578_CH579\AN\CH579EVT_USB_DISK_TEST\BLE\ch57x_ble_uart_mrs_app_only_test\obj/../app/ff.c:5873
		if (disk_write(pdrv, buf, b_vol, 1) != RES_OK) LEAVE_MKFS(FR_DISK_ERR);	/* Write it to the VBR sector */
    28f0:	3bff      	subs	r3, #255	; 0xff
    28f2:	3bff      	subs	r3, #255	; 0xff
    28f4:	9a03      	ldr	r2, [sp, #12]
    28f6:	9804      	ldr	r0, [sp, #16]
    28f8:	f7fe fa98 	bl	e2c <disk_write>
    28fc:	4ba4      	ldr	r3, [pc, #656]	; (2b90 <f_mkfs+0x61c>)
    28fe:	1e05      	subs	r5, r0, #0
    2900:	9306      	str	r3, [sp, #24]
    2902:	d026      	beq.n	2952 <f_mkfs+0x3de>
C:\Users\alon\Desktop\github\iot-fan_at_cnblogs\CH577_CH578_CH579\AN\CH579EVT_USB_DISK_TEST\BLE\ch57x_ble_uart_mrs_app_only_test\obj/../app/ff.c:5912 (discriminator 1)
			if (disk_write(pdrv, buf, sect, (UINT)n) != RES_OK) LEAVE_MKFS(FR_DISK_ERR);
    2904:	9b00      	ldr	r3, [sp, #0]
C:\Users\alon\Desktop\github\iot-fan_at_cnblogs\CH577_CH578_CH579\AN\CH579EVT_USB_DISK_TEST\BLE\ch57x_ble_uart_mrs_app_only_test\obj/../app/ff.c:5958 (discriminator 1)
	if (disk_ioctl(pdrv, CTRL_SYNC, 0) != RES_OK) LEAVE_MKFS(FR_DISK_ERR);
    2906:	2b00      	cmp	r3, #0
    2908:	d102      	bne.n	2910 <f_mkfs+0x39c>
C:\Users\alon\Desktop\github\iot-fan_at_cnblogs\CH577_CH578_CH579\AN\CH579EVT_USB_DISK_TEST\BLE\ch57x_ble_uart_mrs_app_only_test\obj/../app/ff.c:5958 (discriminator 3)
    290a:	0020      	movs	r0, r4
    290c:	f000 f94a 	bl	2ba4 <ff_memfree>
    2910:	2601      	movs	r6, #1
    2912:	e68e      	b.n	2632 <f_mkfs+0xbe>
C:\Users\alon\Desktop\github\iot-fan_at_cnblogs\CH577_CH578_CH579\AN\CH579EVT_USB_DISK_TEST\BLE\ch57x_ble_uart_mrs_app_only_test\obj/../app/ff.c:5850
			st_dword(buf + BPB_TotSec32, sz_vol);		/* Volume size in 32-bit LBA */
    2914:	0020      	movs	r0, r4
    2916:	3020      	adds	r0, #32
    2918:	f7fe faad 	bl	e76 <st_dword>
    291c:	e7ab      	b.n	2876 <f_mkfs+0x302>
st_dword():
C:\Users\alon\Desktop\github\iot-fan_at_cnblogs\CH577_CH578_CH579\AN\CH579EVT_USB_DISK_TEST\BLE\ch57x_ble_uart_mrs_app_only_test\obj/../app/ff.c:616
	*ptr++ = (BYTE)val; val >>= 8;
    291e:	0023      	movs	r3, r4
C:\Users\alon\Desktop\github\iot-fan_at_cnblogs\CH577_CH578_CH579\AN\CH579EVT_USB_DISK_TEST\BLE\ch57x_ble_uart_mrs_app_only_test\obj/../app/ff.c:618
	*ptr++ = (BYTE)val; val >>= 8;
    2920:	2221      	movs	r2, #33	; 0x21
C:\Users\alon\Desktop\github\iot-fan_at_cnblogs\CH577_CH578_CH579\AN\CH579EVT_USB_DISK_TEST\BLE\ch57x_ble_uart_mrs_app_only_test\obj/../app/ff.c:616
	*ptr++ = (BYTE)val; val >>= 8;
    2922:	3308      	adds	r3, #8
    2924:	77dd      	strb	r5, [r3, #31]
C:\Users\alon\Desktop\github\iot-fan_at_cnblogs\CH577_CH578_CH579\AN\CH579EVT_USB_DISK_TEST\BLE\ch57x_ble_uart_mrs_app_only_test\obj/../app/ff.c:617
	*ptr++ = (BYTE)val; val >>= 8;
    2926:	3320      	adds	r3, #32
C:\Users\alon\Desktop\github\iot-fan_at_cnblogs\CH577_CH578_CH579\AN\CH579EVT_USB_DISK_TEST\BLE\ch57x_ble_uart_mrs_app_only_test\obj/../app/ff.c:618
	*ptr++ = (BYTE)val; val >>= 8;
    2928:	705a      	strb	r2, [r3, #1]
C:\Users\alon\Desktop\github\iot-fan_at_cnblogs\CH577_CH578_CH579\AN\CH579EVT_USB_DISK_TEST\BLE\ch57x_ble_uart_mrs_app_only_test\obj/../app/ff.c:619
	*ptr++ = (BYTE)val;
    292a:	322b      	adds	r2, #43	; 0x2b
    292c:	709a      	strb	r2, [r3, #2]
C:\Users\alon\Desktop\github\iot-fan_at_cnblogs\CH577_CH578_CH579\AN\CH579EVT_USB_DISK_TEST\BLE\ch57x_ble_uart_mrs_app_only_test\obj/../app/ff.c:617
	*ptr++ = (BYTE)val; val >>= 8;
    292e:	701d      	strb	r5, [r3, #0]
st_word():
C:\Users\alon\Desktop\github\iot-fan_at_cnblogs\CH577_CH578_CH579\AN\CH579EVT_USB_DISK_TEST\BLE\ch57x_ble_uart_mrs_app_only_test\obj/../app/ff.c:610
	*ptr++ = (BYTE)val; val >>= 8;
    2930:	9b02      	ldr	r3, [sp, #8]
mem_cpy():
C:\Users\alon\Desktop\github\iot-fan_at_cnblogs\CH577_CH578_CH579\AN\CH579EVT_USB_DISK_TEST\BLE\ch57x_ble_uart_mrs_app_only_test\obj/../app/ff.c:610
    2932:	0020      	movs	r0, r4
st_word():
C:\Users\alon\Desktop\github\iot-fan_at_cnblogs\CH577_CH578_CH579\AN\CH579EVT_USB_DISK_TEST\BLE\ch57x_ble_uart_mrs_app_only_test\obj/../app/ff.c:610
    2934:	75a3      	strb	r3, [r4, #22]
    2936:	466b      	mov	r3, sp
    2938:	891b      	ldrh	r3, [r3, #8]
f_mkfs():
C:\Users\alon\Desktop\github\iot-fan_at_cnblogs\CH577_CH578_CH579\AN\CH579EVT_USB_DISK_TEST\BLE\ch57x_ble_uart_mrs_app_only_test\obj/../app/ff.c:5868
			buf[BS_DrvNum] = 0x80;						/* Drive number (for int13) */
    293a:	3234      	adds	r2, #52	; 0x34
st_word():
C:\Users\alon\Desktop\github\iot-fan_at_cnblogs\CH577_CH578_CH579\AN\CH579EVT_USB_DISK_TEST\BLE\ch57x_ble_uart_mrs_app_only_test\obj/../app/ff.c:610
	*ptr++ = (BYTE)val; val >>= 8;
    293c:	0a1b      	lsrs	r3, r3, #8
C:\Users\alon\Desktop\github\iot-fan_at_cnblogs\CH577_CH578_CH579\AN\CH579EVT_USB_DISK_TEST\BLE\ch57x_ble_uart_mrs_app_only_test\obj/../app/ff.c:611
	*ptr++ = (BYTE)val;
    293e:	75e3      	strb	r3, [r4, #23]
f_mkfs():
C:\Users\alon\Desktop\github\iot-fan_at_cnblogs\CH577_CH578_CH579\AN\CH579EVT_USB_DISK_TEST\BLE\ch57x_ble_uart_mrs_app_only_test\obj/../app/ff.c:5868
			buf[BS_DrvNum] = 0x80;						/* Drive number (for int13) */
    2940:	1d63      	adds	r3, r4, #5
    2942:	77da      	strb	r2, [r3, #31]
C:\Users\alon\Desktop\github\iot-fan_at_cnblogs\CH577_CH578_CH579\AN\CH579EVT_USB_DISK_TEST\BLE\ch57x_ble_uart_mrs_app_only_test\obj/../app/ff.c:5869
			buf[BS_BootSig] = 0x29;						/* Extended boot signature */
    2944:	3a57      	subs	r2, #87	; 0x57
    2946:	1de3      	adds	r3, r4, #7
    2948:	77da      	strb	r2, [r3, #31]
mem_cpy():
C:\Users\alon\Desktop\github\iot-fan_at_cnblogs\CH577_CH578_CH579\AN\CH579EVT_USB_DISK_TEST\BLE\ch57x_ble_uart_mrs_app_only_test\obj/../app/ff.c:649
	if (cnt != 0) {
    294a:	4992      	ldr	r1, [pc, #584]	; (2b94 <f_mkfs+0x620>)
    294c:	3a16      	subs	r2, #22
    294e:	302b      	adds	r0, #43	; 0x2b
    2950:	e7c4      	b.n	28dc <f_mkfs+0x368>
f_mkfs():
C:\Users\alon\Desktop\github\iot-fan_at_cnblogs\CH577_CH578_CH579\AN\CH579EVT_USB_DISK_TEST\BLE\ch57x_ble_uart_mrs_app_only_test\obj/../app/ff.c:5876 (discriminator 2)
		if (fmt == FS_FAT32) {
    2952:	9b01      	ldr	r3, [sp, #4]
    2954:	2b03      	cmp	r3, #3
    2956:	d146      	bne.n	29e6 <f_mkfs+0x472>
C:\Users\alon\Desktop\github\iot-fan_at_cnblogs\CH577_CH578_CH579\AN\CH579EVT_USB_DISK_TEST\BLE\ch57x_ble_uart_mrs_app_only_test\obj/../app/ff.c:5877
			disk_write(pdrv, buf, b_vol + 6, 1);		/* Write backup VBR (VBR + 6) */
    2958:	9b03      	ldr	r3, [sp, #12]
    295a:	0021      	movs	r1, r4
    295c:	1d9a      	adds	r2, r3, #6
    295e:	9804      	ldr	r0, [sp, #16]
    2960:	2301      	movs	r3, #1
    2962:	f7fe fa63 	bl	e2c <disk_write>
C:\Users\alon\Desktop\github\iot-fan_at_cnblogs\CH577_CH578_CH579\AN\CH579EVT_USB_DISK_TEST\BLE\ch57x_ble_uart_mrs_app_only_test\obj/../app/ff.c:5878
			mem_set(buf, 0, ss);
    2966:	2280      	movs	r2, #128	; 0x80
    2968:	0029      	movs	r1, r5
    296a:	0020      	movs	r0, r4
    296c:	0152      	lsls	r2, r2, #5
    296e:	f7fe fa8a 	bl	e86 <mem_set>
st_dword():
C:\Users\alon\Desktop\github\iot-fan_at_cnblogs\CH577_CH578_CH579\AN\CH579EVT_USB_DISK_TEST\BLE\ch57x_ble_uart_mrs_app_only_test\obj/../app/ff.c:616
	*ptr++ = (BYTE)val; val >>= 8;
    2972:	2352      	movs	r3, #82	; 0x52
    2974:	20f2      	movs	r0, #242	; 0xf2
C:\Users\alon\Desktop\github\iot-fan_at_cnblogs\CH577_CH578_CH579\AN\CH579EVT_USB_DISK_TEST\BLE\ch57x_ble_uart_mrs_app_only_test\obj/../app/ff.c:619
	*ptr++ = (BYTE)val;
    2976:	2241      	movs	r2, #65	; 0x41
C:\Users\alon\Desktop\github\iot-fan_at_cnblogs\CH577_CH578_CH579\AN\CH579EVT_USB_DISK_TEST\BLE\ch57x_ble_uart_mrs_app_only_test\obj/../app/ff.c:616
	*ptr++ = (BYTE)val; val >>= 8;
    2978:	2172      	movs	r1, #114	; 0x72
    297a:	7023      	strb	r3, [r4, #0]
C:\Users\alon\Desktop\github\iot-fan_at_cnblogs\CH577_CH578_CH579\AN\CH579EVT_USB_DISK_TEST\BLE\ch57x_ble_uart_mrs_app_only_test\obj/../app/ff.c:617
	*ptr++ = (BYTE)val; val >>= 8;
    297c:	7063      	strb	r3, [r4, #1]
C:\Users\alon\Desktop\github\iot-fan_at_cnblogs\CH577_CH578_CH579\AN\CH579EVT_USB_DISK_TEST\BLE\ch57x_ble_uart_mrs_app_only_test\obj/../app/ff.c:616
	*ptr++ = (BYTE)val; val >>= 8;
    297e:	0040      	lsls	r0, r0, #1
C:\Users\alon\Desktop\github\iot-fan_at_cnblogs\CH577_CH578_CH579\AN\CH579EVT_USB_DISK_TEST\BLE\ch57x_ble_uart_mrs_app_only_test\obj/../app/ff.c:618
	*ptr++ = (BYTE)val; val >>= 8;
    2980:	330f      	adds	r3, #15
    2982:	70a3      	strb	r3, [r4, #2]
C:\Users\alon\Desktop\github\iot-fan_at_cnblogs\CH577_CH578_CH579\AN\CH579EVT_USB_DISK_TEST\BLE\ch57x_ble_uart_mrs_app_only_test\obj/../app/ff.c:619
	*ptr++ = (BYTE)val;
    2984:	70e2      	strb	r2, [r4, #3]
C:\Users\alon\Desktop\github\iot-fan_at_cnblogs\CH577_CH578_CH579\AN\CH579EVT_USB_DISK_TEST\BLE\ch57x_ble_uart_mrs_app_only_test\obj/../app/ff.c:616
	*ptr++ = (BYTE)val; val >>= 8;
    2986:	5421      	strb	r1, [r4, r0]
C:\Users\alon\Desktop\github\iot-fan_at_cnblogs\CH577_CH578_CH579\AN\CH579EVT_USB_DISK_TEST\BLE\ch57x_ble_uart_mrs_app_only_test\obj/../app/ff.c:617
	*ptr++ = (BYTE)val; val >>= 8;
    2988:	20e6      	movs	r0, #230	; 0xe6
    298a:	30ff      	adds	r0, #255	; 0xff
    298c:	5421      	strb	r1, [r4, r0]
C:\Users\alon\Desktop\github\iot-fan_at_cnblogs\CH577_CH578_CH579\AN\CH579EVT_USB_DISK_TEST\BLE\ch57x_ble_uart_mrs_app_only_test\obj/../app/ff.c:618
	*ptr++ = (BYTE)val; val >>= 8;
    298e:	3175      	adds	r1, #117	; 0x75
    2990:	31ff      	adds	r1, #255	; 0xff
    2992:	5462      	strb	r2, [r4, r1]
f_mkfs():
C:\Users\alon\Desktop\github\iot-fan_at_cnblogs\CH577_CH578_CH579\AN\CH579EVT_USB_DISK_TEST\BLE\ch57x_ble_uart_mrs_app_only_test\obj/../app/ff.c:5881
			st_dword(buf + FSI_Free_Count, n_clst - 1);	/* Number of free clusters */
    2994:	0020      	movs	r0, r4
st_dword():
C:\Users\alon\Desktop\github\iot-fan_at_cnblogs\CH577_CH578_CH579\AN\CH579EVT_USB_DISK_TEST\BLE\ch57x_ble_uart_mrs_app_only_test\obj/../app/ff.c:619
	*ptr++ = (BYTE)val;
    2996:	22e8      	movs	r2, #232	; 0xe8
f_mkfs():
C:\Users\alon\Desktop\github\iot-fan_at_cnblogs\CH577_CH578_CH579\AN\CH579EVT_USB_DISK_TEST\BLE\ch57x_ble_uart_mrs_app_only_test\obj/../app/ff.c:5881
			st_dword(buf + FSI_Free_Count, n_clst - 1);	/* Number of free clusters */
    2998:	990a      	ldr	r1, [sp, #40]	; 0x28
st_dword():
C:\Users\alon\Desktop\github\iot-fan_at_cnblogs\CH577_CH578_CH579\AN\CH579EVT_USB_DISK_TEST\BLE\ch57x_ble_uart_mrs_app_only_test\obj/../app/ff.c:619
	*ptr++ = (BYTE)val;
    299a:	32ff      	adds	r2, #255	; 0xff
f_mkfs():
C:\Users\alon\Desktop\github\iot-fan_at_cnblogs\CH577_CH578_CH579\AN\CH579EVT_USB_DISK_TEST\BLE\ch57x_ble_uart_mrs_app_only_test\obj/../app/ff.c:5881
			st_dword(buf + FSI_Free_Count, n_clst - 1);	/* Number of free clusters */
    299c:	30e9      	adds	r0, #233	; 0xe9
st_dword():
C:\Users\alon\Desktop\github\iot-fan_at_cnblogs\CH577_CH578_CH579\AN\CH579EVT_USB_DISK_TEST\BLE\ch57x_ble_uart_mrs_app_only_test\obj/../app/ff.c:619
	*ptr++ = (BYTE)val;
    299e:	54a3      	strb	r3, [r4, r2]
f_mkfs():
C:\Users\alon\Desktop\github\iot-fan_at_cnblogs\CH577_CH578_CH579\AN\CH579EVT_USB_DISK_TEST\BLE\ch57x_ble_uart_mrs_app_only_test\obj/../app/ff.c:5881
			st_dword(buf + FSI_Free_Count, n_clst - 1);	/* Number of free clusters */
    29a0:	3901      	subs	r1, #1
    29a2:	30ff      	adds	r0, #255	; 0xff
    29a4:	f7fe fa67 	bl	e76 <st_dword>
st_dword():
C:\Users\alon\Desktop\github\iot-fan_at_cnblogs\CH577_CH578_CH579\AN\CH579EVT_USB_DISK_TEST\BLE\ch57x_ble_uart_mrs_app_only_test\obj/../app/ff.c:616
	*ptr++ = (BYTE)val; val >>= 8;
    29a8:	23f6      	movs	r3, #246	; 0xf6
    29aa:	2202      	movs	r2, #2
    29ac:	005b      	lsls	r3, r3, #1
    29ae:	54e2      	strb	r2, [r4, r3]
C:\Users\alon\Desktop\github\iot-fan_at_cnblogs\CH577_CH578_CH579\AN\CH579EVT_USB_DISK_TEST\BLE\ch57x_ble_uart_mrs_app_only_test\obj/../app/ff.c:617
	*ptr++ = (BYTE)val; val >>= 8;
    29b0:	23ee      	movs	r3, #238	; 0xee
    29b2:	33ff      	adds	r3, #255	; 0xff
    29b4:	54e5      	strb	r5, [r4, r3]
C:\Users\alon\Desktop\github\iot-fan_at_cnblogs\CH577_CH578_CH579\AN\CH579EVT_USB_DISK_TEST\BLE\ch57x_ble_uart_mrs_app_only_test\obj/../app/ff.c:618
	*ptr++ = (BYTE)val; val >>= 8;
    29b6:	3301      	adds	r3, #1
    29b8:	54e5      	strb	r5, [r4, r3]
C:\Users\alon\Desktop\github\iot-fan_at_cnblogs\CH577_CH578_CH579\AN\CH579EVT_USB_DISK_TEST\BLE\ch57x_ble_uart_mrs_app_only_test\obj/../app/ff.c:619
	*ptr++ = (BYTE)val;
    29ba:	23f0      	movs	r3, #240	; 0xf0
    29bc:	33ff      	adds	r3, #255	; 0xff
    29be:	54e5      	strb	r5, [r4, r3]
st_word():
C:\Users\alon\Desktop\github\iot-fan_at_cnblogs\CH577_CH578_CH579\AN\CH579EVT_USB_DISK_TEST\BLE\ch57x_ble_uart_mrs_app_only_test\obj/../app/ff.c:610
	*ptr++ = (BYTE)val; val >>= 8;
    29c0:	3253      	adds	r2, #83	; 0x53
    29c2:	330f      	adds	r3, #15
    29c4:	54e2      	strb	r2, [r4, r3]
C:\Users\alon\Desktop\github\iot-fan_at_cnblogs\CH577_CH578_CH579\AN\CH579EVT_USB_DISK_TEST\BLE\ch57x_ble_uart_mrs_app_only_test\obj/../app/ff.c:611
	*ptr++ = (BYTE)val;
    29c6:	4b72      	ldr	r3, [pc, #456]	; (2b90 <f_mkfs+0x61c>)
f_mkfs():
C:\Users\alon\Desktop\github\iot-fan_at_cnblogs\CH577_CH578_CH579\AN\CH579EVT_USB_DISK_TEST\BLE\ch57x_ble_uart_mrs_app_only_test\obj/../app/ff.c:5884
			disk_write(pdrv, buf, b_vol + 7, 1);		/* Write backup FSINFO (VBR + 7) */
    29c8:	0021      	movs	r1, r4
st_word():
C:\Users\alon\Desktop\github\iot-fan_at_cnblogs\CH577_CH578_CH579\AN\CH579EVT_USB_DISK_TEST\BLE\ch57x_ble_uart_mrs_app_only_test\obj/../app/ff.c:611
	*ptr++ = (BYTE)val;
    29ca:	54e7      	strb	r7, [r4, r3]
f_mkfs():
C:\Users\alon\Desktop\github\iot-fan_at_cnblogs\CH577_CH578_CH579\AN\CH579EVT_USB_DISK_TEST\BLE\ch57x_ble_uart_mrs_app_only_test\obj/../app/ff.c:5884
			disk_write(pdrv, buf, b_vol + 7, 1);		/* Write backup FSINFO (VBR + 7) */
    29cc:	9b03      	ldr	r3, [sp, #12]
    29ce:	9804      	ldr	r0, [sp, #16]
    29d0:	1dda      	adds	r2, r3, #7
    29d2:	2301      	movs	r3, #1
    29d4:	f7fe fa2a 	bl	e2c <disk_write>
C:\Users\alon\Desktop\github\iot-fan_at_cnblogs\CH577_CH578_CH579\AN\CH579EVT_USB_DISK_TEST\BLE\ch57x_ble_uart_mrs_app_only_test\obj/../app/ff.c:5885
			disk_write(pdrv, buf, b_vol + 1, 1);		/* Write original FSINFO (VBR + 1) */
    29d8:	9b03      	ldr	r3, [sp, #12]
    29da:	0021      	movs	r1, r4
    29dc:	1c5a      	adds	r2, r3, #1
    29de:	9804      	ldr	r0, [sp, #16]
    29e0:	2301      	movs	r3, #1
    29e2:	f7fe fa23 	bl	e2c <disk_write>
C:\Users\alon\Desktop\github\iot-fan_at_cnblogs\CH577_CH578_CH579\AN\CH579EVT_USB_DISK_TEST\BLE\ch57x_ble_uart_mrs_app_only_test\obj/../app/ff.c:5889
		mem_set(buf, 0, (UINT)szb_buf);
    29e6:	2100      	movs	r1, #0
    29e8:	0020      	movs	r0, r4
    29ea:	9a08      	ldr	r2, [sp, #32]
    29ec:	f7fe fa4b 	bl	e86 <mem_set>
C:\Users\alon\Desktop\github\iot-fan_at_cnblogs\CH577_CH578_CH579\AN\CH579EVT_USB_DISK_TEST\BLE\ch57x_ble_uart_mrs_app_only_test\obj/../app/ff.c:5892
			if (fmt == FS_FAT32) {
    29f0:	9b01      	ldr	r3, [sp, #4]
    29f2:	2b03      	cmp	r3, #3
    29f4:	d000      	beq.n	29f8 <f_mkfs+0x484>
    29f6:	e0a0      	b.n	2b3a <f_mkfs+0x5c6>
st_dword():
C:\Users\alon\Desktop\github\iot-fan_at_cnblogs\CH577_CH578_CH579\AN\CH579EVT_USB_DISK_TEST\BLE\ch57x_ble_uart_mrs_app_only_test\obj/../app/ff.c:616
	*ptr++ = (BYTE)val; val >>= 8;
    29f8:	33f5      	adds	r3, #245	; 0xf5
    29fa:	7023      	strb	r3, [r4, #0]
C:\Users\alon\Desktop\github\iot-fan_at_cnblogs\CH577_CH578_CH579\AN\CH579EVT_USB_DISK_TEST\BLE\ch57x_ble_uart_mrs_app_only_test\obj/../app/ff.c:617
	*ptr++ = (BYTE)val; val >>= 8;
    29fc:	3307      	adds	r3, #7
    29fe:	7063      	strb	r3, [r4, #1]
C:\Users\alon\Desktop\github\iot-fan_at_cnblogs\CH577_CH578_CH579\AN\CH579EVT_USB_DISK_TEST\BLE\ch57x_ble_uart_mrs_app_only_test\obj/../app/ff.c:618
	*ptr++ = (BYTE)val; val >>= 8;
    2a00:	70a3      	strb	r3, [r4, #2]
C:\Users\alon\Desktop\github\iot-fan_at_cnblogs\CH577_CH578_CH579\AN\CH579EVT_USB_DISK_TEST\BLE\ch57x_ble_uart_mrs_app_only_test\obj/../app/ff.c:619
	*ptr++ = (BYTE)val;
    2a02:	70e3      	strb	r3, [r4, #3]
C:\Users\alon\Desktop\github\iot-fan_at_cnblogs\CH577_CH578_CH579\AN\CH579EVT_USB_DISK_TEST\BLE\ch57x_ble_uart_mrs_app_only_test\obj/../app/ff.c:616
	*ptr++ = (BYTE)val; val >>= 8;
    2a04:	7123      	strb	r3, [r4, #4]
C:\Users\alon\Desktop\github\iot-fan_at_cnblogs\CH577_CH578_CH579\AN\CH579EVT_USB_DISK_TEST\BLE\ch57x_ble_uart_mrs_app_only_test\obj/../app/ff.c:617
	*ptr++ = (BYTE)val; val >>= 8;
    2a06:	7163      	strb	r3, [r4, #5]
C:\Users\alon\Desktop\github\iot-fan_at_cnblogs\CH577_CH578_CH579\AN\CH579EVT_USB_DISK_TEST\BLE\ch57x_ble_uart_mrs_app_only_test\obj/../app/ff.c:618
	*ptr++ = (BYTE)val; val >>= 8;
    2a08:	71a3      	strb	r3, [r4, #6]
C:\Users\alon\Desktop\github\iot-fan_at_cnblogs\CH577_CH578_CH579\AN\CH579EVT_USB_DISK_TEST\BLE\ch57x_ble_uart_mrs_app_only_test\obj/../app/ff.c:619
	*ptr++ = (BYTE)val;
    2a0a:	71e3      	strb	r3, [r4, #7]
C:\Users\alon\Desktop\github\iot-fan_at_cnblogs\CH577_CH578_CH579\AN\CH579EVT_USB_DISK_TEST\BLE\ch57x_ble_uart_mrs_app_only_test\obj/../app/ff.c:616
	*ptr++ = (BYTE)val; val >>= 8;
    2a0c:	7223      	strb	r3, [r4, #8]
C:\Users\alon\Desktop\github\iot-fan_at_cnblogs\CH577_CH578_CH579\AN\CH579EVT_USB_DISK_TEST\BLE\ch57x_ble_uart_mrs_app_only_test\obj/../app/ff.c:617
	*ptr++ = (BYTE)val; val >>= 8;
    2a0e:	7263      	strb	r3, [r4, #9]
C:\Users\alon\Desktop\github\iot-fan_at_cnblogs\CH577_CH578_CH579\AN\CH579EVT_USB_DISK_TEST\BLE\ch57x_ble_uart_mrs_app_only_test\obj/../app/ff.c:618
	*ptr++ = (BYTE)val; val >>= 8;
    2a10:	72a3      	strb	r3, [r4, #10]
C:\Users\alon\Desktop\github\iot-fan_at_cnblogs\CH577_CH578_CH579\AN\CH579EVT_USB_DISK_TEST\BLE\ch57x_ble_uart_mrs_app_only_test\obj/../app/ff.c:619
	*ptr++ = (BYTE)val;
    2a12:	3bf0      	subs	r3, #240	; 0xf0
    2a14:	72e3      	strb	r3, [r4, #11]
f_mkfs():
C:\Users\alon\Desktop\github\iot-fan_at_cnblogs\CH577_CH578_CH579\AN\CH579EVT_USB_DISK_TEST\BLE\ch57x_ble_uart_mrs_app_only_test\obj/../app/ff.c:5903
				mem_set(buf, 0, ss);
    2a16:	2780      	movs	r7, #128	; 0x80
    2a18:	017f      	lsls	r7, r7, #5
C:\Users\alon\Desktop\github\iot-fan_at_cnblogs\CH577_CH578_CH579\AN\CH579EVT_USB_DISK_TEST\BLE\ch57x_ble_uart_mrs_app_only_test\obj/../app/ff.c:5901
				n = (nsect > sz_buf) ? sz_buf : nsect;
    2a1a:	9d02      	ldr	r5, [sp, #8]
    2a1c:	9a07      	ldr	r2, [sp, #28]
    2a1e:	4295      	cmp	r5, r2
    2a20:	d900      	bls.n	2a24 <f_mkfs+0x4b0>
    2a22:	0015      	movs	r5, r2
C:\Users\alon\Desktop\github\iot-fan_at_cnblogs\CH577_CH578_CH579\AN\CH579EVT_USB_DISK_TEST\BLE\ch57x_ble_uart_mrs_app_only_test\obj/../app/ff.c:5902
				if (disk_write(pdrv, buf, sect, (UINT)n) != RES_OK) LEAVE_MKFS(FR_DISK_ERR);
    2a24:	0021      	movs	r1, r4
    2a26:	002b      	movs	r3, r5
    2a28:	9a05      	ldr	r2, [sp, #20]
    2a2a:	9804      	ldr	r0, [sp, #16]
    2a2c:	f7fe f9fe 	bl	e2c <disk_write>
    2a30:	1e01      	subs	r1, r0, #0
    2a32:	d000      	beq.n	2a36 <f_mkfs+0x4c2>
    2a34:	e766      	b.n	2904 <f_mkfs+0x390>
C:\Users\alon\Desktop\github\iot-fan_at_cnblogs\CH577_CH578_CH579\AN\CH579EVT_USB_DISK_TEST\BLE\ch57x_ble_uart_mrs_app_only_test\obj/../app/ff.c:5903 (discriminator 2)
				mem_set(buf, 0, ss);
    2a36:	003a      	movs	r2, r7
    2a38:	0020      	movs	r0, r4
    2a3a:	f7fe fa24 	bl	e86 <mem_set>
C:\Users\alon\Desktop\github\iot-fan_at_cnblogs\CH577_CH578_CH579\AN\CH579EVT_USB_DISK_TEST\BLE\ch57x_ble_uart_mrs_app_only_test\obj/../app/ff.c:5904 (discriminator 2)
				sect += n; nsect -= n;
    2a3e:	9b05      	ldr	r3, [sp, #20]
    2a40:	195b      	adds	r3, r3, r5
    2a42:	9305      	str	r3, [sp, #20]
    2a44:	9b02      	ldr	r3, [sp, #8]
    2a46:	1b5b      	subs	r3, r3, r5
    2a48:	9302      	str	r3, [sp, #8]
C:\Users\alon\Desktop\github\iot-fan_at_cnblogs\CH577_CH578_CH579\AN\CH579EVT_USB_DISK_TEST\BLE\ch57x_ble_uart_mrs_app_only_test\obj/../app/ff.c:5905 (discriminator 2)
			} while (nsect);
    2a4a:	d1e6      	bne.n	2a1a <f_mkfs+0x4a6>
C:\Users\alon\Desktop\github\iot-fan_at_cnblogs\CH577_CH578_CH579\AN\CH579EVT_USB_DISK_TEST\BLE\ch57x_ble_uart_mrs_app_only_test\obj/../app/ff.c:5909
		nsect = (fmt == FS_FAT32) ? pau : sz_dir;	/* Number of root directory sectors */
    2a4c:	9b01      	ldr	r3, [sp, #4]
    2a4e:	2b03      	cmp	r3, #3
    2a50:	d000      	beq.n	2a54 <f_mkfs+0x4e0>
    2a52:	9e0b      	ldr	r6, [sp, #44]	; 0x2c
C:\Users\alon\Desktop\github\iot-fan_at_cnblogs\CH577_CH578_CH579\AN\CH579EVT_USB_DISK_TEST\BLE\ch57x_ble_uart_mrs_app_only_test\obj/../app/ff.c:5911
			n = (nsect > sz_buf) ? sz_buf : nsect;
    2a54:	9b07      	ldr	r3, [sp, #28]
    2a56:	0035      	movs	r5, r6
    2a58:	429e      	cmp	r6, r3
    2a5a:	d900      	bls.n	2a5e <f_mkfs+0x4ea>
    2a5c:	001d      	movs	r5, r3
C:\Users\alon\Desktop\github\iot-fan_at_cnblogs\CH577_CH578_CH579\AN\CH579EVT_USB_DISK_TEST\BLE\ch57x_ble_uart_mrs_app_only_test\obj/../app/ff.c:5912
			if (disk_write(pdrv, buf, sect, (UINT)n) != RES_OK) LEAVE_MKFS(FR_DISK_ERR);
    2a5e:	002b      	movs	r3, r5
    2a60:	0021      	movs	r1, r4
    2a62:	9a05      	ldr	r2, [sp, #20]
    2a64:	9804      	ldr	r0, [sp, #16]
    2a66:	f7fe f9e1 	bl	e2c <disk_write>
    2a6a:	2800      	cmp	r0, #0
    2a6c:	d000      	beq.n	2a70 <f_mkfs+0x4fc>
    2a6e:	e749      	b.n	2904 <f_mkfs+0x390>
C:\Users\alon\Desktop\github\iot-fan_at_cnblogs\CH577_CH578_CH579\AN\CH579EVT_USB_DISK_TEST\BLE\ch57x_ble_uart_mrs_app_only_test\obj/../app/ff.c:5913 (discriminator 2)
			sect += n; nsect -= n;
    2a70:	9b05      	ldr	r3, [sp, #20]
    2a72:	1b76      	subs	r6, r6, r5
    2a74:	195b      	adds	r3, r3, r5
    2a76:	9305      	str	r3, [sp, #20]
C:\Users\alon\Desktop\github\iot-fan_at_cnblogs\CH577_CH578_CH579\AN\CH579EVT_USB_DISK_TEST\BLE\ch57x_ble_uart_mrs_app_only_test\obj/../app/ff.c:5914 (discriminator 2)
		} while (nsect);
    2a78:	2e00      	cmp	r6, #0
    2a7a:	d1eb      	bne.n	2a54 <f_mkfs+0x4e0>
C:\Users\alon\Desktop\github\iot-fan_at_cnblogs\CH577_CH578_CH579\AN\CH579EVT_USB_DISK_TEST\BLE\ch57x_ble_uart_mrs_app_only_test\obj/../app/ff.c:5921
		if (fmt == FS_FAT32) {
    2a7c:	9b01      	ldr	r3, [sp, #4]
C:\Users\alon\Desktop\github\iot-fan_at_cnblogs\CH577_CH578_CH579\AN\CH579EVT_USB_DISK_TEST\BLE\ch57x_ble_uart_mrs_app_only_test\obj/../app/ff.c:5922
			sys = 0x0C;		/* FAT32X */
    2a7e:	250c      	movs	r5, #12
C:\Users\alon\Desktop\github\iot-fan_at_cnblogs\CH577_CH578_CH579\AN\CH579EVT_USB_DISK_TEST\BLE\ch57x_ble_uart_mrs_app_only_test\obj/../app/ff.c:5921
		if (fmt == FS_FAT32) {
    2a80:	2b03      	cmp	r3, #3
    2a82:	d00a      	beq.n	2a9a <f_mkfs+0x526>
C:\Users\alon\Desktop\github\iot-fan_at_cnblogs\CH577_CH578_CH579\AN\CH579EVT_USB_DISK_TEST\BLE\ch57x_ble_uart_mrs_app_only_test\obj/../app/ff.c:5924
			if (sz_vol >= 0x10000) {
    2a84:	2380      	movs	r3, #128	; 0x80
    2a86:	9a0f      	ldr	r2, [sp, #60]	; 0x3c
    2a88:	025b      	lsls	r3, r3, #9
C:\Users\alon\Desktop\github\iot-fan_at_cnblogs\CH577_CH578_CH579\AN\CH579EVT_USB_DISK_TEST\BLE\ch57x_ble_uart_mrs_app_only_test\obj/../app/ff.c:5925
				sys = 0x06;	/* FAT12/16 (large) */
    2a8a:	3d06      	subs	r5, #6
C:\Users\alon\Desktop\github\iot-fan_at_cnblogs\CH577_CH578_CH579\AN\CH579EVT_USB_DISK_TEST\BLE\ch57x_ble_uart_mrs_app_only_test\obj/../app/ff.c:5924
			if (sz_vol >= 0x10000) {
    2a8c:	429a      	cmp	r2, r3
    2a8e:	d204      	bcs.n	2a9a <f_mkfs+0x526>
C:\Users\alon\Desktop\github\iot-fan_at_cnblogs\CH577_CH578_CH579\AN\CH579EVT_USB_DISK_TEST\BLE\ch57x_ble_uart_mrs_app_only_test\obj/../app/ff.c:5927
				sys = (fmt == FS_FAT16) ? 0x04 : 0x01;	/* FAT16 : FAT12 */
    2a90:	9b01      	ldr	r3, [sp, #4]
    2a92:	3d02      	subs	r5, #2
    2a94:	2b02      	cmp	r3, #2
    2a96:	d000      	beq.n	2a9a <f_mkfs+0x526>
    2a98:	3d03      	subs	r5, #3
C:\Users\alon\Desktop\github\iot-fan_at_cnblogs\CH577_CH578_CH579\AN\CH579EVT_USB_DISK_TEST\BLE\ch57x_ble_uart_mrs_app_only_test\obj/../app/ff.c:5939
		if (!(opt & FM_SFD)) {	/* Create partition table if in FDISK format */
    2a9a:	9b09      	ldr	r3, [sp, #36]	; 0x24
    2a9c:	2b00      	cmp	r3, #0
    2a9e:	d159      	bne.n	2b54 <f_mkfs+0x5e0>
C:\Users\alon\Desktop\github\iot-fan_at_cnblogs\CH577_CH578_CH579\AN\CH579EVT_USB_DISK_TEST\BLE\ch57x_ble_uart_mrs_app_only_test\obj/../app/ff.c:5940
			mem_set(buf, 0, ss);
    2aa0:	2280      	movs	r2, #128	; 0x80
    2aa2:	0019      	movs	r1, r3
    2aa4:	0020      	movs	r0, r4
    2aa6:	0152      	lsls	r2, r2, #5
    2aa8:	f7fe f9ed 	bl	e86 <mem_set>
st_word():
C:\Users\alon\Desktop\github\iot-fan_at_cnblogs\CH577_CH578_CH579\AN\CH579EVT_USB_DISK_TEST\BLE\ch57x_ble_uart_mrs_app_only_test\obj/../app/ff.c:610
	*ptr++ = (BYTE)val; val >>= 8;
    2aac:	23ff      	movs	r3, #255	; 0xff
    2aae:	2255      	movs	r2, #85	; 0x55
    2ab0:	005b      	lsls	r3, r3, #1
    2ab2:	54e2      	strb	r2, [r4, r3]
C:\Users\alon\Desktop\github\iot-fan_at_cnblogs\CH577_CH578_CH579\AN\CH579EVT_USB_DISK_TEST\BLE\ch57x_ble_uart_mrs_app_only_test\obj/../app/ff.c:611
	*ptr++ = (BYTE)val;
    2ab4:	9a06      	ldr	r2, [sp, #24]
    2ab6:	3b55      	subs	r3, #85	; 0x55
    2ab8:	3bff      	subs	r3, #255	; 0xff
    2aba:	54a3      	strb	r3, [r4, r2]
f_mkfs():
C:\Users\alon\Desktop\github\iot-fan_at_cnblogs\CH577_CH578_CH579\AN\CH579EVT_USB_DISK_TEST\BLE\ch57x_ble_uart_mrs_app_only_test\obj/../app/ff.c:5943
			pte[PTE_Boot] = 0;					/* Boot indicator */
    2abc:	9a09      	ldr	r2, [sp, #36]	; 0x24
    2abe:	3315      	adds	r3, #21
    2ac0:	33ff      	adds	r3, #255	; 0xff
    2ac2:	54e2      	strb	r2, [r4, r3]
C:\Users\alon\Desktop\github\iot-fan_at_cnblogs\CH577_CH578_CH579\AN\CH579EVT_USB_DISK_TEST\BLE\ch57x_ble_uart_mrs_app_only_test\obj/../app/ff.c:5944
			pte[PTE_StHead] = 1;				/* Start head */
    2ac4:	23c0      	movs	r3, #192	; 0xc0
    2ac6:	2601      	movs	r6, #1
    2ac8:	33ff      	adds	r3, #255	; 0xff
    2aca:	54e6      	strb	r6, [r4, r3]
C:\Users\alon\Desktop\github\iot-fan_at_cnblogs\CH577_CH578_CH579\AN\CH579EVT_USB_DISK_TEST\BLE\ch57x_ble_uart_mrs_app_only_test\obj/../app/ff.c:5945
			pte[PTE_StSec] = 1;					/* Start sector */
    2acc:	199b      	adds	r3, r3, r6
    2ace:	54e6      	strb	r6, [r4, r3]
C:\Users\alon\Desktop\github\iot-fan_at_cnblogs\CH577_CH578_CH579\AN\CH579EVT_USB_DISK_TEST\BLE\ch57x_ble_uart_mrs_app_only_test\obj/../app/ff.c:5946
			pte[PTE_StCyl] = 0;					/* Start cylinder */
    2ad0:	23c2      	movs	r3, #194	; 0xc2
    2ad2:	33ff      	adds	r3, #255	; 0xff
    2ad4:	54e2      	strb	r2, [r4, r3]
C:\Users\alon\Desktop\github\iot-fan_at_cnblogs\CH577_CH578_CH579\AN\CH579EVT_USB_DISK_TEST\BLE\ch57x_ble_uart_mrs_app_only_test\obj/../app/ff.c:5947
			pte[PTE_System] = sys;				/* System type */
    2ad6:	199b      	adds	r3, r3, r6
C:\Users\alon\Desktop\github\iot-fan_at_cnblogs\CH577_CH578_CH579\AN\CH579EVT_USB_DISK_TEST\BLE\ch57x_ble_uart_mrs_app_only_test\obj/../app/ff.c:5948
			n = (b_vol + sz_vol) / (63 * 255);	/* (End CHS may be invalid) */
    2ad8:	9a0f      	ldr	r2, [sp, #60]	; 0x3c
C:\Users\alon\Desktop\github\iot-fan_at_cnblogs\CH577_CH578_CH579\AN\CH579EVT_USB_DISK_TEST\BLE\ch57x_ble_uart_mrs_app_only_test\obj/../app/ff.c:5947
			pte[PTE_System] = sys;				/* System type */
    2ada:	54e5      	strb	r5, [r4, r3]
C:\Users\alon\Desktop\github\iot-fan_at_cnblogs\CH577_CH578_CH579\AN\CH579EVT_USB_DISK_TEST\BLE\ch57x_ble_uart_mrs_app_only_test\obj/../app/ff.c:5948
			n = (b_vol + sz_vol) / (63 * 255);	/* (End CHS may be invalid) */
    2adc:	9b03      	ldr	r3, [sp, #12]
    2ade:	492e      	ldr	r1, [pc, #184]	; (2b98 <f_mkfs+0x624>)
    2ae0:	1898      	adds	r0, r3, r2
    2ae2:	f7fd faf3 	bl	cc <__udivsi3>
C:\Users\alon\Desktop\github\iot-fan_at_cnblogs\CH577_CH578_CH579\AN\CH579EVT_USB_DISK_TEST\BLE\ch57x_ble_uart_mrs_app_only_test\obj/../app/ff.c:5949
			pte[PTE_EdHead] = 254;				/* End head */
    2ae6:	23c4      	movs	r3, #196	; 0xc4
    2ae8:	22fe      	movs	r2, #254	; 0xfe
    2aea:	33ff      	adds	r3, #255	; 0xff
    2aec:	54e2      	strb	r2, [r4, r3]
C:\Users\alon\Desktop\github\iot-fan_at_cnblogs\CH577_CH578_CH579\AN\CH579EVT_USB_DISK_TEST\BLE\ch57x_ble_uart_mrs_app_only_test\obj/../app/ff.c:5950
			pte[PTE_EdSec] = (BYTE)(((n >> 2) & 0xC0) | 63);	/* End sector */
    2aee:	3b85      	subs	r3, #133	; 0x85
    2af0:	0882      	lsrs	r2, r0, #2
    2af2:	3bff      	subs	r3, #255	; 0xff
    2af4:	4313      	orrs	r3, r2
    2af6:	22e2      	movs	r2, #226	; 0xe2
    2af8:	0052      	lsls	r2, r2, #1
    2afa:	54a3      	strb	r3, [r4, r2]
C:\Users\alon\Desktop\github\iot-fan_at_cnblogs\CH577_CH578_CH579\AN\CH579EVT_USB_DISK_TEST\BLE\ch57x_ble_uart_mrs_app_only_test\obj/../app/ff.c:5951
			pte[PTE_EdCyl] = (BYTE)n;			/* End cylinder */
    2afc:	23c6      	movs	r3, #198	; 0xc6
    2afe:	33ff      	adds	r3, #255	; 0xff
    2b00:	54e0      	strb	r0, [r4, r3]
C:\Users\alon\Desktop\github\iot-fan_at_cnblogs\CH577_CH578_CH579\AN\CH579EVT_USB_DISK_TEST\BLE\ch57x_ble_uart_mrs_app_only_test\obj/../app/ff.c:5952
			st_dword(pte + PTE_StLba, b_vol);	/* Start offset in LBA */
    2b02:	0020      	movs	r0, r4
    2b04:	30c7      	adds	r0, #199	; 0xc7
    2b06:	9903      	ldr	r1, [sp, #12]
    2b08:	30ff      	adds	r0, #255	; 0xff
    2b0a:	f7fe f9b4 	bl	e76 <st_dword>
C:\Users\alon\Desktop\github\iot-fan_at_cnblogs\CH577_CH578_CH579\AN\CH579EVT_USB_DISK_TEST\BLE\ch57x_ble_uart_mrs_app_only_test\obj/../app/ff.c:5953
			st_dword(pte + PTE_SizLba, sz_vol);	/* Size in sectors */
    2b0e:	0020      	movs	r0, r4
    2b10:	30cb      	adds	r0, #203	; 0xcb
    2b12:	990f      	ldr	r1, [sp, #60]	; 0x3c
    2b14:	30ff      	adds	r0, #255	; 0xff
    2b16:	f7fe f9ae 	bl	e76 <st_dword>
C:\Users\alon\Desktop\github\iot-fan_at_cnblogs\CH577_CH578_CH579\AN\CH579EVT_USB_DISK_TEST\BLE\ch57x_ble_uart_mrs_app_only_test\obj/../app/ff.c:5954
			if (disk_write(pdrv, buf, 0, 1) != RES_OK) LEAVE_MKFS(FR_DISK_ERR);	/* Write it to the MBR */
    2b1a:	0033      	movs	r3, r6
    2b1c:	0021      	movs	r1, r4
    2b1e:	9a09      	ldr	r2, [sp, #36]	; 0x24
    2b20:	9804      	ldr	r0, [sp, #16]
    2b22:	f7fe f983 	bl	e2c <disk_write>
    2b26:	2800      	cmp	r0, #0
    2b28:	d014      	beq.n	2b54 <f_mkfs+0x5e0>
C:\Users\alon\Desktop\github\iot-fan_at_cnblogs\CH577_CH578_CH579\AN\CH579EVT_USB_DISK_TEST\BLE\ch57x_ble_uart_mrs_app_only_test\obj/../app/ff.c:5954 (discriminator 1)
    2b2a:	9b00      	ldr	r3, [sp, #0]
    2b2c:	2b00      	cmp	r3, #0
    2b2e:	d000      	beq.n	2b32 <f_mkfs+0x5be>
    2b30:	e6ee      	b.n	2910 <f_mkfs+0x39c>
C:\Users\alon\Desktop\github\iot-fan_at_cnblogs\CH577_CH578_CH579\AN\CH579EVT_USB_DISK_TEST\BLE\ch57x_ble_uart_mrs_app_only_test\obj/../app/ff.c:5960 (discriminator 1)
	LEAVE_MKFS(FR_OK);
    2b32:	0020      	movs	r0, r4
    2b34:	f000 f836 	bl	2ba4 <ff_memfree>
    2b38:	e57b      	b.n	2632 <f_mkfs+0xbe>
C:\Users\alon\Desktop\github\iot-fan_at_cnblogs\CH577_CH578_CH579\AN\CH579EVT_USB_DISK_TEST\BLE\ch57x_ble_uart_mrs_app_only_test\obj/../app/ff.c:5897
				st_dword(buf + 0, (fmt == FS_FAT12) ? 0xFFFFF8 : 0xFFFFFFF8);	/* Entry 0 and 1 */
    2b3a:	9b01      	ldr	r3, [sp, #4]
    2b3c:	0020      	movs	r0, r4
    2b3e:	1e59      	subs	r1, r3, #1
    2b40:	424b      	negs	r3, r1
    2b42:	4159      	adcs	r1, r3
    2b44:	2380      	movs	r3, #128	; 0x80
    2b46:	4249      	negs	r1, r1
    2b48:	045b      	lsls	r3, r3, #17
    2b4a:	4019      	ands	r1, r3
    2b4c:	3908      	subs	r1, #8
    2b4e:	f7fe f992 	bl	e76 <st_dword>
    2b52:	e760      	b.n	2a16 <f_mkfs+0x4a2>
C:\Users\alon\Desktop\github\iot-fan_at_cnblogs\CH577_CH578_CH579\AN\CH579EVT_USB_DISK_TEST\BLE\ch57x_ble_uart_mrs_app_only_test\obj/../app/ff.c:5958
	if (disk_ioctl(pdrv, CTRL_SYNC, 0) != RES_OK) LEAVE_MKFS(FR_DISK_ERR);
    2b54:	2200      	movs	r2, #0
    2b56:	9804      	ldr	r0, [sp, #16]
    2b58:	0011      	movs	r1, r2
    2b5a:	f7fe f8f5 	bl	d48 <disk_ioctl>
    2b5e:	9b00      	ldr	r3, [sp, #0]
    2b60:	1e06      	subs	r6, r0, #0
    2b62:	d100      	bne.n	2b66 <f_mkfs+0x5f2>
    2b64:	e55c      	b.n	2620 <f_mkfs+0xac>
    2b66:	e6ce      	b.n	2906 <f_mkfs+0x392>
C:\Users\alon\Desktop\github\iot-fan_at_cnblogs\CH577_CH578_CH579\AN\CH579EVT_USB_DISK_TEST\BLE\ch57x_ble_uart_mrs_app_only_test\obj/../app/ff.c:5818
					if ((opt & FM_FAT32)) {
    2b68:	9b0c      	ldr	r3, [sp, #48]	; 0x30
    2b6a:	2b00      	cmp	r3, #0
    2b6c:	d000      	beq.n	2b70 <f_mkfs+0x5fc>
    2b6e:	e5ef      	b.n	2750 <f_mkfs+0x1dc>
    2b70:	0035      	movs	r5, r6
C:\Users\alon\Desktop\github\iot-fan_at_cnblogs\CH577_CH578_CH579\AN\CH579EVT_USB_DISK_TEST\BLE\ch57x_ble_uart_mrs_app_only_test\obj/../app/ff.c:5821 (discriminator 1)
					if (au == 0 && (au = pau * 2) <= 128) continue;	/* Adjust cluster size and retry */
    2b72:	2e80      	cmp	r6, #128	; 0x80
    2b74:	d800      	bhi.n	2b78 <f_mkfs+0x604>
    2b76:	e5a5      	b.n	26c4 <f_mkfs+0x150>
    2b78:	e572      	b.n	2660 <f_mkfs+0xec>
C:\Users\alon\Desktop\github\iot-fan_at_cnblogs\CH577_CH578_CH579\AN\CH579EVT_USB_DISK_TEST\BLE\ch57x_ble_uart_mrs_app_only_test\obj/../app/ff.c:5818
					if ((opt & FM_FAT32)) {
    2b7a:	9b0c      	ldr	r3, [sp, #48]	; 0x30
    2b7c:	2b00      	cmp	r3, #0
    2b7e:	d000      	beq.n	2b82 <f_mkfs+0x60e>
    2b80:	e5e4      	b.n	274c <f_mkfs+0x1d8>
    2b82:	e56d      	b.n	2660 <f_mkfs+0xec>
    2b84:	00000ff5 	.word	0x00000ff5
    2b88:	00004bd6 	.word	0x00004bd6
    2b8c:	00004be2 	.word	0x00004be2
    2b90:	000001ff 	.word	0x000001ff
    2b94:	00004bf6 	.word	0x00004bf6
    2b98:	00003ec1 	.word	0x00003ec1

00002b9c <ff_memalloc>:
ff_memalloc():
C:\Users\alon\Desktop\github\iot-fan_at_cnblogs\CH577_CH578_CH579\AN\CH579EVT_USB_DISK_TEST\BLE\ch57x_ble_uart_mrs_app_only_test\obj/../app/ffsystem.c:20
/*------------------------------------------------------------------------*/

void* ff_memalloc (	/* Returns pointer to the allocated memory block (null on not enough core) */
	UINT msize		/* Number of bytes to allocate */
)
{
    2b9c:	b510      	push	{r4, lr}
C:\Users\alon\Desktop\github\iot-fan_at_cnblogs\CH577_CH578_CH579\AN\CH579EVT_USB_DISK_TEST\BLE\ch57x_ble_uart_mrs_app_only_test\obj/../app/ffsystem.c:21
	return malloc(msize);	/* Allocate a new memory block with POSIX API */
    2b9e:	f000 fedd 	bl	395c <malloc>
C:\Users\alon\Desktop\github\iot-fan_at_cnblogs\CH577_CH578_CH579\AN\CH579EVT_USB_DISK_TEST\BLE\ch57x_ble_uart_mrs_app_only_test\obj/../app/ffsystem.c:22
}
    2ba2:	bd10      	pop	{r4, pc}

00002ba4 <ff_memfree>:
ff_memfree():
C:\Users\alon\Desktop\github\iot-fan_at_cnblogs\CH577_CH578_CH579\AN\CH579EVT_USB_DISK_TEST\BLE\ch57x_ble_uart_mrs_app_only_test\obj/../app/ffsystem.c:32
/*------------------------------------------------------------------------*/

void ff_memfree (
	void* mblock	/* Pointer to the memory block to free (nothing to do for null) */
)
{
    2ba4:	b510      	push	{r4, lr}
C:\Users\alon\Desktop\github\iot-fan_at_cnblogs\CH577_CH578_CH579\AN\CH579EVT_USB_DISK_TEST\BLE\ch57x_ble_uart_mrs_app_only_test\obj/../app/ffsystem.c:33
	free(mblock);	/* Free the memory block with POSIX API */
    2ba6:	f000 fee3 	bl	3970 <free>
C:\Users\alon\Desktop\github\iot-fan_at_cnblogs\CH577_CH578_CH579\AN\CH579EVT_USB_DISK_TEST\BLE\ch57x_ble_uart_mrs_app_only_test\obj/../app/ffsystem.c:34
}
    2baa:	bd10      	pop	{r4, pc}

00002bac <ff_uni2oem>:
ff_uni2oem():
C:\Users\alon\Desktop\github\iot-fan_at_cnblogs\CH577_CH578_CH579\AN\CH579EVT_USB_DISK_TEST\BLE\ch57x_ble_uart_mrs_app_only_test\obj/../app/ffunicode.c:15230
#if FF_CODE_PAGE != 0 && FF_CODE_PAGE < 900
WCHAR ff_uni2oem (	/* Returns OEM code character, zero on error */
	DWORD	uni,	/* UTF-16 encoded character to be converted */
	WORD	cp		/* Code page for the conversion */
)
{
    2bac:	0003      	movs	r3, r0
C:\Users\alon\Desktop\github\iot-fan_at_cnblogs\CH577_CH578_CH579\AN\CH579EVT_USB_DISK_TEST\BLE\ch57x_ble_uart_mrs_app_only_test\obj/../app/ffunicode.c:15236
	WCHAR c = 0;
	const WCHAR *p = CVTBL(uc, FF_CODE_PAGE);


	if (uni < 0x80) {	/* ASCII? */
		c = (WCHAR)uni;
    2bae:	b280      	uxth	r0, r0
C:\Users\alon\Desktop\github\iot-fan_at_cnblogs\CH577_CH578_CH579\AN\CH579EVT_USB_DISK_TEST\BLE\ch57x_ble_uart_mrs_app_only_test\obj/../app/ffunicode.c:15235
	if (uni < 0x80) {	/* ASCII? */
    2bb0:	2b7f      	cmp	r3, #127	; 0x7f
    2bb2:	d913      	bls.n	2bdc <ff_uni2oem+0x30>
C:\Users\alon\Desktop\github\iot-fan_at_cnblogs\CH577_CH578_CH579\AN\CH579EVT_USB_DISK_TEST\BLE\ch57x_ble_uart_mrs_app_only_test\obj/../app/ffunicode.c:15239

	} else {			/* Non-ASCII */
		if (uni < 0x10000 && cp == FF_CODE_PAGE) {	/* Is it in BMP and valid code page? */
    2bb4:	2280      	movs	r2, #128	; 0x80
C:\Users\alon\Desktop\github\iot-fan_at_cnblogs\CH577_CH578_CH579\AN\CH579EVT_USB_DISK_TEST\BLE\ch57x_ble_uart_mrs_app_only_test\obj/../app/ffunicode.c:15231
	WCHAR c = 0;
    2bb6:	2000      	movs	r0, #0
C:\Users\alon\Desktop\github\iot-fan_at_cnblogs\CH577_CH578_CH579\AN\CH579EVT_USB_DISK_TEST\BLE\ch57x_ble_uart_mrs_app_only_test\obj/../app/ffunicode.c:15239
		if (uni < 0x10000 && cp == FF_CODE_PAGE) {	/* Is it in BMP and valid code page? */
    2bb8:	0252      	lsls	r2, r2, #9
    2bba:	4293      	cmp	r3, r2
    2bbc:	d20e      	bcs.n	2bdc <ff_uni2oem+0x30>
C:\Users\alon\Desktop\github\iot-fan_at_cnblogs\CH577_CH578_CH579\AN\CH579EVT_USB_DISK_TEST\BLE\ch57x_ble_uart_mrs_app_only_test\obj/../app/ffunicode.c:15239 (discriminator 1)
    2bbe:	22b6      	movs	r2, #182	; 0xb6
    2bc0:	32ff      	adds	r2, #255	; 0xff
    2bc2:	4291      	cmp	r1, r2
    2bc4:	d10a      	bne.n	2bdc <ff_uni2oem+0x30>
    2bc6:	4a06      	ldr	r2, [pc, #24]	; (2be0 <ff_uni2oem+0x34>)
C:\Users\alon\Desktop\github\iot-fan_at_cnblogs\CH577_CH578_CH579\AN\CH579EVT_USB_DISK_TEST\BLE\ch57x_ble_uart_mrs_app_only_test\obj/../app/ffunicode.c:15240 (discriminator 3)
			for (c = 0; c < 0x80 && uni != p[c]; c++) ;
    2bc8:	8811      	ldrh	r1, [r2, #0]
    2bca:	4299      	cmp	r1, r3
    2bcc:	d004      	beq.n	2bd8 <ff_uni2oem+0x2c>
C:\Users\alon\Desktop\github\iot-fan_at_cnblogs\CH577_CH578_CH579\AN\CH579EVT_USB_DISK_TEST\BLE\ch57x_ble_uart_mrs_app_only_test\obj/../app/ffunicode.c:15240 (discriminator 4)
    2bce:	3001      	adds	r0, #1
    2bd0:	b280      	uxth	r0, r0
    2bd2:	3202      	adds	r2, #2
    2bd4:	2880      	cmp	r0, #128	; 0x80
    2bd6:	d1f7      	bne.n	2bc8 <ff_uni2oem+0x1c>
C:\Users\alon\Desktop\github\iot-fan_at_cnblogs\CH577_CH578_CH579\AN\CH579EVT_USB_DISK_TEST\BLE\ch57x_ble_uart_mrs_app_only_test\obj/../app/ffunicode.c:15241
			c = (c + 0x80) & 0xFF;
    2bd8:	3080      	adds	r0, #128	; 0x80
    2bda:	b2c0      	uxtb	r0, r0
C:\Users\alon\Desktop\github\iot-fan_at_cnblogs\CH577_CH578_CH579\AN\CH579EVT_USB_DISK_TEST\BLE\ch57x_ble_uart_mrs_app_only_test\obj/../app/ffunicode.c:15246
		}
	}

	return c;
}
    2bdc:	4770      	bx	lr
    2bde:	46c0      	nop			; (mov r8, r8)
    2be0:	00004f62 	.word	0x00004f62

00002be4 <ff_oem2uni>:
ff_oem2uni():
C:\Users\alon\Desktop\github\iot-fan_at_cnblogs\CH577_CH578_CH579\AN\CH579EVT_USB_DISK_TEST\BLE\ch57x_ble_uart_mrs_app_only_test\obj/../app/ffunicode.c:15257
{
	WCHAR c = 0;
	const WCHAR *p = CVTBL(uc, FF_CODE_PAGE);


	if (oem < 0x80) {	/* ASCII? */
    2be4:	287f      	cmp	r0, #127	; 0x7f
    2be6:	d90a      	bls.n	2bfe <ff_oem2uni+0x1a>
C:\Users\alon\Desktop\github\iot-fan_at_cnblogs\CH577_CH578_CH579\AN\CH579EVT_USB_DISK_TEST\BLE\ch57x_ble_uart_mrs_app_only_test\obj/../app/ffunicode.c:15261
		c = oem;

	} else {			/* Extended char */
		if (cp == FF_CODE_PAGE) {	/* Is it a valid code page? */
    2be8:	23b6      	movs	r3, #182	; 0xb6
    2bea:	33ff      	adds	r3, #255	; 0xff
    2bec:	4299      	cmp	r1, r3
    2bee:	d107      	bne.n	2c00 <ff_oem2uni+0x1c>
C:\Users\alon\Desktop\github\iot-fan_at_cnblogs\CH577_CH578_CH579\AN\CH579EVT_USB_DISK_TEST\BLE\ch57x_ble_uart_mrs_app_only_test\obj/../app/ffunicode.c:15262
			if (oem < 0x100) c = p[oem - 0x80];
    2bf0:	28ff      	cmp	r0, #255	; 0xff
    2bf2:	d805      	bhi.n	2c00 <ff_oem2uni+0x1c>
C:\Users\alon\Desktop\github\iot-fan_at_cnblogs\CH577_CH578_CH579\AN\CH579EVT_USB_DISK_TEST\BLE\ch57x_ble_uart_mrs_app_only_test\obj/../app/ffunicode.c:15262 (discriminator 1)
    2bf4:	4b03      	ldr	r3, [pc, #12]	; (2c04 <ff_oem2uni+0x20>)
    2bf6:	18c0      	adds	r0, r0, r3
    2bf8:	4b03      	ldr	r3, [pc, #12]	; (2c08 <ff_oem2uni+0x24>)
    2bfa:	0040      	lsls	r0, r0, #1
    2bfc:	5a18      	ldrh	r0, [r3, r0]
C:\Users\alon\Desktop\github\iot-fan_at_cnblogs\CH577_CH578_CH579\AN\CH579EVT_USB_DISK_TEST\BLE\ch57x_ble_uart_mrs_app_only_test\obj/../app/ffunicode.c:15267
		}
	}

	return c;
}
    2bfe:	4770      	bx	lr
C:\Users\alon\Desktop\github\iot-fan_at_cnblogs\CH577_CH578_CH579\AN\CH579EVT_USB_DISK_TEST\BLE\ch57x_ble_uart_mrs_app_only_test\obj/../app/ffunicode.c:15253
	WCHAR c = 0;
    2c00:	2000      	movs	r0, #0
    2c02:	e7fc      	b.n	2bfe <ff_oem2uni+0x1a>
    2c04:	7fffff80 	.word	0x7fffff80
    2c08:	00004f62 	.word	0x00004f62

00002c0c <ff_wtoupper>:
ff_wtoupper():
C:\Users\alon\Desktop\github\iot-fan_at_cnblogs\CH577_CH578_CH579\AN\CH579EVT_USB_DISK_TEST\BLE\ch57x_ble_uart_mrs_app_only_test\obj/../app/ffunicode.c:15567

		0x0000	/* EOT */
	};


	if (uni < 0x10000) {	/* Is it in BMP? */
    2c0c:	2380      	movs	r3, #128	; 0x80
C:\Users\alon\Desktop\github\iot-fan_at_cnblogs\CH577_CH578_CH579\AN\CH579EVT_USB_DISK_TEST\BLE\ch57x_ble_uart_mrs_app_only_test\obj/../app/ffunicode.c:15471
{
    2c0e:	b5f0      	push	{r4, r5, r6, r7, lr}
C:\Users\alon\Desktop\github\iot-fan_at_cnblogs\CH577_CH578_CH579\AN\CH579EVT_USB_DISK_TEST\BLE\ch57x_ble_uart_mrs_app_only_test\obj/../app/ffunicode.c:15567
	if (uni < 0x10000) {	/* Is it in BMP? */
    2c10:	025b      	lsls	r3, r3, #9
C:\Users\alon\Desktop\github\iot-fan_at_cnblogs\CH577_CH578_CH579\AN\CH579EVT_USB_DISK_TEST\BLE\ch57x_ble_uart_mrs_app_only_test\obj/../app/ffunicode.c:15471
{
    2c12:	0004      	movs	r4, r0
C:\Users\alon\Desktop\github\iot-fan_at_cnblogs\CH577_CH578_CH579\AN\CH579EVT_USB_DISK_TEST\BLE\ch57x_ble_uart_mrs_app_only_test\obj/../app/ffunicode.c:15567
	if (uni < 0x10000) {	/* Is it in BMP? */
    2c14:	4298      	cmp	r0, r3
    2c16:	d221      	bcs.n	2c5c <ff_wtoupper+0x50>
C:\Users\alon\Desktop\github\iot-fan_at_cnblogs\CH577_CH578_CH579\AN\CH579EVT_USB_DISK_TEST\BLE\ch57x_ble_uart_mrs_app_only_test\obj/../app/ffunicode.c:15569
		uc = (WORD)uni;
		p = uc < 0x1000 ? cvt1 : cvt2;
    2c18:	2280      	movs	r2, #128	; 0x80
    2c1a:	491e      	ldr	r1, [pc, #120]	; (2c94 <ff_wtoupper+0x88>)
C:\Users\alon\Desktop\github\iot-fan_at_cnblogs\CH577_CH578_CH579\AN\CH579EVT_USB_DISK_TEST\BLE\ch57x_ble_uart_mrs_app_only_test\obj/../app/ffunicode.c:15568
		uc = (WORD)uni;
    2c1c:	b283      	uxth	r3, r0
C:\Users\alon\Desktop\github\iot-fan_at_cnblogs\CH577_CH578_CH579\AN\CH579EVT_USB_DISK_TEST\BLE\ch57x_ble_uart_mrs_app_only_test\obj/../app/ffunicode.c:15569
		p = uc < 0x1000 ? cvt1 : cvt2;
    2c1e:	0152      	lsls	r2, r2, #5
    2c20:	4290      	cmp	r0, r2
    2c22:	d300      	bcc.n	2c26 <ff_wtoupper+0x1a>
    2c24:	491c      	ldr	r1, [pc, #112]	; (2c98 <ff_wtoupper+0x8c>)
C:\Users\alon\Desktop\github\iot-fan_at_cnblogs\CH577_CH578_CH579\AN\CH579EVT_USB_DISK_TEST\BLE\ch57x_ble_uart_mrs_app_only_test\obj/../app/ffunicode.c:15573
		for (;;) {
			bc = *p++;								/* Get the block base */
			if (bc == 0 || uc < bc) break;			/* Not matched? */
			nc = *p++; cmd = nc >> 8; nc &= 0xFF;	/* Get processing command and block size */
    2c26:	26ff      	movs	r6, #255	; 0xff
C:\Users\alon\Desktop\github\iot-fan_at_cnblogs\CH577_CH578_CH579\AN\CH579EVT_USB_DISK_TEST\BLE\ch57x_ble_uart_mrs_app_only_test\obj/../app/ffunicode.c:15571
			bc = *p++;								/* Get the block base */
    2c28:	880a      	ldrh	r2, [r1, #0]
C:\Users\alon\Desktop\github\iot-fan_at_cnblogs\CH577_CH578_CH579\AN\CH579EVT_USB_DISK_TEST\BLE\ch57x_ble_uart_mrs_app_only_test\obj/../app/ffunicode.c:15572
			if (bc == 0 || uc < bc) break;			/* Not matched? */
    2c2a:	0008      	movs	r0, r1
    2c2c:	2a00      	cmp	r2, #0
    2c2e:	d014      	beq.n	2c5a <ff_wtoupper+0x4e>
C:\Users\alon\Desktop\github\iot-fan_at_cnblogs\CH577_CH578_CH579\AN\CH579EVT_USB_DISK_TEST\BLE\ch57x_ble_uart_mrs_app_only_test\obj/../app/ffunicode.c:15572 (discriminator 1)
    2c30:	4293      	cmp	r3, r2
    2c32:	d312      	bcc.n	2c5a <ff_wtoupper+0x4e>
C:\Users\alon\Desktop\github\iot-fan_at_cnblogs\CH577_CH578_CH579\AN\CH579EVT_USB_DISK_TEST\BLE\ch57x_ble_uart_mrs_app_only_test\obj/../app/ffunicode.c:15573
			nc = *p++; cmd = nc >> 8; nc &= 0xFF;	/* Get processing command and block size */
    2c34:	8845      	ldrh	r5, [r0, #2]
    2c36:	3104      	adds	r1, #4
    2c38:	0a28      	lsrs	r0, r5, #8
    2c3a:	4035      	ands	r5, r6
C:\Users\alon\Desktop\github\iot-fan_at_cnblogs\CH577_CH578_CH579\AN\CH579EVT_USB_DISK_TEST\BLE\ch57x_ble_uart_mrs_app_only_test\obj/../app/ffunicode.c:15574
			if (uc < bc + nc) {	/* In the block? */
    2c3c:	18af      	adds	r7, r5, r2
    2c3e:	42bc      	cmp	r4, r7
    2c40:	da23      	bge.n	2c8a <ff_wtoupper+0x7e>
C:\Users\alon\Desktop\github\iot-fan_at_cnblogs\CH577_CH578_CH579\AN\CH579EVT_USB_DISK_TEST\BLE\ch57x_ble_uart_mrs_app_only_test\obj/../app/ffunicode.c:15575
				switch (cmd) {
    2c42:	2808      	cmp	r0, #8
    2c44:	d809      	bhi.n	2c5a <ff_wtoupper+0x4e>
    2c46:	f7fd fa2d 	bl	a4 <__gnu_thumb1_case_uqi>
    2c4a:	0b05      	.short	0x0b05
    2c4c:	17151311 	.word	0x17151311
    2c50:	1b19      	.short	0x1b19
    2c52:	1d          	.byte	0x1d
    2c53:	00          	.byte	0x00
C:\Users\alon\Desktop\github\iot-fan_at_cnblogs\CH577_CH578_CH579\AN\CH579EVT_USB_DISK_TEST\BLE\ch57x_ble_uart_mrs_app_only_test\obj/../app/ffunicode.c:15576
				case 0:	uc = p[uc - bc]; break;		/* Table conversion */
    2c54:	1aa2      	subs	r2, r4, r2
    2c56:	0052      	lsls	r2, r2, #1
    2c58:	5a53      	ldrh	r3, [r2, r1]
C:\Users\alon\Desktop\github\iot-fan_at_cnblogs\CH577_CH578_CH579\AN\CH579EVT_USB_DISK_TEST\BLE\ch57x_ble_uart_mrs_app_only_test\obj/../app/ffunicode.c:15590
				}
				break;
			}
			if (cmd == 0) p += nc;	/* Skip table if needed */
		}
		uni = uc;
    2c5a:	001c      	movs	r4, r3
C:\Users\alon\Desktop\github\iot-fan_at_cnblogs\CH577_CH578_CH579\AN\CH579EVT_USB_DISK_TEST\BLE\ch57x_ble_uart_mrs_app_only_test\obj/../app/ffunicode.c:15594
	}

	return uni;
}
    2c5c:	0020      	movs	r0, r4
    2c5e:	bdf0      	pop	{r4, r5, r6, r7, pc}
C:\Users\alon\Desktop\github\iot-fan_at_cnblogs\CH577_CH578_CH579\AN\CH579EVT_USB_DISK_TEST\BLE\ch57x_ble_uart_mrs_app_only_test\obj/../app/ffunicode.c:15577
				case 1:	uc -= (uc - bc) & 1; break;	/* Case pairs */
    2c60:	2001      	movs	r0, #1
    2c62:	1a9a      	subs	r2, r3, r2
    2c64:	4002      	ands	r2, r0
    2c66:	1a9b      	subs	r3, r3, r2
C:\Users\alon\Desktop\github\iot-fan_at_cnblogs\CH577_CH578_CH579\AN\CH579EVT_USB_DISK_TEST\BLE\ch57x_ble_uart_mrs_app_only_test\obj/../app/ffunicode.c:15584
				case 8:	uc -= 0x1C60; break;		/* Shift -0x1C60 */
    2c68:	b29b      	uxth	r3, r3
    2c6a:	e7f6      	b.n	2c5a <ff_wtoupper+0x4e>
C:\Users\alon\Desktop\github\iot-fan_at_cnblogs\CH577_CH578_CH579\AN\CH579EVT_USB_DISK_TEST\BLE\ch57x_ble_uart_mrs_app_only_test\obj/../app/ffunicode.c:15578
				case 2: uc -= 16; break;			/* Shift -16 */
    2c6c:	3b10      	subs	r3, #16
    2c6e:	e7fb      	b.n	2c68 <ff_wtoupper+0x5c>
C:\Users\alon\Desktop\github\iot-fan_at_cnblogs\CH577_CH578_CH579\AN\CH579EVT_USB_DISK_TEST\BLE\ch57x_ble_uart_mrs_app_only_test\obj/../app/ffunicode.c:15579
				case 3:	uc -= 32; break;			/* Shift -32 */
    2c70:	3b20      	subs	r3, #32
    2c72:	e7f9      	b.n	2c68 <ff_wtoupper+0x5c>
C:\Users\alon\Desktop\github\iot-fan_at_cnblogs\CH577_CH578_CH579\AN\CH579EVT_USB_DISK_TEST\BLE\ch57x_ble_uart_mrs_app_only_test\obj/../app/ffunicode.c:15580
				case 4:	uc -= 48; break;			/* Shift -48 */
    2c74:	3b30      	subs	r3, #48	; 0x30
    2c76:	e7f7      	b.n	2c68 <ff_wtoupper+0x5c>
C:\Users\alon\Desktop\github\iot-fan_at_cnblogs\CH577_CH578_CH579\AN\CH579EVT_USB_DISK_TEST\BLE\ch57x_ble_uart_mrs_app_only_test\obj/../app/ffunicode.c:15581
				case 5:	uc -= 26; break;			/* Shift -26 */
    2c78:	3b1a      	subs	r3, #26
    2c7a:	e7f5      	b.n	2c68 <ff_wtoupper+0x5c>
C:\Users\alon\Desktop\github\iot-fan_at_cnblogs\CH577_CH578_CH579\AN\CH579EVT_USB_DISK_TEST\BLE\ch57x_ble_uart_mrs_app_only_test\obj/../app/ffunicode.c:15582
				case 6:	uc += 8; break;				/* Shift +8 */
    2c7c:	3308      	adds	r3, #8
    2c7e:	e7f3      	b.n	2c68 <ff_wtoupper+0x5c>
C:\Users\alon\Desktop\github\iot-fan_at_cnblogs\CH577_CH578_CH579\AN\CH579EVT_USB_DISK_TEST\BLE\ch57x_ble_uart_mrs_app_only_test\obj/../app/ffunicode.c:15583
				case 7: uc -= 80; break;			/* Shift -80 */
    2c80:	3b50      	subs	r3, #80	; 0x50
    2c82:	e7f1      	b.n	2c68 <ff_wtoupper+0x5c>
C:\Users\alon\Desktop\github\iot-fan_at_cnblogs\CH577_CH578_CH579\AN\CH579EVT_USB_DISK_TEST\BLE\ch57x_ble_uart_mrs_app_only_test\obj/../app/ffunicode.c:15584
				case 8:	uc -= 0x1C60; break;		/* Shift -0x1C60 */
    2c84:	4a05      	ldr	r2, [pc, #20]	; (2c9c <ff_wtoupper+0x90>)
    2c86:	189b      	adds	r3, r3, r2
    2c88:	e7ee      	b.n	2c68 <ff_wtoupper+0x5c>
C:\Users\alon\Desktop\github\iot-fan_at_cnblogs\CH577_CH578_CH579\AN\CH579EVT_USB_DISK_TEST\BLE\ch57x_ble_uart_mrs_app_only_test\obj/../app/ffunicode.c:15588
			if (cmd == 0) p += nc;	/* Skip table if needed */
    2c8a:	2800      	cmp	r0, #0
    2c8c:	d1cc      	bne.n	2c28 <ff_wtoupper+0x1c>
C:\Users\alon\Desktop\github\iot-fan_at_cnblogs\CH577_CH578_CH579\AN\CH579EVT_USB_DISK_TEST\BLE\ch57x_ble_uart_mrs_app_only_test\obj/../app/ffunicode.c:15588 (discriminator 1)
    2c8e:	006d      	lsls	r5, r5, #1
    2c90:	1949      	adds	r1, r1, r5
    2c92:	e7c9      	b.n	2c28 <ff_wtoupper+0x1c>
    2c94:	00004cb4 	.word	0x00004cb4
    2c98:	00004ea6 	.word	0x00004ea6
    2c9c:	ffffe3a0 	.word	0xffffe3a0

00002ca0 <DebugInit>:
DebugInit():
C:\Users\alon\Desktop\github\iot-fan_at_cnblogs\CH577_CH578_CH579\AN\CH579EVT_USB_DISK_TEST\BLE\ch57x_ble_uart_mrs_app_only_test\obj/../app/peripheral_main.c:24
#if DEBUG == Debug_UART1
    GPIOA_SetBits(bTXD1);
    GPIOA_ModeCfg(bTXD1, GPIO_ModeOut_PP_5mA);
    UART1_DefInit( );
#elif DEBUG == Debug_UART0
    GPIOB_SetBits(bTXD0);
    2ca0:	2080      	movs	r0, #128	; 0x80
    2ca2:	4a05      	ldr	r2, [pc, #20]	; (2cb8 <DebugInit+0x18>)
C:\Users\alon\Desktop\github\iot-fan_at_cnblogs\CH577_CH578_CH579\AN\CH579EVT_USB_DISK_TEST\BLE\ch57x_ble_uart_mrs_app_only_test\obj/../app/peripheral_main.c:18
{
    2ca4:	b510      	push	{r4, lr}
C:\Users\alon\Desktop\github\iot-fan_at_cnblogs\CH577_CH578_CH579\AN\CH579EVT_USB_DISK_TEST\BLE\ch57x_ble_uart_mrs_app_only_test\obj/../app/peripheral_main.c:24
    GPIOB_SetBits(bTXD0);
    2ca6:	6813      	ldr	r3, [r2, #0]
C:\Users\alon\Desktop\github\iot-fan_at_cnblogs\CH577_CH578_CH579\AN\CH579EVT_USB_DISK_TEST\BLE\ch57x_ble_uart_mrs_app_only_test\obj/../app/peripheral_main.c:25
    GPIOB_ModeCfg(bTXD0, GPIO_ModeOut_PP_5mA);
    2ca8:	2103      	movs	r1, #3
C:\Users\alon\Desktop\github\iot-fan_at_cnblogs\CH577_CH578_CH579\AN\CH579EVT_USB_DISK_TEST\BLE\ch57x_ble_uart_mrs_app_only_test\obj/../app/peripheral_main.c:24
    GPIOB_SetBits(bTXD0);
    2caa:	4303      	orrs	r3, r0
    2cac:	6013      	str	r3, [r2, #0]
C:\Users\alon\Desktop\github\iot-fan_at_cnblogs\CH577_CH578_CH579\AN\CH579EVT_USB_DISK_TEST\BLE\ch57x_ble_uart_mrs_app_only_test\obj/../app/peripheral_main.c:25
    GPIOB_ModeCfg(bTXD0, GPIO_ModeOut_PP_5mA);
    2cae:	f000 fc2d 	bl	350c <GPIOB_ModeCfg>
C:\Users\alon\Desktop\github\iot-fan_at_cnblogs\CH577_CH578_CH579\AN\CH579EVT_USB_DISK_TEST\BLE\ch57x_ble_uart_mrs_app_only_test\obj/../app/peripheral_main.c:26
    UART0_DefInit( );
    2cb2:	f000 fdf9 	bl	38a8 <UART0_DefInit>
C:\Users\alon\Desktop\github\iot-fan_at_cnblogs\CH577_CH578_CH579\AN\CH579EVT_USB_DISK_TEST\BLE\ch57x_ble_uart_mrs_app_only_test\obj/../app/peripheral_main.c:28
#endif
}
    2cb6:	bd10      	pop	{r4, pc}
    2cb8:	400010c8 	.word	0x400010c8

00002cbc <main>:
main():
C:\Users\alon\Desktop\github\iot-fan_at_cnblogs\CH577_CH578_CH579\AN\CH579EVT_USB_DISK_TEST\BLE\ch57x_ble_uart_mrs_app_only_test\obj/../app/peripheral_main.c:42
BYTE ReadBuffer[1024]={0};        /* ËØªÁºìÂÜ≤Âå∫ */
BYTE WriteBuffer[] =              /* ÂÜôÁºìÂÜ≤Âå∫*/
"fatfs test !!!!!!!!!!!!\r\n"; 

int main()
{
    2cbc:	b5f7      	push	{r0, r1, r2, r4, r5, r6, r7, lr}
C:\Users\alon\Desktop\github\iot-fan_at_cnblogs\CH577_CH578_CH579\AN\CH579EVT_USB_DISK_TEST\BLE\ch57x_ble_uart_mrs_app_only_test\obj/../app/peripheral_main.c:43
    SetSysClock( CLK_SOURCE_HSE_32MHz );
    2cbe:	2002      	movs	r0, #2
    2cc0:	f000 fb20 	bl	3304 <SetSysClock>
C:\Users\alon\Desktop\github\iot-fan_at_cnblogs\CH577_CH578_CH579\AN\CH579EVT_USB_DISK_TEST\BLE\ch57x_ble_uart_mrs_app_only_test\obj/../app/peripheral_main.c:44
    PWR_UnitModCfg( ENABLE, UNIT_SYS_PLL );
    2cc4:	2110      	movs	r1, #16
    2cc6:	2001      	movs	r0, #1
    2cc8:	f000 fc96 	bl	35f8 <PWR_UnitModCfg>
C:\Users\alon\Desktop\github\iot-fan_at_cnblogs\CH577_CH578_CH579\AN\CH579EVT_USB_DISK_TEST\BLE\ch57x_ble_uart_mrs_app_only_test\obj/../app/peripheral_main.c:45
    DelayMs(500);
    2ccc:	20fa      	movs	r0, #250	; 0xfa
    2cce:	0040      	lsls	r0, r0, #1
    2cd0:	f000 fdb4 	bl	383c <mDelaymS>
C:\Users\alon\Desktop\github\iot-fan_at_cnblogs\CH577_CH578_CH579\AN\CH579EVT_USB_DISK_TEST\BLE\ch57x_ble_uart_mrs_app_only_test\obj/../app/peripheral_main.c:47

    DebugInit();
    2cd4:	f7ff ffe4 	bl	2ca0 <DebugInit>
C:\Users\alon\Desktop\github\iot-fan_at_cnblogs\CH577_CH578_CH579\AN\CH579EVT_USB_DISK_TEST\BLE\ch57x_ble_uart_mrs_app_only_test\obj/../app/peripheral_main.c:48
    PRINT( "Start @ChipID=%02X\n", R8_CHIP_ID );
    2cd8:	4b4e      	ldr	r3, [pc, #312]	; (2e14 <main+0x158>)
    2cda:	484f      	ldr	r0, [pc, #316]	; (2e18 <main+0x15c>)
    2cdc:	7819      	ldrb	r1, [r3, #0]
    2cde:	b2c9      	uxtb	r1, r1
    2ce0:	f000 ff02 	bl	3ae8 <iprintf>
C:\Users\alon\Desktop\github\iot-fan_at_cnblogs\CH577_CH578_CH579\AN\CH579EVT_USB_DISK_TEST\BLE\ch57x_ble_uart_mrs_app_only_test\obj/../app/peripheral_main.c:52

    UINT16    i;
    
    res_flash = f_mount(&fs,"0:",1);
    2ce4:	4d4d      	ldr	r5, [pc, #308]	; (2e1c <main+0x160>)
    2ce6:	4e4e      	ldr	r6, [pc, #312]	; (2e20 <main+0x164>)
    2ce8:	0029      	movs	r1, r5
    2cea:	2201      	movs	r2, #1
    2cec:	0030      	movs	r0, r6
    2cee:	f7ff f98b 	bl	2008 <f_mount>
    2cf2:	4c4c      	ldr	r4, [pc, #304]	; (2e24 <main+0x168>)
    2cf4:	0001      	movs	r1, r0
    2cf6:	7020      	strb	r0, [r4, #0]
C:\Users\alon\Desktop\github\iot-fan_at_cnblogs\CH577_CH578_CH579\AN\CH579EVT_USB_DISK_TEST\BLE\ch57x_ble_uart_mrs_app_only_test\obj/../app/peripheral_main.c:56

/*----------------------- Ê†ºÂºèÂåñÊµãËØï -----------------*/  
	/* Â¶ÇÊûúÊ≤°ÊúâÊñá‰ª∂Á≥ªÁªüÂ∞±Ê†ºÂºèÂåñÂàõÂª∫ÂàõÂª∫Êñá‰ª∂Á≥ªÁªü */
	if(res_flash == FR_NO_FILESYSTEM)
    2cf8:	280d      	cmp	r0, #13
    2cfa:	d175      	bne.n	2de8 <main+0x12c>
C:\Users\alon\Desktop\github\iot-fan_at_cnblogs\CH577_CH578_CH579\AN\CH579EVT_USB_DISK_TEST\BLE\ch57x_ble_uart_mrs_app_only_test\obj/../app/peripheral_main.c:58
	{
		PRINT("„ÄãFLASHËøòÊ≤°ÊúâÊñá‰ª∂Á≥ªÁªüÔºåÂç≥Â∞ÜËøõË°åÊ†ºÂºèÂåñ...\r\n");
    2cfc:	484a      	ldr	r0, [pc, #296]	; (2e28 <main+0x16c>)
    2cfe:	f000 ff7f 	bl	3c00 <puts>
C:\Users\alon\Desktop\github\iot-fan_at_cnblogs\CH577_CH578_CH579\AN\CH579EVT_USB_DISK_TEST\BLE\ch57x_ble_uart_mrs_app_only_test\obj/../app/peripheral_main.c:60
    /* Ê†ºÂºèÂåñ */
		res_flash=f_mkfs("0:",0,0, NULL, 0);		
    2d02:	2100      	movs	r1, #0
    2d04:	0028      	movs	r0, r5
    2d06:	000b      	movs	r3, r1
    2d08:	000a      	movs	r2, r1
    2d0a:	9100      	str	r1, [sp, #0]
    2d0c:	f7ff fc32 	bl	2574 <f_mkfs>
    2d10:	0001      	movs	r1, r0
    2d12:	7020      	strb	r0, [r4, #0]
C:\Users\alon\Desktop\github\iot-fan_at_cnblogs\CH577_CH578_CH579\AN\CH579EVT_USB_DISK_TEST\BLE\ch57x_ble_uart_mrs_app_only_test\obj/../app/peripheral_main.c:62

        PRINT("f_mkfs ret: %d\n", res_flash);					
    2d14:	4845      	ldr	r0, [pc, #276]	; (2e2c <main+0x170>)
    2d16:	f000 fee7 	bl	3ae8 <iprintf>
C:\Users\alon\Desktop\github\iot-fan_at_cnblogs\CH577_CH578_CH579\AN\CH579EVT_USB_DISK_TEST\BLE\ch57x_ble_uart_mrs_app_only_test\obj/../app/peripheral_main.c:64

		if(res_flash == FR_OK)
    2d1a:	7827      	ldrb	r7, [r4, #0]
    2d1c:	2f00      	cmp	r7, #0
    2d1e:	d15f      	bne.n	2de0 <main+0x124>
C:\Users\alon\Desktop\github\iot-fan_at_cnblogs\CH577_CH578_CH579\AN\CH579EVT_USB_DISK_TEST\BLE\ch57x_ble_uart_mrs_app_only_test\obj/../app/peripheral_main.c:66
		{
			PRINT("„ÄãFLASHÂ∑≤ÊàêÂäüÊ†ºÂºèÂåñÊñá‰ª∂Á≥ªÁªü„ÄÇ\r\n");
    2d20:	4843      	ldr	r0, [pc, #268]	; (2e30 <main+0x174>)
    2d22:	f000 ff6d 	bl	3c00 <puts>
C:\Users\alon\Desktop\github\iot-fan_at_cnblogs\CH577_CH578_CH579\AN\CH579EVT_USB_DISK_TEST\BLE\ch57x_ble_uart_mrs_app_only_test\obj/../app/peripheral_main.c:68
      /* Ê†ºÂºèÂåñÂêéÔºåÂÖàÂèñÊ∂àÊåÇËΩΩ */
			res_flash = f_mount(NULL,"0:",1);			
    2d26:	2201      	movs	r2, #1
    2d28:	0029      	movs	r1, r5
    2d2a:	0038      	movs	r0, r7
    2d2c:	f7ff f96c 	bl	2008 <f_mount>
C:\Users\alon\Desktop\github\iot-fan_at_cnblogs\CH577_CH578_CH579\AN\CH579EVT_USB_DISK_TEST\BLE\ch57x_ble_uart_mrs_app_only_test\obj/../app/peripheral_main.c:70
      /* ÈáçÊñ∞ÊåÇËΩΩ	*/			
			res_flash = f_mount(&fs,"0:",1);
    2d30:	2201      	movs	r2, #1
C:\Users\alon\Desktop\github\iot-fan_at_cnblogs\CH577_CH578_CH579\AN\CH579EVT_USB_DISK_TEST\BLE\ch57x_ble_uart_mrs_app_only_test\obj/../app/peripheral_main.c:68
			res_flash = f_mount(NULL,"0:",1);			
    2d32:	7020      	strb	r0, [r4, #0]
C:\Users\alon\Desktop\github\iot-fan_at_cnblogs\CH577_CH578_CH579\AN\CH579EVT_USB_DISK_TEST\BLE\ch57x_ble_uart_mrs_app_only_test\obj/../app/peripheral_main.c:70
			res_flash = f_mount(&fs,"0:",1);
    2d34:	0029      	movs	r1, r5
    2d36:	0030      	movs	r0, r6
    2d38:	f7ff f966 	bl	2008 <f_mount>
    2d3c:	7020      	strb	r0, [r4, #0]
C:\Users\alon\Desktop\github\iot-fan_at_cnblogs\CH577_CH578_CH579\AN\CH579EVT_USB_DISK_TEST\BLE\ch57x_ble_uart_mrs_app_only_test\obj/../app/peripheral_main.c:91
    PRINT("„ÄãÊñá‰ª∂Á≥ªÁªüÊåÇËΩΩÊàêÂäüÔºåÂèØ‰ª•ËøõË°åËØªÂÜôÊµãËØï\r\n");
  }
  
/*----------------------- Êñá‰ª∂Á≥ªÁªüÊµãËØïÔºöÂÜôÊµãËØï -------------------*/
	/* ÊâìÂºÄÊñá‰ª∂ÔºåÊØèÊ¨°ÈÉΩ‰ª•Êñ∞Âª∫ÁöÑÂΩ¢ÂºèÊâìÂºÄÔºåÂ±ûÊÄß‰∏∫ÂèØÂÜô */
	PRINT("\r\n****** Âç≥Â∞ÜËøõË°åÊñá‰ª∂ÂÜôÂÖ•ÊµãËØï... ******\r\n");	
    2d3e:	483d      	ldr	r0, [pc, #244]	; (2e34 <main+0x178>)
    2d40:	f000 ff5e 	bl	3c00 <puts>
C:\Users\alon\Desktop\github\iot-fan_at_cnblogs\CH577_CH578_CH579\AN\CH579EVT_USB_DISK_TEST\BLE\ch57x_ble_uart_mrs_app_only_test\obj/../app/peripheral_main.c:92
	res_flash = f_open(&fnew, "0:test.txt",FA_CREATE_ALWAYS | FA_WRITE );
    2d44:	4f3c      	ldr	r7, [pc, #240]	; (2e38 <main+0x17c>)
    2d46:	220a      	movs	r2, #10
    2d48:	0038      	movs	r0, r7
    2d4a:	493c      	ldr	r1, [pc, #240]	; (2e3c <main+0x180>)
    2d4c:	f7ff f982 	bl	2054 <f_open>
    2d50:	7020      	strb	r0, [r4, #0]
C:\Users\alon\Desktop\github\iot-fan_at_cnblogs\CH577_CH578_CH579\AN\CH579EVT_USB_DISK_TEST\BLE\ch57x_ble_uart_mrs_app_only_test\obj/../app/peripheral_main.c:93
	if ( res_flash == FR_OK )
    2d52:	2800      	cmp	r0, #0
    2d54:	d155      	bne.n	2e02 <main+0x146>
C:\Users\alon\Desktop\github\iot-fan_at_cnblogs\CH577_CH578_CH579\AN\CH579EVT_USB_DISK_TEST\BLE\ch57x_ble_uart_mrs_app_only_test\obj/../app/peripheral_main.c:95
	{
		PRINT("„ÄãÊâìÂºÄ/ÂàõÂª∫FatFsËØªÂÜôÊµãËØïÊñá‰ª∂.txtÊñá‰ª∂ÊàêÂäüÔºåÂêëÊñá‰ª∂ÂÜôÂÖ•Êï∞ÊçÆ„ÄÇ\r\n");
    2d56:	483a      	ldr	r0, [pc, #232]	; (2e40 <main+0x184>)
    2d58:	f000 ff52 	bl	3c00 <puts>
C:\Users\alon\Desktop\github\iot-fan_at_cnblogs\CH577_CH578_CH579\AN\CH579EVT_USB_DISK_TEST\BLE\ch57x_ble_uart_mrs_app_only_test\obj/../app/peripheral_main.c:97
    /* Â∞ÜÊåáÂÆöÂ≠òÂÇ®Âå∫ÂÜÖÂÆπÂÜôÂÖ•Âà∞Êñá‰ª∂ÂÜÖ */
		res_flash=f_write(&fnew,WriteBuffer,sizeof(WriteBuffer),&fnum);
    2d5c:	4e39      	ldr	r6, [pc, #228]	; (2e44 <main+0x188>)
    2d5e:	493a      	ldr	r1, [pc, #232]	; (2e48 <main+0x18c>)
    2d60:	0033      	movs	r3, r6
    2d62:	221a      	movs	r2, #26
    2d64:	0038      	movs	r0, r7
    2d66:	f7ff faf9 	bl	235c <f_write>
    2d6a:	1e01      	subs	r1, r0, #0
    2d6c:	7020      	strb	r0, [r4, #0]
C:\Users\alon\Desktop\github\iot-fan_at_cnblogs\CH577_CH578_CH579\AN\CH579EVT_USB_DISK_TEST\BLE\ch57x_ble_uart_mrs_app_only_test\obj/../app/peripheral_main.c:105
      PRINT("„ÄãÊñá‰ª∂ÂÜôÂÖ•ÊàêÂäüÔºåÂÜôÂÖ•Â≠óËäÇÊï∞ÊçÆÔºö%d\n",fnum);
      PRINT("„ÄãÂêëÊñá‰ª∂ÂÜôÂÖ•ÁöÑÊï∞ÊçÆ‰∏∫Ôºö\r\n%s\r\n",WriteBuffer);
    }
    else
    {
      PRINT("ÔºÅÔºÅÊñá‰ª∂ÂÜôÂÖ•Â§±Ë¥•Ôºö(%d)\n",res_flash);
    2d6e:	4837      	ldr	r0, [pc, #220]	; (2e4c <main+0x190>)
C:\Users\alon\Desktop\github\iot-fan_at_cnblogs\CH577_CH578_CH579\AN\CH579EVT_USB_DISK_TEST\BLE\ch57x_ble_uart_mrs_app_only_test\obj/../app/peripheral_main.c:98
    if(res_flash==FR_OK)
    2d70:	d105      	bne.n	2d7e <main+0xc2>
C:\Users\alon\Desktop\github\iot-fan_at_cnblogs\CH577_CH578_CH579\AN\CH579EVT_USB_DISK_TEST\BLE\ch57x_ble_uart_mrs_app_only_test\obj/../app/peripheral_main.c:100
      PRINT("„ÄãÊñá‰ª∂ÂÜôÂÖ•ÊàêÂäüÔºåÂÜôÂÖ•Â≠óËäÇÊï∞ÊçÆÔºö%d\n",fnum);
    2d72:	6831      	ldr	r1, [r6, #0]
    2d74:	4836      	ldr	r0, [pc, #216]	; (2e50 <main+0x194>)
    2d76:	f000 feb7 	bl	3ae8 <iprintf>
C:\Users\alon\Desktop\github\iot-fan_at_cnblogs\CH577_CH578_CH579\AN\CH579EVT_USB_DISK_TEST\BLE\ch57x_ble_uart_mrs_app_only_test\obj/../app/peripheral_main.c:101
      PRINT("„ÄãÂêëÊñá‰ª∂ÂÜôÂÖ•ÁöÑÊï∞ÊçÆ‰∏∫Ôºö\r\n%s\r\n",WriteBuffer);
    2d7a:	4933      	ldr	r1, [pc, #204]	; (2e48 <main+0x18c>)
    2d7c:	4835      	ldr	r0, [pc, #212]	; (2e54 <main+0x198>)
C:\Users\alon\Desktop\github\iot-fan_at_cnblogs\CH577_CH578_CH579\AN\CH579EVT_USB_DISK_TEST\BLE\ch57x_ble_uart_mrs_app_only_test\obj/../app/peripheral_main.c:105
      PRINT("ÔºÅÔºÅÊñá‰ª∂ÂÜôÂÖ•Â§±Ë¥•Ôºö(%d)\n",res_flash);
    2d7e:	f000 feb3 	bl	3ae8 <iprintf>
C:\Users\alon\Desktop\github\iot-fan_at_cnblogs\CH577_CH578_CH579\AN\CH579EVT_USB_DISK_TEST\BLE\ch57x_ble_uart_mrs_app_only_test\obj/../app/peripheral_main.c:108
    }    
		/* ‰∏çÂÜçËØªÂÜôÔºåÂÖ≥Èó≠Êñá‰ª∂ */
    f_close(&fnew);
    2d82:	482d      	ldr	r0, [pc, #180]	; (2e38 <main+0x17c>)
    2d84:	f7ff fbe7 	bl	2556 <f_close>
C:\Users\alon\Desktop\github\iot-fan_at_cnblogs\CH577_CH578_CH579\AN\CH579EVT_USB_DISK_TEST\BLE\ch57x_ble_uart_mrs_app_only_test\obj/../app/peripheral_main.c:116
	{	
		PRINT("ÔºÅÔºÅÊâìÂºÄ/ÂàõÂª∫Êñá‰ª∂Â§±Ë¥•„ÄÇ\r\n");
	}
	
/*------------------- Êñá‰ª∂Á≥ªÁªüÊµãËØïÔºöËØªÊµãËØï --------------------------*/
	PRINT("****** Âç≥Â∞ÜËøõË°åÊñá‰ª∂ËØªÂèñÊµãËØï... ******\r\n");
    2d88:	4833      	ldr	r0, [pc, #204]	; (2e58 <main+0x19c>)
    2d8a:	f000 ff39 	bl	3c00 <puts>
C:\Users\alon\Desktop\github\iot-fan_at_cnblogs\CH577_CH578_CH579\AN\CH579EVT_USB_DISK_TEST\BLE\ch57x_ble_uart_mrs_app_only_test\obj/../app/peripheral_main.c:117
	res_flash = f_open(&fnew, "0:test.txt",FA_OPEN_EXISTING | FA_READ); 	 
    2d8e:	4e2a      	ldr	r6, [pc, #168]	; (2e38 <main+0x17c>)
    2d90:	2201      	movs	r2, #1
    2d92:	0030      	movs	r0, r6
    2d94:	4929      	ldr	r1, [pc, #164]	; (2e3c <main+0x180>)
    2d96:	f7ff f95d 	bl	2054 <f_open>
    2d9a:	7020      	strb	r0, [r4, #0]
C:\Users\alon\Desktop\github\iot-fan_at_cnblogs\CH577_CH578_CH579\AN\CH579EVT_USB_DISK_TEST\BLE\ch57x_ble_uart_mrs_app_only_test\obj/../app/peripheral_main.c:118
	if(res_flash == FR_OK)
    2d9c:	2800      	cmp	r0, #0
    2d9e:	d134      	bne.n	2e0a <main+0x14e>
C:\Users\alon\Desktop\github\iot-fan_at_cnblogs\CH577_CH578_CH579\AN\CH579EVT_USB_DISK_TEST\BLE\ch57x_ble_uart_mrs_app_only_test\obj/../app/peripheral_main.c:120
	{
		PRINT("„ÄãÊâìÂºÄÊñá‰ª∂ÊàêÂäü„ÄÇ\r\n");
    2da0:	482e      	ldr	r0, [pc, #184]	; (2e5c <main+0x1a0>)
    2da2:	f000 ff2d 	bl	3c00 <puts>
C:\Users\alon\Desktop\github\iot-fan_at_cnblogs\CH577_CH578_CH579\AN\CH579EVT_USB_DISK_TEST\BLE\ch57x_ble_uart_mrs_app_only_test\obj/../app/peripheral_main.c:121
		res_flash = f_read(&fnew, ReadBuffer, sizeof(ReadBuffer), &fnum); 
    2da6:	2280      	movs	r2, #128	; 0x80
    2da8:	4f26      	ldr	r7, [pc, #152]	; (2e44 <main+0x188>)
    2daa:	492d      	ldr	r1, [pc, #180]	; (2e60 <main+0x1a4>)
    2dac:	003b      	movs	r3, r7
    2dae:	0030      	movs	r0, r6
    2db0:	00d2      	lsls	r2, r2, #3
    2db2:	f7ff fa30 	bl	2216 <f_read>
    2db6:	1e01      	subs	r1, r0, #0
    2db8:	7020      	strb	r0, [r4, #0]
C:\Users\alon\Desktop\github\iot-fan_at_cnblogs\CH577_CH578_CH579\AN\CH579EVT_USB_DISK_TEST\BLE\ch57x_ble_uart_mrs_app_only_test\obj/../app/peripheral_main.c:129
      PRINT("„ÄãÊñá‰ª∂ËØªÂèñÊàêÂäü,ËØªÂà∞Â≠óËäÇÊï∞ÊçÆÔºö%d\r\n",fnum);
      PRINT("„ÄãËØªÂèñÂæóÁöÑÊñá‰ª∂Êï∞ÊçÆ‰∏∫Ôºö\r\n%s \r\n", ReadBuffer);	
    }
    else
    {
      PRINT("ÔºÅÔºÅÊñá‰ª∂ËØªÂèñÂ§±Ë¥•Ôºö(%d)\n",res_flash);
    2dba:	482a      	ldr	r0, [pc, #168]	; (2e64 <main+0x1a8>)
C:\Users\alon\Desktop\github\iot-fan_at_cnblogs\CH577_CH578_CH579\AN\CH579EVT_USB_DISK_TEST\BLE\ch57x_ble_uart_mrs_app_only_test\obj/../app/peripheral_main.c:122
    if(res_flash==FR_OK)
    2dbc:	d105      	bne.n	2dca <main+0x10e>
C:\Users\alon\Desktop\github\iot-fan_at_cnblogs\CH577_CH578_CH579\AN\CH579EVT_USB_DISK_TEST\BLE\ch57x_ble_uart_mrs_app_only_test\obj/../app/peripheral_main.c:124
      PRINT("„ÄãÊñá‰ª∂ËØªÂèñÊàêÂäü,ËØªÂà∞Â≠óËäÇÊï∞ÊçÆÔºö%d\r\n",fnum);
    2dbe:	6839      	ldr	r1, [r7, #0]
    2dc0:	4829      	ldr	r0, [pc, #164]	; (2e68 <main+0x1ac>)
    2dc2:	f000 fe91 	bl	3ae8 <iprintf>
C:\Users\alon\Desktop\github\iot-fan_at_cnblogs\CH577_CH578_CH579\AN\CH579EVT_USB_DISK_TEST\BLE\ch57x_ble_uart_mrs_app_only_test\obj/../app/peripheral_main.c:125
      PRINT("„ÄãËØªÂèñÂæóÁöÑÊñá‰ª∂Êï∞ÊçÆ‰∏∫Ôºö\r\n%s \r\n", ReadBuffer);	
    2dc6:	4926      	ldr	r1, [pc, #152]	; (2e60 <main+0x1a4>)
    2dc8:	4828      	ldr	r0, [pc, #160]	; (2e6c <main+0x1b0>)
C:\Users\alon\Desktop\github\iot-fan_at_cnblogs\CH577_CH578_CH579\AN\CH579EVT_USB_DISK_TEST\BLE\ch57x_ble_uart_mrs_app_only_test\obj/../app/peripheral_main.c:129
      PRINT("ÔºÅÔºÅÊñá‰ª∂ËØªÂèñÂ§±Ë¥•Ôºö(%d)\n",res_flash);
    2dca:	f000 fe8d 	bl	3ae8 <iprintf>
C:\Users\alon\Desktop\github\iot-fan_at_cnblogs\CH577_CH578_CH579\AN\CH579EVT_USB_DISK_TEST\BLE\ch57x_ble_uart_mrs_app_only_test\obj/../app/peripheral_main.c:137
	else
	{
		PRINT("ÔºÅÔºÅÊâìÂºÄÊñá‰ª∂Â§±Ë¥•„ÄÇ\r\n");
	}
	/* ‰∏çÂÜçËØªÂÜôÔºåÂÖ≥Èó≠Êñá‰ª∂ */
	f_close(&fnew);	
    2dce:	0030      	movs	r0, r6
    2dd0:	f7ff fbc1 	bl	2556 <f_close>
C:\Users\alon\Desktop\github\iot-fan_at_cnblogs\CH577_CH578_CH579\AN\CH579EVT_USB_DISK_TEST\BLE\ch57x_ble_uart_mrs_app_only_test\obj/../app/peripheral_main.c:140
  
	/* ‰∏çÂÜç‰ΩøÁî®Êñá‰ª∂Á≥ªÁªüÔºåÂèñÊ∂àÊåÇËΩΩÊñá‰ª∂Á≥ªÁªü */
	f_mount(NULL,"0:",1);
    2dd4:	2201      	movs	r2, #1
    2dd6:	0029      	movs	r1, r5
    2dd8:	2000      	movs	r0, #0
    2dda:	f7ff f915 	bl	2008 <f_mount>
C:\Users\alon\Desktop\github\iot-fan_at_cnblogs\CH577_CH578_CH579\AN\CH579EVT_USB_DISK_TEST\BLE\ch57x_ble_uart_mrs_app_only_test\obj/../app/peripheral_main.c:143 (discriminator 3)
  
  /* Êìç‰ΩúÂÆåÊàêÔºåÂÅúÊú∫ */
	while(1)
    2dde:	e7fe      	b.n	2dde <main+0x122>
C:\Users\alon\Desktop\github\iot-fan_at_cnblogs\CH577_CH578_CH579\AN\CH579EVT_USB_DISK_TEST\BLE\ch57x_ble_uart_mrs_app_only_test\obj/../app/peripheral_main.c:74
			PRINT("„Ää„ÄäÊ†ºÂºèÂåñÂ§±Ë¥•„ÄÇ„Äã„Äã\r\n");
    2de0:	4823      	ldr	r0, [pc, #140]	; (2e70 <main+0x1b4>)
    2de2:	f000 ff0d 	bl	3c00 <puts>
C:\Users\alon\Desktop\github\iot-fan_at_cnblogs\CH577_CH578_CH579\AN\CH579EVT_USB_DISK_TEST\BLE\ch57x_ble_uart_mrs_app_only_test\obj/../app/peripheral_main.c:75 (discriminator 1)
			while(1);
    2de6:	e7fe      	b.n	2de6 <main+0x12a>
C:\Users\alon\Desktop\github\iot-fan_at_cnblogs\CH577_CH578_CH579\AN\CH579EVT_USB_DISK_TEST\BLE\ch57x_ble_uart_mrs_app_only_test\obj/../app/peripheral_main.c:78
  else if(res_flash!=FR_OK)
    2de8:	2800      	cmp	r0, #0
    2dea:	d006      	beq.n	2dfa <main+0x13e>
C:\Users\alon\Desktop\github\iot-fan_at_cnblogs\CH577_CH578_CH579\AN\CH579EVT_USB_DISK_TEST\BLE\ch57x_ble_uart_mrs_app_only_test\obj/../app/peripheral_main.c:80
    PRINT("ÔºÅÔºÅÂ§ñÈÉ®FlashÊåÇËΩΩÊñá‰ª∂Á≥ªÁªüÂ§±Ë¥•„ÄÇ(%d)\r\n",res_flash);
    2dec:	4821      	ldr	r0, [pc, #132]	; (2e74 <main+0x1b8>)
    2dee:	f000 fe7b 	bl	3ae8 <iprintf>
C:\Users\alon\Desktop\github\iot-fan_at_cnblogs\CH577_CH578_CH579\AN\CH579EVT_USB_DISK_TEST\BLE\ch57x_ble_uart_mrs_app_only_test\obj/../app/peripheral_main.c:81
    PRINT("ÔºÅÔºÅÂèØËÉΩÂéüÂõ†ÔºöSPI FlashÂàùÂßãÂåñ‰∏çÊàêÂäü„ÄÇ\r\n");
    2df2:	4821      	ldr	r0, [pc, #132]	; (2e78 <main+0x1bc>)
    2df4:	f000 ff04 	bl	3c00 <puts>
C:\Users\alon\Desktop\github\iot-fan_at_cnblogs\CH577_CH578_CH579\AN\CH579EVT_USB_DISK_TEST\BLE\ch57x_ble_uart_mrs_app_only_test\obj/../app/peripheral_main.c:82 (discriminator 2)
		while(1);
    2df8:	e7fe      	b.n	2df8 <main+0x13c>
C:\Users\alon\Desktop\github\iot-fan_at_cnblogs\CH577_CH578_CH579\AN\CH579EVT_USB_DISK_TEST\BLE\ch57x_ble_uart_mrs_app_only_test\obj/../app/peripheral_main.c:86
    PRINT("„ÄãÊñá‰ª∂Á≥ªÁªüÊåÇËΩΩÊàêÂäüÔºåÂèØ‰ª•ËøõË°åËØªÂÜôÊµãËØï\r\n");
    2dfa:	4820      	ldr	r0, [pc, #128]	; (2e7c <main+0x1c0>)
    2dfc:	f000 ff00 	bl	3c00 <puts>
    2e00:	e79d      	b.n	2d3e <main+0x82>
C:\Users\alon\Desktop\github\iot-fan_at_cnblogs\CH577_CH578_CH579\AN\CH579EVT_USB_DISK_TEST\BLE\ch57x_ble_uart_mrs_app_only_test\obj/../app/peripheral_main.c:112
		PRINT("ÔºÅÔºÅÊâìÂºÄ/ÂàõÂª∫Êñá‰ª∂Â§±Ë¥•„ÄÇ\r\n");
    2e02:	481f      	ldr	r0, [pc, #124]	; (2e80 <main+0x1c4>)
    2e04:	f000 fefc 	bl	3c00 <puts>
    2e08:	e7be      	b.n	2d88 <main+0xcc>
C:\Users\alon\Desktop\github\iot-fan_at_cnblogs\CH577_CH578_CH579\AN\CH579EVT_USB_DISK_TEST\BLE\ch57x_ble_uart_mrs_app_only_test\obj/../app/peripheral_main.c:134
		PRINT("ÔºÅÔºÅÊâìÂºÄÊñá‰ª∂Â§±Ë¥•„ÄÇ\r\n");
    2e0a:	481e      	ldr	r0, [pc, #120]	; (2e84 <main+0x1c8>)
    2e0c:	f000 fef8 	bl	3c00 <puts>
    2e10:	e7dd      	b.n	2dce <main+0x112>
    2e12:	46c0      	nop			; (mov r8, r8)
    2e14:	40001041 	.word	0x40001041
    2e18:	00005062 	.word	0x00005062
    2e1c:	00005076 	.word	0x00005076
    2e20:	20004620 	.word	0x20004620
    2e24:	20005654 	.word	0x20005654
    2e28:	00005079 	.word	0x00005079
    2e2c:	000050b3 	.word	0x000050b3
    2e30:	000050c3 	.word	0x000050c3
    2e34:	000051ae 	.word	0x000051ae
    2e38:	200045f4 	.word	0x200045f4
    2e3c:	000051e1 	.word	0x000051e1
    2e40:	000051ec 	.word	0x000051ec
    2e44:	2000461c 	.word	0x2000461c
    2e48:	20004000 	.word	0x20004000
    2e4c:	00005299 	.word	0x00005299
    2e50:	00005240 	.word	0x00005240
    2e54:	00005271 	.word	0x00005271
    2e58:	000052de 	.word	0x000052de
    2e5c:	0000530f 	.word	0x0000530f
    2e60:	200041f2 	.word	0x200041f2
    2e64:	00005382 	.word	0x00005382
    2e68:	00005329 	.word	0x00005329
    2e6c:	00005359 	.word	0x00005359
    2e70:	000050ee 	.word	0x000050ee
    2e74:	0000510e 	.word	0x0000510e
    2e78:	00005141 	.word	0x00005141
    2e7c:	00005176 	.word	0x00005176
    2e80:	000052ba 	.word	0x000052ba
    2e84:	000053a3 	.word	0x000053a3

00002e88 <ReadExternalFlashStatusReg_SPI>:
ReadExternalFlashStatusReg_SPI():
C:\Users\alon\Desktop\github\iot-fan_at_cnblogs\CH577_CH578_CH579\AN\CH579EVT_USB_DISK_TEST\BLE\ch57x_ble_uart_mrs_app_only_test\obj/../app/spi_flash.c:21
 * Input          : None
 * Output         : None
 * Return         : ExFlashRegStatus
 *******************************************************************************/
UINT8 ReadExternalFlashStatusReg_SPI(void)
{
    2e88:	b510      	push	{r4, lr}
C:\Users\alon\Desktop\github\iot-fan_at_cnblogs\CH577_CH578_CH579\AN\CH579EVT_USB_DISK_TEST\BLE\ch57x_ble_uart_mrs_app_only_test\obj/../app/spi_flash.c:24
    UINT8 ExFlashRegStatus;

    SPI0_CS_LOW();
    2e8a:	2480      	movs	r4, #128	; 0x80
    2e8c:	4a07      	ldr	r2, [pc, #28]	; (2eac <ReadExternalFlashStatusReg_SPI+0x24>)
    2e8e:	0164      	lsls	r4, r4, #5
    2e90:	6813      	ldr	r3, [r2, #0]
C:\Users\alon\Desktop\github\iot-fan_at_cnblogs\CH577_CH578_CH579\AN\CH579EVT_USB_DISK_TEST\BLE\ch57x_ble_uart_mrs_app_only_test\obj/../app/spi_flash.c:25
    SPI0_MasterSendByte(CMD_STATUS1);         // ÂèëÈÄÅËØªÁä∂ÊÄÅÂØÑÂ≠òÂô®ÁöÑÂëΩ‰ª§
    2e92:	2005      	movs	r0, #5
C:\Users\alon\Desktop\github\iot-fan_at_cnblogs\CH577_CH578_CH579\AN\CH579EVT_USB_DISK_TEST\BLE\ch57x_ble_uart_mrs_app_only_test\obj/../app/spi_flash.c:24
    SPI0_CS_LOW();
    2e94:	4323      	orrs	r3, r4
    2e96:	6013      	str	r3, [r2, #0]
C:\Users\alon\Desktop\github\iot-fan_at_cnblogs\CH577_CH578_CH579\AN\CH579EVT_USB_DISK_TEST\BLE\ch57x_ble_uart_mrs_app_only_test\obj/../app/spi_flash.c:25
    SPI0_MasterSendByte(CMD_STATUS1);         // ÂèëÈÄÅËØªÁä∂ÊÄÅÂØÑÂ≠òÂô®ÁöÑÂëΩ‰ª§
    2e98:	f000 fc58 	bl	374c <SPI0_MasterSendByte>
C:\Users\alon\Desktop\github\iot-fan_at_cnblogs\CH577_CH578_CH579\AN\CH579EVT_USB_DISK_TEST\BLE\ch57x_ble_uart_mrs_app_only_test\obj/../app/spi_flash.c:26
    ExFlashRegStatus = SPI0_MasterRecvByte(); // ËØªÂèñÁä∂ÊÄÅÂØÑÂ≠òÂô®
    2e9c:	f000 fc6a 	bl	3774 <SPI0_MasterRecvByte>
C:\Users\alon\Desktop\github\iot-fan_at_cnblogs\CH577_CH578_CH579\AN\CH579EVT_USB_DISK_TEST\BLE\ch57x_ble_uart_mrs_app_only_test\obj/../app/spi_flash.c:27
    SPI0_CS_HIGH();
    2ea0:	4b03      	ldr	r3, [pc, #12]	; (2eb0 <ReadExternalFlashStatusReg_SPI+0x28>)
    2ea2:	681a      	ldr	r2, [r3, #0]
    2ea4:	4314      	orrs	r4, r2
    2ea6:	601c      	str	r4, [r3, #0]
C:\Users\alon\Desktop\github\iot-fan_at_cnblogs\CH577_CH578_CH579\AN\CH579EVT_USB_DISK_TEST\BLE\ch57x_ble_uart_mrs_app_only_test\obj/../app/spi_flash.c:30

    return ExFlashRegStatus;
}
    2ea8:	bd10      	pop	{r4, pc}
    2eaa:	46c0      	nop			; (mov r8, r8)
    2eac:	400010ac 	.word	0x400010ac
    2eb0:	400010a8 	.word	0x400010a8

00002eb4 <WaitExternalFlashIfBusy>:
WaitExternalFlashIfBusy():
C:\Users\alon\Desktop\github\iot-fan_at_cnblogs\CH577_CH578_CH579\AN\CH579EVT_USB_DISK_TEST\BLE\ch57x_ble_uart_mrs_app_only_test\obj/../app/spi_flash.c:40
 * Input          : None
 * Output         : None
 * Return         : None
 *******************************************************************************/
void WaitExternalFlashIfBusy(void)
{
    2eb4:	b510      	push	{r4, lr}
C:\Users\alon\Desktop\github\iot-fan_at_cnblogs\CH577_CH578_CH579\AN\CH579EVT_USB_DISK_TEST\BLE\ch57x_ble_uart_mrs_app_only_test\obj/../app/spi_flash.c:41
    while ((ReadExternalFlashStatusReg_SPI()) & 0x01 == 0x01)
    2eb6:	2401      	movs	r4, #1
C:\Users\alon\Desktop\github\iot-fan_at_cnblogs\CH577_CH578_CH579\AN\CH579EVT_USB_DISK_TEST\BLE\ch57x_ble_uart_mrs_app_only_test\obj/../app/spi_flash.c:41 (discriminator 1)
    2eb8:	f7ff ffe6 	bl	2e88 <ReadExternalFlashStatusReg_SPI>
    2ebc:	4220      	tst	r0, r4
    2ebe:	d1fb      	bne.n	2eb8 <WaitExternalFlashIfBusy+0x4>
C:\Users\alon\Desktop\github\iot-fan_at_cnblogs\CH577_CH578_CH579\AN\CH579EVT_USB_DISK_TEST\BLE\ch57x_ble_uart_mrs_app_only_test\obj/../app/spi_flash.c:45
    {
        ; // Á≠âÂæÖÁõ¥Âà∞FlashÁ©∫Èó≤
    }
}
    2ec0:	bd10      	pop	{r4, pc}
	...

00002ec4 <WriteExternalFlashEnable_SPI>:
WriteExternalFlashEnable_SPI():
C:\Users\alon\Desktop\github\iot-fan_at_cnblogs\CH577_CH578_CH579\AN\CH579EVT_USB_DISK_TEST\BLE\ch57x_ble_uart_mrs_app_only_test\obj/../app/spi_flash.c:54
 * Input          : None
 * Output         : None
 * Return         : None
 *******************************************************************************/
void WriteExternalFlashEnable_SPI(void)
{
    2ec4:	b510      	push	{r4, lr}
C:\Users\alon\Desktop\github\iot-fan_at_cnblogs\CH577_CH578_CH579\AN\CH579EVT_USB_DISK_TEST\BLE\ch57x_ble_uart_mrs_app_only_test\obj/../app/spi_flash.c:55
    SPI0_CS_LOW();
    2ec6:	2480      	movs	r4, #128	; 0x80
    2ec8:	4a06      	ldr	r2, [pc, #24]	; (2ee4 <WriteExternalFlashEnable_SPI+0x20>)
    2eca:	0164      	lsls	r4, r4, #5
    2ecc:	6813      	ldr	r3, [r2, #0]
C:\Users\alon\Desktop\github\iot-fan_at_cnblogs\CH577_CH578_CH579\AN\CH579EVT_USB_DISK_TEST\BLE\ch57x_ble_uart_mrs_app_only_test\obj/../app/spi_flash.c:56
    SPI0_MasterSendByte(CMD_WR_ENABLE); // ÂèëÈÄÅÂÜô‰ΩøËÉΩÂëΩ‰ª§
    2ece:	2006      	movs	r0, #6
C:\Users\alon\Desktop\github\iot-fan_at_cnblogs\CH577_CH578_CH579\AN\CH579EVT_USB_DISK_TEST\BLE\ch57x_ble_uart_mrs_app_only_test\obj/../app/spi_flash.c:55
    SPI0_CS_LOW();
    2ed0:	4323      	orrs	r3, r4
    2ed2:	6013      	str	r3, [r2, #0]
C:\Users\alon\Desktop\github\iot-fan_at_cnblogs\CH577_CH578_CH579\AN\CH579EVT_USB_DISK_TEST\BLE\ch57x_ble_uart_mrs_app_only_test\obj/../app/spi_flash.c:56
    SPI0_MasterSendByte(CMD_WR_ENABLE); // ÂèëÈÄÅÂÜô‰ΩøËÉΩÂëΩ‰ª§
    2ed4:	f000 fc3a 	bl	374c <SPI0_MasterSendByte>
C:\Users\alon\Desktop\github\iot-fan_at_cnblogs\CH577_CH578_CH579\AN\CH579EVT_USB_DISK_TEST\BLE\ch57x_ble_uart_mrs_app_only_test\obj/../app/spi_flash.c:57
    SPI0_CS_HIGH();
    2ed8:	4b03      	ldr	r3, [pc, #12]	; (2ee8 <WriteExternalFlashEnable_SPI+0x24>)
    2eda:	681a      	ldr	r2, [r3, #0]
    2edc:	4314      	orrs	r4, r2
    2ede:	601c      	str	r4, [r3, #0]
C:\Users\alon\Desktop\github\iot-fan_at_cnblogs\CH577_CH578_CH579\AN\CH579EVT_USB_DISK_TEST\BLE\ch57x_ble_uart_mrs_app_only_test\obj/../app/spi_flash.c:58
}
    2ee0:	bd10      	pop	{r4, pc}
    2ee2:	46c0      	nop			; (mov r8, r8)
    2ee4:	400010ac 	.word	0x400010ac
    2ee8:	400010a8 	.word	0x400010a8

00002eec <EraseExternal4KFlash_SPI>:
EraseExternal4KFlash_SPI():
C:\Users\alon\Desktop\github\iot-fan_at_cnblogs\CH577_CH578_CH579\AN\CH579EVT_USB_DISK_TEST\BLE\ch57x_ble_uart_mrs_app_only_test\obj/../app/spi_flash.c:67
 * Input          : Dst_Addr 0-1 ffff ffff ,Ê∏ÖÈô§‰ªªÊÑèÂú∞ÂùÄÊâÄÂú®ÁöÑÊâáÂå∫„ÄÇ
 * Output         : None
 * Return         : None
 *******************************************************************************/
void EraseExternal4KFlash_SPI(UINT32 Dst_Addr)
{
    2eec:	b570      	push	{r4, r5, r6, lr}
C:\Users\alon\Desktop\github\iot-fan_at_cnblogs\CH577_CH578_CH579\AN\CH579EVT_USB_DISK_TEST\BLE\ch57x_ble_uart_mrs_app_only_test\obj/../app/spi_flash.c:71
    WriteExternalFlashEnable_SPI();
    WaitExternalFlashIfBusy();

    SPI0_CS_LOW();
    2eee:	2580      	movs	r5, #128	; 0x80
C:\Users\alon\Desktop\github\iot-fan_at_cnblogs\CH577_CH578_CH579\AN\CH579EVT_USB_DISK_TEST\BLE\ch57x_ble_uart_mrs_app_only_test\obj/../app/spi_flash.c:67
{
    2ef0:	0004      	movs	r4, r0
C:\Users\alon\Desktop\github\iot-fan_at_cnblogs\CH577_CH578_CH579\AN\CH579EVT_USB_DISK_TEST\BLE\ch57x_ble_uart_mrs_app_only_test\obj/../app/spi_flash.c:68
    WriteExternalFlashEnable_SPI();
    2ef2:	f7ff ffe7 	bl	2ec4 <WriteExternalFlashEnable_SPI>
C:\Users\alon\Desktop\github\iot-fan_at_cnblogs\CH577_CH578_CH579\AN\CH579EVT_USB_DISK_TEST\BLE\ch57x_ble_uart_mrs_app_only_test\obj/../app/spi_flash.c:69
    WaitExternalFlashIfBusy();
    2ef6:	f7ff ffdd 	bl	2eb4 <WaitExternalFlashIfBusy>
C:\Users\alon\Desktop\github\iot-fan_at_cnblogs\CH577_CH578_CH579\AN\CH579EVT_USB_DISK_TEST\BLE\ch57x_ble_uart_mrs_app_only_test\obj/../app/spi_flash.c:71
    SPI0_CS_LOW();
    2efa:	4a0d      	ldr	r2, [pc, #52]	; (2f30 <EraseExternal4KFlash_SPI+0x44>)
    2efc:	016d      	lsls	r5, r5, #5
    2efe:	6813      	ldr	r3, [r2, #0]
C:\Users\alon\Desktop\github\iot-fan_at_cnblogs\CH577_CH578_CH579\AN\CH579EVT_USB_DISK_TEST\BLE\ch57x_ble_uart_mrs_app_only_test\obj/../app/spi_flash.c:72
    SPI0_MasterSendByte(CMD_ERASE_4KBYTE);              // ÊâáÂå∫Êì¶Èô§ÂëΩ‰ª§
    2f00:	2020      	movs	r0, #32
C:\Users\alon\Desktop\github\iot-fan_at_cnblogs\CH577_CH578_CH579\AN\CH579EVT_USB_DISK_TEST\BLE\ch57x_ble_uart_mrs_app_only_test\obj/../app/spi_flash.c:71
    SPI0_CS_LOW();
    2f02:	432b      	orrs	r3, r5
    2f04:	6013      	str	r3, [r2, #0]
C:\Users\alon\Desktop\github\iot-fan_at_cnblogs\CH577_CH578_CH579\AN\CH579EVT_USB_DISK_TEST\BLE\ch57x_ble_uart_mrs_app_only_test\obj/../app/spi_flash.c:72
    SPI0_MasterSendByte(CMD_ERASE_4KBYTE);              // ÊâáÂå∫Êì¶Èô§ÂëΩ‰ª§
    2f06:	f000 fc21 	bl	374c <SPI0_MasterSendByte>
C:\Users\alon\Desktop\github\iot-fan_at_cnblogs\CH577_CH578_CH579\AN\CH579EVT_USB_DISK_TEST\BLE\ch57x_ble_uart_mrs_app_only_test\obj/../app/spi_flash.c:73
    SPI0_MasterSendByte(((Dst_Addr & 0xFFFFFF) >> 16)); // ÂèëÈÄÅ3Â≠óËäÇÂú∞ÂùÄ
    2f0a:	0c20      	lsrs	r0, r4, #16
    2f0c:	b2c0      	uxtb	r0, r0
    2f0e:	f000 fc1d 	bl	374c <SPI0_MasterSendByte>
C:\Users\alon\Desktop\github\iot-fan_at_cnblogs\CH577_CH578_CH579\AN\CH579EVT_USB_DISK_TEST\BLE\ch57x_ble_uart_mrs_app_only_test\obj/../app/spi_flash.c:74
    SPI0_MasterSendByte(((Dst_Addr & 0xFFFF) >> 8));
    2f12:	0a20      	lsrs	r0, r4, #8
    2f14:	b2c0      	uxtb	r0, r0
    2f16:	f000 fc19 	bl	374c <SPI0_MasterSendByte>
C:\Users\alon\Desktop\github\iot-fan_at_cnblogs\CH577_CH578_CH579\AN\CH579EVT_USB_DISK_TEST\BLE\ch57x_ble_uart_mrs_app_only_test\obj/../app/spi_flash.c:75
    SPI0_MasterSendByte(Dst_Addr & 0xFF);
    2f1a:	b2e0      	uxtb	r0, r4
    2f1c:	f000 fc16 	bl	374c <SPI0_MasterSendByte>
C:\Users\alon\Desktop\github\iot-fan_at_cnblogs\CH577_CH578_CH579\AN\CH579EVT_USB_DISK_TEST\BLE\ch57x_ble_uart_mrs_app_only_test\obj/../app/spi_flash.c:76
    SPI0_CS_HIGH();
    2f20:	4b04      	ldr	r3, [pc, #16]	; (2f34 <EraseExternal4KFlash_SPI+0x48>)
    2f22:	681a      	ldr	r2, [r3, #0]
    2f24:	4315      	orrs	r5, r2
    2f26:	601d      	str	r5, [r3, #0]
C:\Users\alon\Desktop\github\iot-fan_at_cnblogs\CH577_CH578_CH579\AN\CH579EVT_USB_DISK_TEST\BLE\ch57x_ble_uart_mrs_app_only_test\obj/../app/spi_flash.c:78

    WaitExternalFlashIfBusy();
    2f28:	f7ff ffc4 	bl	2eb4 <WaitExternalFlashIfBusy>
C:\Users\alon\Desktop\github\iot-fan_at_cnblogs\CH577_CH578_CH579\AN\CH579EVT_USB_DISK_TEST\BLE\ch57x_ble_uart_mrs_app_only_test\obj/../app/spi_flash.c:79
}
    2f2c:	bd70      	pop	{r4, r5, r6, pc}
    2f2e:	46c0      	nop			; (mov r8, r8)
    2f30:	400010ac 	.word	0x400010ac
    2f34:	400010a8 	.word	0x400010a8

00002f38 <PageWriteExternalFlash_SPI>:
PageWriteExternalFlash_SPI():
C:\Users\alon\Desktop\github\iot-fan_at_cnblogs\CH577_CH578_CH579\AN\CH579EVT_USB_DISK_TEST\BLE\ch57x_ble_uart_mrs_app_only_test\obj/../app/spi_flash.c:129
 *                  Len:Ë¶ÅÂÜôÂÖ•ÁöÑÂ≠óËäÇÊï∞(ÊúÄÂ§ß256),ËØ•Êï∞‰∏çÂ∫îËØ•Ë∂ÖËøáËØ•È°µÁöÑÂâ©‰ΩôÂ≠óËäÇÊï∞!!!
 * Output         : None
 * Return         : None
 *******************************************************************************/
void PageWriteExternalFlash_SPI(UINT32 StarAddr, UINT16 Len, PUINT8 RcvBuffer)
{
    2f38:	b5f8      	push	{r3, r4, r5, r6, r7, lr}
C:\Users\alon\Desktop\github\iot-fan_at_cnblogs\CH577_CH578_CH579\AN\CH579EVT_USB_DISK_TEST\BLE\ch57x_ble_uart_mrs_app_only_test\obj/../app/spi_flash.c:134
    UINT16 i;

    WriteExternalFlashEnable_SPI(); // SET WEL

    SPI0_CS_LOW();
    2f3a:	2580      	movs	r5, #128	; 0x80
C:\Users\alon\Desktop\github\iot-fan_at_cnblogs\CH577_CH578_CH579\AN\CH579EVT_USB_DISK_TEST\BLE\ch57x_ble_uart_mrs_app_only_test\obj/../app/spi_flash.c:129
{
    2f3c:	0004      	movs	r4, r0
    2f3e:	000e      	movs	r6, r1
    2f40:	0017      	movs	r7, r2
C:\Users\alon\Desktop\github\iot-fan_at_cnblogs\CH577_CH578_CH579\AN\CH579EVT_USB_DISK_TEST\BLE\ch57x_ble_uart_mrs_app_only_test\obj/../app/spi_flash.c:132
    WriteExternalFlashEnable_SPI(); // SET WEL
    2f42:	f7ff ffbf 	bl	2ec4 <WriteExternalFlashEnable_SPI>
C:\Users\alon\Desktop\github\iot-fan_at_cnblogs\CH577_CH578_CH579\AN\CH579EVT_USB_DISK_TEST\BLE\ch57x_ble_uart_mrs_app_only_test\obj/../app/spi_flash.c:134
    SPI0_CS_LOW();
    2f46:	4a11      	ldr	r2, [pc, #68]	; (2f8c <PageWriteExternalFlash_SPI+0x54>)
    2f48:	016d      	lsls	r5, r5, #5
    2f4a:	6813      	ldr	r3, [r2, #0]
C:\Users\alon\Desktop\github\iot-fan_at_cnblogs\CH577_CH578_CH579\AN\CH579EVT_USB_DISK_TEST\BLE\ch57x_ble_uart_mrs_app_only_test\obj/../app/spi_flash.c:135
    SPI0_MasterSendByte(CMD_PAGE_PROG);                 // ÂèëÈÄÅÂÜôÈ°µÂëΩ‰ª§
    2f4c:	2002      	movs	r0, #2
C:\Users\alon\Desktop\github\iot-fan_at_cnblogs\CH577_CH578_CH579\AN\CH579EVT_USB_DISK_TEST\BLE\ch57x_ble_uart_mrs_app_only_test\obj/../app/spi_flash.c:134
    SPI0_CS_LOW();
    2f4e:	432b      	orrs	r3, r5
    2f50:	6013      	str	r3, [r2, #0]
C:\Users\alon\Desktop\github\iot-fan_at_cnblogs\CH577_CH578_CH579\AN\CH579EVT_USB_DISK_TEST\BLE\ch57x_ble_uart_mrs_app_only_test\obj/../app/spi_flash.c:135
    SPI0_MasterSendByte(CMD_PAGE_PROG);                 // ÂèëÈÄÅÂÜôÈ°µÂëΩ‰ª§
    2f52:	f000 fbfb 	bl	374c <SPI0_MasterSendByte>
C:\Users\alon\Desktop\github\iot-fan_at_cnblogs\CH577_CH578_CH579\AN\CH579EVT_USB_DISK_TEST\BLE\ch57x_ble_uart_mrs_app_only_test\obj/../app/spi_flash.c:136
    SPI0_MasterSendByte(((StarAddr & 0xFFFFFF) >> 16)); // ÂèëÈÄÅ24bitÂú∞ÂùÄ
    2f56:	0c20      	lsrs	r0, r4, #16
    2f58:	b2c0      	uxtb	r0, r0
    2f5a:	f000 fbf7 	bl	374c <SPI0_MasterSendByte>
C:\Users\alon\Desktop\github\iot-fan_at_cnblogs\CH577_CH578_CH579\AN\CH579EVT_USB_DISK_TEST\BLE\ch57x_ble_uart_mrs_app_only_test\obj/../app/spi_flash.c:137
    SPI0_MasterSendByte(((StarAddr & 0xFFFF) >> 8));
    2f5e:	0a20      	lsrs	r0, r4, #8
    2f60:	b2c0      	uxtb	r0, r0
    2f62:	f000 fbf3 	bl	374c <SPI0_MasterSendByte>
C:\Users\alon\Desktop\github\iot-fan_at_cnblogs\CH577_CH578_CH579\AN\CH579EVT_USB_DISK_TEST\BLE\ch57x_ble_uart_mrs_app_only_test\obj/../app/spi_flash.c:138
    SPI0_MasterSendByte(StarAddr & 0xFF);
    2f66:	b2e0      	uxtb	r0, r4
    2f68:	f000 fbf0 	bl	374c <SPI0_MasterSendByte>
C:\Users\alon\Desktop\github\iot-fan_at_cnblogs\CH577_CH578_CH579\AN\CH579EVT_USB_DISK_TEST\BLE\ch57x_ble_uart_mrs_app_only_test\obj/../app/spi_flash.c:139
    for (i = 0; i != Len; i++)
    2f6c:	19be      	adds	r6, r7, r6
C:\Users\alon\Desktop\github\iot-fan_at_cnblogs\CH577_CH578_CH579\AN\CH579EVT_USB_DISK_TEST\BLE\ch57x_ble_uart_mrs_app_only_test\obj/../app/spi_flash.c:139 (discriminator 1)
    2f6e:	42b7      	cmp	r7, r6
    2f70:	d106      	bne.n	2f80 <PageWriteExternalFlash_SPI+0x48>
C:\Users\alon\Desktop\github\iot-fan_at_cnblogs\CH577_CH578_CH579\AN\CH579EVT_USB_DISK_TEST\BLE\ch57x_ble_uart_mrs_app_only_test\obj/../app/spi_flash.c:143
    {
        SPI0_MasterSendByte(RcvBuffer[i]); // Âæ™ÁéØÂÜôÊï∞
    }
    SPI0_CS_HIGH();
    2f72:	4b07      	ldr	r3, [pc, #28]	; (2f90 <PageWriteExternalFlash_SPI+0x58>)
    2f74:	681a      	ldr	r2, [r3, #0]
    2f76:	4315      	orrs	r5, r2
    2f78:	601d      	str	r5, [r3, #0]
C:\Users\alon\Desktop\github\iot-fan_at_cnblogs\CH577_CH578_CH579\AN\CH579EVT_USB_DISK_TEST\BLE\ch57x_ble_uart_mrs_app_only_test\obj/../app/spi_flash.c:145

    WaitExternalFlashIfBusy(); // Á≠âÂæÖÂÜôÂÖ•ÁªìÊùü
    2f7a:	f7ff ff9b 	bl	2eb4 <WaitExternalFlashIfBusy>
C:\Users\alon\Desktop\github\iot-fan_at_cnblogs\CH577_CH578_CH579\AN\CH579EVT_USB_DISK_TEST\BLE\ch57x_ble_uart_mrs_app_only_test\obj/../app/spi_flash.c:146
}
    2f7e:	bdf8      	pop	{r3, r4, r5, r6, r7, pc}
C:\Users\alon\Desktop\github\iot-fan_at_cnblogs\CH577_CH578_CH579\AN\CH579EVT_USB_DISK_TEST\BLE\ch57x_ble_uart_mrs_app_only_test\obj/../app/spi_flash.c:141 (discriminator 3)
        SPI0_MasterSendByte(RcvBuffer[i]); // Âæ™ÁéØÂÜôÊï∞
    2f80:	7838      	ldrb	r0, [r7, #0]
    2f82:	f000 fbe3 	bl	374c <SPI0_MasterSendByte>
C:\Users\alon\Desktop\github\iot-fan_at_cnblogs\CH577_CH578_CH579\AN\CH579EVT_USB_DISK_TEST\BLE\ch57x_ble_uart_mrs_app_only_test\obj/../app/spi_flash.c:139 (discriminator 3)
    for (i = 0; i != Len; i++)
    2f86:	3701      	adds	r7, #1
    2f88:	e7f1      	b.n	2f6e <PageWriteExternalFlash_SPI+0x36>
    2f8a:	46c0      	nop			; (mov r8, r8)
    2f8c:	400010ac 	.word	0x400010ac
    2f90:	400010a8 	.word	0x400010a8

00002f94 <BlukWriteExternalFlash_SPI>:
BlukWriteExternalFlash_SPI():
C:\Users\alon\Desktop\github\iot-fan_at_cnblogs\CH577_CH578_CH579\AN\CH579EVT_USB_DISK_TEST\BLE\ch57x_ble_uart_mrs_app_only_test\obj/../app/spi_flash.c:160
 *                  Len:Ë¶ÅÂÜôÂÖ•ÁöÑÂ≠óËäÇÊï∞(ÊúÄÂ§ß65535)
 * Output         : None
 * Return         : None
 *******************************************************************************/
void BlukWriteExternalFlash_SPI(UINT32 StarAddr, UINT16 Len, PUINT8 SendBuffer)
{
    2f94:	b5f8      	push	{r3, r4, r5, r6, r7, lr}
C:\Users\alon\Desktop\github\iot-fan_at_cnblogs\CH577_CH578_CH579\AN\CH579EVT_USB_DISK_TEST\BLE\ch57x_ble_uart_mrs_app_only_test\obj/../app/spi_flash.c:163
    UINT16 pageremain;

    pageremain = 256 - StarAddr % 256; // ÂçïÈ°µÂâ©‰ΩôÁöÑÂ≠óËäÇÊï∞
    2f96:	2380      	movs	r3, #128	; 0x80
C:\Users\alon\Desktop\github\iot-fan_at_cnblogs\CH577_CH578_CH579\AN\CH579EVT_USB_DISK_TEST\BLE\ch57x_ble_uart_mrs_app_only_test\obj/../app/spi_flash.c:160
{
    2f98:	0017      	movs	r7, r2
C:\Users\alon\Desktop\github\iot-fan_at_cnblogs\CH577_CH578_CH579\AN\CH579EVT_USB_DISK_TEST\BLE\ch57x_ble_uart_mrs_app_only_test\obj/../app/spi_flash.c:163
    pageremain = 256 - StarAddr % 256; // ÂçïÈ°µÂâ©‰ΩôÁöÑÂ≠óËäÇÊï∞
    2f9a:	005b      	lsls	r3, r3, #1
    2f9c:	b2c2      	uxtb	r2, r0
    2f9e:	1a9b      	subs	r3, r3, r2
    2fa0:	b29b      	uxth	r3, r3
C:\Users\alon\Desktop\github\iot-fan_at_cnblogs\CH577_CH578_CH579\AN\CH579EVT_USB_DISK_TEST\BLE\ch57x_ble_uart_mrs_app_only_test\obj/../app/spi_flash.c:160
{
    2fa2:	0006      	movs	r6, r0
    2fa4:	000d      	movs	r5, r1
    2fa6:	1c1c      	adds	r4, r3, #0
    2fa8:	428b      	cmp	r3, r1
    2faa:	d900      	bls.n	2fae <BlukWriteExternalFlash_SPI+0x1a>
    2fac:	1c0c      	adds	r4, r1, #0
    2fae:	b2a4      	uxth	r4, r4
C:\Users\alon\Desktop\github\iot-fan_at_cnblogs\CH577_CH578_CH579\AN\CH579EVT_USB_DISK_TEST\BLE\ch57x_ble_uart_mrs_app_only_test\obj/../app/spi_flash.c:170
    {
        pageremain = Len; // ‰∏çÂ§ß‰∫é256‰∏™Â≠óËäÇ
    }
    while (1)
    {
        PageWriteExternalFlash_SPI(StarAddr, pageremain, SendBuffer);
    2fb0:	003a      	movs	r2, r7
    2fb2:	0021      	movs	r1, r4
    2fb4:	0030      	movs	r0, r6
    2fb6:	f7ff ffbf 	bl	2f38 <PageWriteExternalFlash_SPI>
C:\Users\alon\Desktop\github\iot-fan_at_cnblogs\CH577_CH578_CH579\AN\CH579EVT_USB_DISK_TEST\BLE\ch57x_ble_uart_mrs_app_only_test\obj/../app/spi_flash.c:171
        if (Len == pageremain)
    2fba:	42a5      	cmp	r5, r4
    2fbc:	d00a      	beq.n	2fd4 <BlukWriteExternalFlash_SPI+0x40>
C:\Users\alon\Desktop\github\iot-fan_at_cnblogs\CH577_CH578_CH579\AN\CH579EVT_USB_DISK_TEST\BLE\ch57x_ble_uart_mrs_app_only_test\obj/../app/spi_flash.c:177
        {
            break; // ÂÜôÂÖ•ÁªìÊùü‰∫Ü
        }
        else
        {
            SendBuffer += pageremain;
    2fbe:	2380      	movs	r3, #128	; 0x80
C:\Users\alon\Desktop\github\iot-fan_at_cnblogs\CH577_CH578_CH579\AN\CH579EVT_USB_DISK_TEST\BLE\ch57x_ble_uart_mrs_app_only_test\obj/../app/spi_flash.c:179
            StarAddr += pageremain;
            Len -= pageremain; // ÂáèÂéªÂ∑≤ÁªèÂÜôÂÖ•‰∫ÜÁöÑÂ≠óËäÇÊï∞
    2fc0:	1b2d      	subs	r5, r5, r4
    2fc2:	b2ad      	uxth	r5, r5
C:\Users\alon\Desktop\github\iot-fan_at_cnblogs\CH577_CH578_CH579\AN\CH579EVT_USB_DISK_TEST\BLE\ch57x_ble_uart_mrs_app_only_test\obj/../app/spi_flash.c:177
            SendBuffer += pageremain;
    2fc4:	193f      	adds	r7, r7, r4
C:\Users\alon\Desktop\github\iot-fan_at_cnblogs\CH577_CH578_CH579\AN\CH579EVT_USB_DISK_TEST\BLE\ch57x_ble_uart_mrs_app_only_test\obj/../app/spi_flash.c:178
            StarAddr += pageremain;
    2fc6:	1936      	adds	r6, r6, r4
C:\Users\alon\Desktop\github\iot-fan_at_cnblogs\CH577_CH578_CH579\AN\CH579EVT_USB_DISK_TEST\BLE\ch57x_ble_uart_mrs_app_only_test\obj/../app/spi_flash.c:180
            if (Len > 256)
    2fc8:	005b      	lsls	r3, r3, #1
    2fca:	1c2c      	adds	r4, r5, #0
    2fcc:	429d      	cmp	r5, r3
    2fce:	d9ee      	bls.n	2fae <BlukWriteExternalFlash_SPI+0x1a>
    2fd0:	1c1c      	adds	r4, r3, #0
    2fd2:	e7ec      	b.n	2fae <BlukWriteExternalFlash_SPI+0x1a>
C:\Users\alon\Desktop\github\iot-fan_at_cnblogs\CH577_CH578_CH579\AN\CH579EVT_USB_DISK_TEST\BLE\ch57x_ble_uart_mrs_app_only_test\obj/../app/spi_flash.c:190
            {
                pageremain = Len; // ‰∏çÂ§ü256‰∏™Â≠óËäÇ‰∫Ü
            }
        }
    }
}
    2fd4:	bdf8      	pop	{r3, r4, r5, r6, r7, pc}
	...

00002fd8 <ReadExternalFlash_SPI>:
ReadExternalFlash_SPI():
C:\Users\alon\Desktop\github\iot-fan_at_cnblogs\CH577_CH578_CH579\AN\CH579EVT_USB_DISK_TEST\BLE\ch57x_ble_uart_mrs_app_only_test\obj/../app/spi_flash.c:196
/*******************************************************************************
 * Function Name  : ReadExternalFlash_SPI
 * Description    : ËØªÂèñÂú∞ÂùÄÁöÑÊï∞ÊçÆ.
 *******************************************************************************/
void ReadExternalFlash_SPI(UINT32 StarAddr, UINT16 Len, PUINT8 RcvBuffer)
{
    2fd8:	b5f8      	push	{r3, r4, r5, r6, r7, lr}
C:\Users\alon\Desktop\github\iot-fan_at_cnblogs\CH577_CH578_CH579\AN\CH579EVT_USB_DISK_TEST\BLE\ch57x_ble_uart_mrs_app_only_test\obj/../app/spi_flash.c:199
    PRINT("spi_disk_read sector: %d, count: %d\n", StarAddr, Len);

        SPI0_CS_LOW();
    2fda:	2580      	movs	r5, #128	; 0x80
C:\Users\alon\Desktop\github\iot-fan_at_cnblogs\CH577_CH578_CH579\AN\CH579EVT_USB_DISK_TEST\BLE\ch57x_ble_uart_mrs_app_only_test\obj/../app/spi_flash.c:196
{
    2fdc:	0004      	movs	r4, r0
    2fde:	000e      	movs	r6, r1
    2fe0:	0017      	movs	r7, r2
C:\Users\alon\Desktop\github\iot-fan_at_cnblogs\CH577_CH578_CH579\AN\CH579EVT_USB_DISK_TEST\BLE\ch57x_ble_uart_mrs_app_only_test\obj/../app/spi_flash.c:197
    PRINT("spi_disk_read sector: %d, count: %d\n", StarAddr, Len);
    2fe2:	000a      	movs	r2, r1
    2fe4:	0001      	movs	r1, r0
    2fe6:	480f      	ldr	r0, [pc, #60]	; (3024 <ReadExternalFlash_SPI+0x4c>)
    2fe8:	f000 fd7e 	bl	3ae8 <iprintf>
C:\Users\alon\Desktop\github\iot-fan_at_cnblogs\CH577_CH578_CH579\AN\CH579EVT_USB_DISK_TEST\BLE\ch57x_ble_uart_mrs_app_only_test\obj/../app/spi_flash.c:199
        SPI0_CS_LOW();
    2fec:	4a0e      	ldr	r2, [pc, #56]	; (3028 <ReadExternalFlash_SPI+0x50>)
    2fee:	016d      	lsls	r5, r5, #5
    2ff0:	6813      	ldr	r3, [r2, #0]
C:\Users\alon\Desktop\github\iot-fan_at_cnblogs\CH577_CH578_CH579\AN\CH579EVT_USB_DISK_TEST\BLE\ch57x_ble_uart_mrs_app_only_test\obj/../app/spi_flash.c:200
        SPI0_MasterSendByte(CMD_READ_DATA);                 // ËØªÂëΩ‰ª§
    2ff2:	2003      	movs	r0, #3
C:\Users\alon\Desktop\github\iot-fan_at_cnblogs\CH577_CH578_CH579\AN\CH579EVT_USB_DISK_TEST\BLE\ch57x_ble_uart_mrs_app_only_test\obj/../app/spi_flash.c:199
        SPI0_CS_LOW();
    2ff4:	432b      	orrs	r3, r5
    2ff6:	6013      	str	r3, [r2, #0]
C:\Users\alon\Desktop\github\iot-fan_at_cnblogs\CH577_CH578_CH579\AN\CH579EVT_USB_DISK_TEST\BLE\ch57x_ble_uart_mrs_app_only_test\obj/../app/spi_flash.c:200
        SPI0_MasterSendByte(CMD_READ_DATA);                 // ËØªÂëΩ‰ª§
    2ff8:	f000 fba8 	bl	374c <SPI0_MasterSendByte>
C:\Users\alon\Desktop\github\iot-fan_at_cnblogs\CH577_CH578_CH579\AN\CH579EVT_USB_DISK_TEST\BLE\ch57x_ble_uart_mrs_app_only_test\obj/../app/spi_flash.c:201
        SPI0_MasterSendByte(((StarAddr & 0xFFFFFF) >> 16)); // ÂèëÈÄÅ3Â≠óËäÇÂú∞ÂùÄ
    2ffc:	0c20      	lsrs	r0, r4, #16
    2ffe:	b2c0      	uxtb	r0, r0
    3000:	f000 fba4 	bl	374c <SPI0_MasterSendByte>
C:\Users\alon\Desktop\github\iot-fan_at_cnblogs\CH577_CH578_CH579\AN\CH579EVT_USB_DISK_TEST\BLE\ch57x_ble_uart_mrs_app_only_test\obj/../app/spi_flash.c:202
        SPI0_MasterSendByte(((StarAddr & 0xFFFF) >> 8));
    3004:	0a20      	lsrs	r0, r4, #8
    3006:	b2c0      	uxtb	r0, r0
    3008:	f000 fba0 	bl	374c <SPI0_MasterSendByte>
C:\Users\alon\Desktop\github\iot-fan_at_cnblogs\CH577_CH578_CH579\AN\CH579EVT_USB_DISK_TEST\BLE\ch57x_ble_uart_mrs_app_only_test\obj/../app/spi_flash.c:203
        SPI0_MasterSendByte(StarAddr & 0xFF);
    300c:	b2e0      	uxtb	r0, r4
    300e:	f000 fb9d 	bl	374c <SPI0_MasterSendByte>
C:\Users\alon\Desktop\github\iot-fan_at_cnblogs\CH577_CH578_CH579\AN\CH579EVT_USB_DISK_TEST\BLE\ch57x_ble_uart_mrs_app_only_test\obj/../app/spi_flash.c:204
        SPI0_MasterRecv(RcvBuffer, Len);
    3012:	0031      	movs	r1, r6
    3014:	0038      	movs	r0, r7
    3016:	f000 fbc3 	bl	37a0 <SPI0_MasterRecv>
C:\Users\alon\Desktop\github\iot-fan_at_cnblogs\CH577_CH578_CH579\AN\CH579EVT_USB_DISK_TEST\BLE\ch57x_ble_uart_mrs_app_only_test\obj/../app/spi_flash.c:205
        SPI0_CS_HIGH();
    301a:	4b04      	ldr	r3, [pc, #16]	; (302c <ReadExternalFlash_SPI+0x54>)
    301c:	681a      	ldr	r2, [r3, #0]
    301e:	4315      	orrs	r5, r2
    3020:	601d      	str	r5, [r3, #0]
C:\Users\alon\Desktop\github\iot-fan_at_cnblogs\CH577_CH578_CH579\AN\CH579EVT_USB_DISK_TEST\BLE\ch57x_ble_uart_mrs_app_only_test\obj/../app/spi_flash.c:206
}
    3022:	bdf8      	pop	{r3, r4, r5, r6, r7, pc}
    3024:	00004b24 	.word	0x00004b24
    3028:	400010ac 	.word	0x400010ac
    302c:	400010a8 	.word	0x400010a8

00003030 <BlukReadExternalFlash_SPI>:
BlukReadExternalFlash_SPI():
C:\Users\alon\Desktop\github\iot-fan_at_cnblogs\CH577_CH578_CH579\AN\CH579EVT_USB_DISK_TEST\BLE\ch57x_ble_uart_mrs_app_only_test\obj/../app/spi_flash.c:217
                   RcvBuffer Êé•Êî∂ÁºìÂÜ≤Âå∫Ëµ∑ÂßãÂú∞ÂùÄ
* Output         : None
* Return         : None
*******************************************************************************/
void BlukReadExternalFlash_SPI(UINT32 StarAddr, UINT16 Len, PUINT8 RcvBuffer)
{
    3030:	b5f8      	push	{r3, r4, r5, r6, r7, lr}
C:\Users\alon\Desktop\github\iot-fan_at_cnblogs\CH577_CH578_CH579\AN\CH579EVT_USB_DISK_TEST\BLE\ch57x_ble_uart_mrs_app_only_test\obj/../app/spi_flash.c:221

    UINT16 pageremain;

    pageremain = 256 - StarAddr % 256; // ÂçïÈ°µÂâ©‰ΩôÁöÑÂ≠óËäÇÊï∞
    3032:	2380      	movs	r3, #128	; 0x80
C:\Users\alon\Desktop\github\iot-fan_at_cnblogs\CH577_CH578_CH579\AN\CH579EVT_USB_DISK_TEST\BLE\ch57x_ble_uart_mrs_app_only_test\obj/../app/spi_flash.c:217
{
    3034:	0017      	movs	r7, r2
C:\Users\alon\Desktop\github\iot-fan_at_cnblogs\CH577_CH578_CH579\AN\CH579EVT_USB_DISK_TEST\BLE\ch57x_ble_uart_mrs_app_only_test\obj/../app/spi_flash.c:221
    pageremain = 256 - StarAddr % 256; // ÂçïÈ°µÂâ©‰ΩôÁöÑÂ≠óËäÇÊï∞
    3036:	005b      	lsls	r3, r3, #1
    3038:	b2c2      	uxtb	r2, r0
    303a:	1a9b      	subs	r3, r3, r2
    303c:	b29b      	uxth	r3, r3
C:\Users\alon\Desktop\github\iot-fan_at_cnblogs\CH577_CH578_CH579\AN\CH579EVT_USB_DISK_TEST\BLE\ch57x_ble_uart_mrs_app_only_test\obj/../app/spi_flash.c:217
{
    303e:	0006      	movs	r6, r0
    3040:	000d      	movs	r5, r1
    3042:	1c1c      	adds	r4, r3, #0
    3044:	428b      	cmp	r3, r1
    3046:	d900      	bls.n	304a <BlukReadExternalFlash_SPI+0x1a>
    3048:	1c0c      	adds	r4, r1, #0
    304a:	b2a4      	uxth	r4, r4
C:\Users\alon\Desktop\github\iot-fan_at_cnblogs\CH577_CH578_CH579\AN\CH579EVT_USB_DISK_TEST\BLE\ch57x_ble_uart_mrs_app_only_test\obj/../app/spi_flash.c:228
    {
        pageremain = Len; // ‰∏çÂ§ß‰∫é256‰∏™Â≠óËäÇ
    }
    while (1)
    {
        ReadExternalFlash_SPI(StarAddr, pageremain, RcvBuffer);
    304c:	003a      	movs	r2, r7
    304e:	0021      	movs	r1, r4
    3050:	0030      	movs	r0, r6
    3052:	f7ff ffc1 	bl	2fd8 <ReadExternalFlash_SPI>
C:\Users\alon\Desktop\github\iot-fan_at_cnblogs\CH577_CH578_CH579\AN\CH579EVT_USB_DISK_TEST\BLE\ch57x_ble_uart_mrs_app_only_test\obj/../app/spi_flash.c:229
        if (Len == pageremain)
    3056:	42a5      	cmp	r5, r4
    3058:	d00a      	beq.n	3070 <BlukReadExternalFlash_SPI+0x40>
C:\Users\alon\Desktop\github\iot-fan_at_cnblogs\CH577_CH578_CH579\AN\CH579EVT_USB_DISK_TEST\BLE\ch57x_ble_uart_mrs_app_only_test\obj/../app/spi_flash.c:235
        {
            break; // ÂÜôÂÖ•ÁªìÊùü‰∫Ü
        }
        else
        {
            RcvBuffer += pageremain;
    305a:	2380      	movs	r3, #128	; 0x80
C:\Users\alon\Desktop\github\iot-fan_at_cnblogs\CH577_CH578_CH579\AN\CH579EVT_USB_DISK_TEST\BLE\ch57x_ble_uart_mrs_app_only_test\obj/../app/spi_flash.c:237
            StarAddr += pageremain;
            Len -= pageremain; // ÂáèÂéªÂ∑≤ÁªèÂÜôÂÖ•‰∫ÜÁöÑÂ≠óËäÇÊï∞
    305c:	1b2d      	subs	r5, r5, r4
    305e:	b2ad      	uxth	r5, r5
C:\Users\alon\Desktop\github\iot-fan_at_cnblogs\CH577_CH578_CH579\AN\CH579EVT_USB_DISK_TEST\BLE\ch57x_ble_uart_mrs_app_only_test\obj/../app/spi_flash.c:235
            RcvBuffer += pageremain;
    3060:	193f      	adds	r7, r7, r4
C:\Users\alon\Desktop\github\iot-fan_at_cnblogs\CH577_CH578_CH579\AN\CH579EVT_USB_DISK_TEST\BLE\ch57x_ble_uart_mrs_app_only_test\obj/../app/spi_flash.c:236
            StarAddr += pageremain;
    3062:	1936      	adds	r6, r6, r4
C:\Users\alon\Desktop\github\iot-fan_at_cnblogs\CH577_CH578_CH579\AN\CH579EVT_USB_DISK_TEST\BLE\ch57x_ble_uart_mrs_app_only_test\obj/../app/spi_flash.c:238
            if (Len > 256)
    3064:	005b      	lsls	r3, r3, #1
    3066:	1c2c      	adds	r4, r5, #0
    3068:	429d      	cmp	r5, r3
    306a:	d9ee      	bls.n	304a <BlukReadExternalFlash_SPI+0x1a>
    306c:	1c1c      	adds	r4, r3, #0
    306e:	e7ec      	b.n	304a <BlukReadExternalFlash_SPI+0x1a>
C:\Users\alon\Desktop\github\iot-fan_at_cnblogs\CH577_CH578_CH579\AN\CH579EVT_USB_DISK_TEST\BLE\ch57x_ble_uart_mrs_app_only_test\obj/../app/spi_flash.c:248
            {
                pageremain = Len; // ‰∏çÂ§ü256‰∏™Â≠óËäÇ‰∫Ü
            }
        }
    }
}
    3070:	bdf8      	pop	{r3, r4, r5, r6, r7, pc}
	...

00003074 <SPIFlash_ReadID>:
SPIFlash_ReadID():
C:\Users\alon\Desktop\github\iot-fan_at_cnblogs\CH577_CH578_CH579\AN\CH579EVT_USB_DISK_TEST\BLE\ch57x_ble_uart_mrs_app_only_test\obj/../app/spi_flash.c:262
 *                  0XEF15,Ë°®Á§∫ËäØÁâáÂûãÂè∑‰∏∫W25Q32
 *                  0XEF16,Ë°®Á§∫ËäØÁâáÂûãÂè∑‰∏∫W25Q64
 *                  0XEF17,Ë°®Á§∫ËäØÁâáÂûãÂè∑‰∏∫W25Q128
 *******************************************************************************/
UINT16 SPIFlash_ReadID(void)
{
    3074:	b570      	push	{r4, r5, r6, lr}
C:\Users\alon\Desktop\github\iot-fan_at_cnblogs\CH577_CH578_CH579\AN\CH579EVT_USB_DISK_TEST\BLE\ch57x_ble_uart_mrs_app_only_test\obj/../app/spi_flash.c:267
    UINT16 temp = 0;

    PRINT("SPIFlash_ReadID\n");

    SPI0_CS_LOW();
    3076:	2580      	movs	r5, #128	; 0x80
C:\Users\alon\Desktop\github\iot-fan_at_cnblogs\CH577_CH578_CH579\AN\CH579EVT_USB_DISK_TEST\BLE\ch57x_ble_uart_mrs_app_only_test\obj/../app/spi_flash.c:265
    PRINT("SPIFlash_ReadID\n");
    3078:	4810      	ldr	r0, [pc, #64]	; (30bc <SPIFlash_ReadID+0x48>)
    307a:	f000 fdc1 	bl	3c00 <puts>
C:\Users\alon\Desktop\github\iot-fan_at_cnblogs\CH577_CH578_CH579\AN\CH579EVT_USB_DISK_TEST\BLE\ch57x_ble_uart_mrs_app_only_test\obj/../app/spi_flash.c:267
    SPI0_CS_LOW();
    307e:	4a10      	ldr	r2, [pc, #64]	; (30c0 <SPIFlash_ReadID+0x4c>)
    3080:	016d      	lsls	r5, r5, #5
    3082:	6813      	ldr	r3, [r2, #0]
C:\Users\alon\Desktop\github\iot-fan_at_cnblogs\CH577_CH578_CH579\AN\CH579EVT_USB_DISK_TEST\BLE\ch57x_ble_uart_mrs_app_only_test\obj/../app/spi_flash.c:268
    SPI0_MasterSendByte(CMD_DEVICE_ID); // ËØªÂèñIDÂëΩ‰ª§
    3084:	2090      	movs	r0, #144	; 0x90
C:\Users\alon\Desktop\github\iot-fan_at_cnblogs\CH577_CH578_CH579\AN\CH579EVT_USB_DISK_TEST\BLE\ch57x_ble_uart_mrs_app_only_test\obj/../app/spi_flash.c:267
    SPI0_CS_LOW();
    3086:	432b      	orrs	r3, r5
    3088:	6013      	str	r3, [r2, #0]
C:\Users\alon\Desktop\github\iot-fan_at_cnblogs\CH577_CH578_CH579\AN\CH579EVT_USB_DISK_TEST\BLE\ch57x_ble_uart_mrs_app_only_test\obj/../app/spi_flash.c:268
    SPI0_MasterSendByte(CMD_DEVICE_ID); // ËØªÂèñIDÂëΩ‰ª§
    308a:	f000 fb5f 	bl	374c <SPI0_MasterSendByte>
C:\Users\alon\Desktop\github\iot-fan_at_cnblogs\CH577_CH578_CH579\AN\CH579EVT_USB_DISK_TEST\BLE\ch57x_ble_uart_mrs_app_only_test\obj/../app/spi_flash.c:269
    SPI0_MasterSendByte(0x00);
    308e:	2000      	movs	r0, #0
    3090:	f000 fb5c 	bl	374c <SPI0_MasterSendByte>
C:\Users\alon\Desktop\github\iot-fan_at_cnblogs\CH577_CH578_CH579\AN\CH579EVT_USB_DISK_TEST\BLE\ch57x_ble_uart_mrs_app_only_test\obj/../app/spi_flash.c:270
    SPI0_MasterSendByte(0x00);
    3094:	2000      	movs	r0, #0
    3096:	f000 fb59 	bl	374c <SPI0_MasterSendByte>
C:\Users\alon\Desktop\github\iot-fan_at_cnblogs\CH577_CH578_CH579\AN\CH579EVT_USB_DISK_TEST\BLE\ch57x_ble_uart_mrs_app_only_test\obj/../app/spi_flash.c:271
    SPI0_MasterSendByte(0x00);
    309a:	2000      	movs	r0, #0
    309c:	f000 fb56 	bl	374c <SPI0_MasterSendByte>
C:\Users\alon\Desktop\github\iot-fan_at_cnblogs\CH577_CH578_CH579\AN\CH579EVT_USB_DISK_TEST\BLE\ch57x_ble_uart_mrs_app_only_test\obj/../app/spi_flash.c:272
    temp = SPI0_MasterRecvByte();
    30a0:	f000 fb68 	bl	3774 <SPI0_MasterRecvByte>
    30a4:	b284      	uxth	r4, r0
C:\Users\alon\Desktop\github\iot-fan_at_cnblogs\CH577_CH578_CH579\AN\CH579EVT_USB_DISK_TEST\BLE\ch57x_ble_uart_mrs_app_only_test\obj/../app/spi_flash.c:274
    temp = temp << 8;
    temp |= SPI0_MasterRecvByte();
    30a6:	f000 fb65 	bl	3774 <SPI0_MasterRecvByte>
C:\Users\alon\Desktop\github\iot-fan_at_cnblogs\CH577_CH578_CH579\AN\CH579EVT_USB_DISK_TEST\BLE\ch57x_ble_uart_mrs_app_only_test\obj/../app/spi_flash.c:275
    SPI0_CS_HIGH();
    30aa:	4b06      	ldr	r3, [pc, #24]	; (30c4 <SPIFlash_ReadID+0x50>)
C:\Users\alon\Desktop\github\iot-fan_at_cnblogs\CH577_CH578_CH579\AN\CH579EVT_USB_DISK_TEST\BLE\ch57x_ble_uart_mrs_app_only_test\obj/../app/spi_flash.c:273
    temp = temp << 8;
    30ac:	0224      	lsls	r4, r4, #8
C:\Users\alon\Desktop\github\iot-fan_at_cnblogs\CH577_CH578_CH579\AN\CH579EVT_USB_DISK_TEST\BLE\ch57x_ble_uart_mrs_app_only_test\obj/../app/spi_flash.c:275
    SPI0_CS_HIGH();
    30ae:	681a      	ldr	r2, [r3, #0]
C:\Users\alon\Desktop\github\iot-fan_at_cnblogs\CH577_CH578_CH579\AN\CH579EVT_USB_DISK_TEST\BLE\ch57x_ble_uart_mrs_app_only_test\obj/../app/spi_flash.c:273
    temp = temp << 8;
    30b0:	b2a4      	uxth	r4, r4
C:\Users\alon\Desktop\github\iot-fan_at_cnblogs\CH577_CH578_CH579\AN\CH579EVT_USB_DISK_TEST\BLE\ch57x_ble_uart_mrs_app_only_test\obj/../app/spi_flash.c:275
    SPI0_CS_HIGH();
    30b2:	4315      	orrs	r5, r2
C:\Users\alon\Desktop\github\iot-fan_at_cnblogs\CH577_CH578_CH579\AN\CH579EVT_USB_DISK_TEST\BLE\ch57x_ble_uart_mrs_app_only_test\obj/../app/spi_flash.c:274
    temp |= SPI0_MasterRecvByte();
    30b4:	4320      	orrs	r0, r4
C:\Users\alon\Desktop\github\iot-fan_at_cnblogs\CH577_CH578_CH579\AN\CH579EVT_USB_DISK_TEST\BLE\ch57x_ble_uart_mrs_app_only_test\obj/../app/spi_flash.c:275
    SPI0_CS_HIGH();
    30b6:	601d      	str	r5, [r3, #0]
C:\Users\alon\Desktop\github\iot-fan_at_cnblogs\CH577_CH578_CH579\AN\CH579EVT_USB_DISK_TEST\BLE\ch57x_ble_uart_mrs_app_only_test\obj/../app/spi_flash.c:277

    return temp;
    30b8:	b280      	uxth	r0, r0
C:\Users\alon\Desktop\github\iot-fan_at_cnblogs\CH577_CH578_CH579\AN\CH579EVT_USB_DISK_TEST\BLE\ch57x_ble_uart_mrs_app_only_test\obj/../app/spi_flash.c:278
}
    30ba:	bd70      	pop	{r4, r5, r6, pc}
    30bc:	000053c0 	.word	0x000053c0
    30c0:	400010ac 	.word	0x400010ac
    30c4:	400010a8 	.word	0x400010a8

000030c8 <spi_flash_init>:
spi_flash_init():
C:\Users\alon\Desktop\github\iot-fan_at_cnblogs\CH577_CH578_CH579\AN\CH579EVT_USB_DISK_TEST\BLE\ch57x_ble_uart_mrs_app_only_test\obj/../app/spi_flash.c:282

void spi_flash_init()
{
    GPIOA_SetBits(bMOSI | bSCK0 | bSCS);
    30c8:	20e0      	movs	r0, #224	; 0xe0
C:\Users\alon\Desktop\github\iot-fan_at_cnblogs\CH577_CH578_CH579\AN\CH579EVT_USB_DISK_TEST\BLE\ch57x_ble_uart_mrs_app_only_test\obj/../app/spi_flash.c:281
{
    30ca:	b510      	push	{r4, lr}
C:\Users\alon\Desktop\github\iot-fan_at_cnblogs\CH577_CH578_CH579\AN\CH579EVT_USB_DISK_TEST\BLE\ch57x_ble_uart_mrs_app_only_test\obj/../app/spi_flash.c:282
    GPIOA_SetBits(bMOSI | bSCK0 | bSCS);
    30cc:	4c0f      	ldr	r4, [pc, #60]	; (310c <spi_flash_init+0x44>)
    30ce:	01c0      	lsls	r0, r0, #7
    30d0:	6823      	ldr	r3, [r4, #0]
C:\Users\alon\Desktop\github\iot-fan_at_cnblogs\CH577_CH578_CH579\AN\CH579EVT_USB_DISK_TEST\BLE\ch57x_ble_uart_mrs_app_only_test\obj/../app/spi_flash.c:283
    GPIOA_ModeCfg(bMOSI | bSCK0 | bSCS, GPIO_ModeOut_PP_5mA); // MOSI/SCK/CS
    30d2:	2103      	movs	r1, #3
C:\Users\alon\Desktop\github\iot-fan_at_cnblogs\CH577_CH578_CH579\AN\CH579EVT_USB_DISK_TEST\BLE\ch57x_ble_uart_mrs_app_only_test\obj/../app/spi_flash.c:282
    GPIOA_SetBits(bMOSI | bSCK0 | bSCS);
    30d4:	4303      	orrs	r3, r0
    30d6:	6023      	str	r3, [r4, #0]
C:\Users\alon\Desktop\github\iot-fan_at_cnblogs\CH577_CH578_CH579\AN\CH579EVT_USB_DISK_TEST\BLE\ch57x_ble_uart_mrs_app_only_test\obj/../app/spi_flash.c:283
    GPIOA_ModeCfg(bMOSI | bSCK0 | bSCS, GPIO_ModeOut_PP_5mA); // MOSI/SCK/CS
    30d8:	f000 f9e6 	bl	34a8 <GPIOA_ModeCfg>
C:\Users\alon\Desktop\github\iot-fan_at_cnblogs\CH577_CH578_CH579\AN\CH579EVT_USB_DISK_TEST\BLE\ch57x_ble_uart_mrs_app_only_test\obj/../app/spi_flash.c:284
    GPIOA_SetBits(bMISO);
    30dc:	2080      	movs	r0, #128	; 0x80
    30de:	6823      	ldr	r3, [r4, #0]
    30e0:	0200      	lsls	r0, r0, #8
    30e2:	4303      	orrs	r3, r0
    30e4:	6023      	str	r3, [r4, #0]
C:\Users\alon\Desktop\github\iot-fan_at_cnblogs\CH577_CH578_CH579\AN\CH579EVT_USB_DISK_TEST\BLE\ch57x_ble_uart_mrs_app_only_test\obj/../app/spi_flash.c:285
    GPIOA_ModeCfg(bMISO, GPIO_ModeIN_PU); // MOSI/SCK/CS
    30e6:	2101      	movs	r1, #1
    30e8:	f000 f9de 	bl	34a8 <GPIOA_ModeCfg>
C:\Users\alon\Desktop\github\iot-fan_at_cnblogs\CH577_CH578_CH579\AN\CH579EVT_USB_DISK_TEST\BLE\ch57x_ble_uart_mrs_app_only_test\obj/../app/spi_flash.c:287

    SPI0_MasterDefInit();
    30ec:	f000 fade 	bl	36ac <SPI0_MasterDefInit>
C:\Users\alon\Desktop\github\iot-fan_at_cnblogs\CH577_CH578_CH579\AN\CH579EVT_USB_DISK_TEST\BLE\ch57x_ble_uart_mrs_app_only_test\obj/../app/spi_flash.c:288
    SPI0_DataMode(Mode3_HighBitINFront);
    30f0:	2003      	movs	r0, #3
    30f2:	f000 fb05 	bl	3700 <SPI0_DataMode>
C:\Users\alon\Desktop\github\iot-fan_at_cnblogs\CH577_CH578_CH579\AN\CH579EVT_USB_DISK_TEST\BLE\ch57x_ble_uart_mrs_app_only_test\obj/../app/spi_flash.c:289
    SPI0_CLKCfg(4);
    30f6:	2004      	movs	r0, #4
    30f8:	f000 faf0 	bl	36dc <SPI0_CLKCfg>
C:\Users\alon\Desktop\github\iot-fan_at_cnblogs\CH577_CH578_CH579\AN\CH579EVT_USB_DISK_TEST\BLE\ch57x_ble_uart_mrs_app_only_test\obj/../app/spi_flash.c:290
    PRINT("id:0x%04x\n", SPIFlash_ReadID());
    30fc:	f7ff ffba 	bl	3074 <SPIFlash_ReadID>
    3100:	0001      	movs	r1, r0
    3102:	4803      	ldr	r0, [pc, #12]	; (3110 <spi_flash_init+0x48>)
    3104:	f000 fcf0 	bl	3ae8 <iprintf>
C:\Users\alon\Desktop\github\iot-fan_at_cnblogs\CH577_CH578_CH579\AN\CH579EVT_USB_DISK_TEST\BLE\ch57x_ble_uart_mrs_app_only_test\obj/../app/spi_flash.c:291
}
    3108:	bd10      	pop	{r4, pc}
    310a:	46c0      	nop			; (mov r8, r8)
    310c:	400010a8 	.word	0x400010a8
    3110:	000053d0 	.word	0x000053d0

00003114 <SYS_IsClkXT32MPon>:
SYS_IsClkXT32MPon():
C:\Users\alon\Desktop\github\iot-fan_at_cnblogs\CH577_CH578_CH579\AN\CH579EVT_USB_DISK_TEST\SRC\StdPeriphDriver\inc/CH57x_clk.h:131

}RTC_MODETypeDef;

__STATIC_INLINE bool SYS_IsClkXT32MPon(void)
{
	return (R8_HFCK_PWR_CTRL & RB_CLK_XT32M_PON) ? true : false;
    3114:	4b02      	ldr	r3, [pc, #8]	; (3120 <SYS_IsClkXT32MPon+0xc>)
    3116:	7818      	ldrb	r0, [r3, #0]
    3118:	0740      	lsls	r0, r0, #29
    311a:	0fc0      	lsrs	r0, r0, #31
C:\Users\alon\Desktop\github\iot-fan_at_cnblogs\CH577_CH578_CH579\AN\CH579EVT_USB_DISK_TEST\SRC\StdPeriphDriver\inc/CH57x_clk.h:132
}
    311c:	4770      	bx	lr
    311e:	46c0      	nop			; (mov r8, r8)
    3120:	4000100a 	.word	0x4000100a

00003124 <SystemInit>:
SystemInit():
C:/Users/alon/Desktop/github/iot-fan_at_cnblogs/CH577_CH578_CH579/AN/CH579EVT_USB_DISK_TEST/SRC/StdPeriphDriver/CH57x_clk.c:19
* Input          : None			   				
* Return         : None
*******************************************************************************/
void SystemInit(void)
{
    R8_SAFE_ACCESS_SIG = SAFE_ACCESS_SIG1;		
    3124:	2257      	movs	r2, #87	; 0x57
C:/Users/alon/Desktop/github/iot-fan_at_cnblogs/CH577_CH578_CH579/AN/CH579EVT_USB_DISK_TEST/SRC/StdPeriphDriver/CH57x_clk.c:21
    R8_SAFE_ACCESS_SIG = SAFE_ACCESS_SIG2;
    R16_CLK_SYS_CFG = (2<<6)|0x08;			// 32M -> Fsys
    3126:	2188      	movs	r1, #136	; 0x88
C:/Users/alon/Desktop/github/iot-fan_at_cnblogs/CH577_CH578_CH579/AN/CH579EVT_USB_DISK_TEST/SRC/StdPeriphDriver/CH57x_clk.c:19
    R8_SAFE_ACCESS_SIG = SAFE_ACCESS_SIG1;		
    3128:	4b0a      	ldr	r3, [pc, #40]	; (3154 <SystemInit+0x30>)
C:/Users/alon/Desktop/github/iot-fan_at_cnblogs/CH577_CH578_CH579/AN/CH579EVT_USB_DISK_TEST/SRC/StdPeriphDriver/CH57x_clk.c:18
{
    312a:	b510      	push	{r4, lr}
C:/Users/alon/Desktop/github/iot-fan_at_cnblogs/CH577_CH578_CH579/AN/CH579EVT_USB_DISK_TEST/SRC/StdPeriphDriver/CH57x_clk.c:19
    R8_SAFE_ACCESS_SIG = SAFE_ACCESS_SIG1;		
    312c:	701a      	strb	r2, [r3, #0]
C:/Users/alon/Desktop/github/iot-fan_at_cnblogs/CH577_CH578_CH579/AN/CH579EVT_USB_DISK_TEST/SRC/StdPeriphDriver/CH57x_clk.c:20
    R8_SAFE_ACCESS_SIG = SAFE_ACCESS_SIG2;
    312e:	3251      	adds	r2, #81	; 0x51
    3130:	701a      	strb	r2, [r3, #0]
C:/Users/alon/Desktop/github/iot-fan_at_cnblogs/CH577_CH578_CH579/AN/CH579EVT_USB_DISK_TEST/SRC/StdPeriphDriver/CH57x_clk.c:21
    R16_CLK_SYS_CFG = (2<<6)|0x08;			// 32M -> Fsys
    3132:	4a09      	ldr	r2, [pc, #36]	; (3158 <SystemInit+0x34>)
    3134:	8011      	strh	r1, [r2, #0]
C:/Users/alon/Desktop/github/iot-fan_at_cnblogs/CH577_CH578_CH579/AN/CH579EVT_USB_DISK_TEST/SRC/StdPeriphDriver/CH57x_clk.c:22
    *((PUINT16V)0x40001048) |= 4;
    3136:	2204      	movs	r2, #4
    3138:	4908      	ldr	r1, [pc, #32]	; (315c <SystemInit+0x38>)
    313a:	8808      	ldrh	r0, [r1, #0]
    313c:	4302      	orrs	r2, r0
    313e:	800a      	strh	r2, [r1, #0]
C:/Users/alon/Desktop/github/iot-fan_at_cnblogs/CH577_CH578_CH579/AN/CH579EVT_USB_DISK_TEST/SRC/StdPeriphDriver/CH57x_clk.c:23
    R8_SAFE_ACCESS_SIG = 0;
    3140:	2200      	movs	r2, #0
C:/Users/alon/Desktop/github/iot-fan_at_cnblogs/CH577_CH578_CH579/AN/CH579EVT_USB_DISK_TEST/SRC/StdPeriphDriver/CH57x_clk.c:25
    
    mDelayuS(10);
    3142:	200a      	movs	r0, #10
C:/Users/alon/Desktop/github/iot-fan_at_cnblogs/CH577_CH578_CH579/AN/CH579EVT_USB_DISK_TEST/SRC/StdPeriphDriver/CH57x_clk.c:23
    R8_SAFE_ACCESS_SIG = 0;
    3144:	701a      	strb	r2, [r3, #0]
C:/Users/alon/Desktop/github/iot-fan_at_cnblogs/CH577_CH578_CH579/AN/CH579EVT_USB_DISK_TEST/SRC/StdPeriphDriver/CH57x_clk.c:25
    mDelayuS(10);
    3146:	f000 fb4d 	bl	37e4 <mDelayuS>
C:/Users/alon/Desktop/github/iot-fan_at_cnblogs/CH577_CH578_CH579/AN/CH579EVT_USB_DISK_TEST/SRC/StdPeriphDriver/CH57x_clk.c:27
    /* ø™∆ÙµÁ—πº‡øÿ */
    PowerMonitor( ENABLE );
    314a:	2001      	movs	r0, #1
    314c:	f000 fa8c 	bl	3668 <PowerMonitor>
C:/Users/alon/Desktop/github/iot-fan_at_cnblogs/CH577_CH578_CH579/AN/CH579EVT_USB_DISK_TEST/SRC/StdPeriphDriver/CH57x_clk.c:28
}
    3150:	bd10      	pop	{r4, pc}
    3152:	46c0      	nop			; (mov r8, r8)
    3154:	40001040 	.word	0x40001040
    3158:	40001008 	.word	0x40001008
    315c:	40001048 	.word	0x40001048

00003160 <SYS_ClkXT32MPon>:
SYS_ClkXT32MPon():
C:/Users/alon/Desktop/github/iot-fan_at_cnblogs/CH577_CH578_CH579/AN/CH579EVT_USB_DISK_TEST/SRC/StdPeriphDriver/CH57x_clk.c:40
*******************************************************************************/
void SYS_ClkXT32MPon(void)
{
    uint32_t i, j;

    R8_SAFE_ACCESS_SIG = SAFE_ACCESS_SIG1;
    3160:	2257      	movs	r2, #87	; 0x57
    3162:	4b0a      	ldr	r3, [pc, #40]	; (318c <SYS_ClkXT32MPon+0x2c>)
C:/Users/alon/Desktop/github/iot-fan_at_cnblogs/CH577_CH578_CH579/AN/CH579EVT_USB_DISK_TEST/SRC/StdPeriphDriver/CH57x_clk.c:42
    R8_SAFE_ACCESS_SIG = SAFE_ACCESS_SIG2;
    R8_HFCK_PWR_CTRL |= RB_CLK_XT32M_PON;
    3164:	490a      	ldr	r1, [pc, #40]	; (3190 <SYS_ClkXT32MPon+0x30>)
C:/Users/alon/Desktop/github/iot-fan_at_cnblogs/CH577_CH578_CH579/AN/CH579EVT_USB_DISK_TEST/SRC/StdPeriphDriver/CH57x_clk.c:40
    R8_SAFE_ACCESS_SIG = SAFE_ACCESS_SIG1;
    3166:	701a      	strb	r2, [r3, #0]
C:/Users/alon/Desktop/github/iot-fan_at_cnblogs/CH577_CH578_CH579/AN/CH579EVT_USB_DISK_TEST/SRC/StdPeriphDriver/CH57x_clk.c:41
    R8_SAFE_ACCESS_SIG = SAFE_ACCESS_SIG2;
    3168:	3251      	adds	r2, #81	; 0x51
    316a:	701a      	strb	r2, [r3, #0]
C:/Users/alon/Desktop/github/iot-fan_at_cnblogs/CH577_CH578_CH579/AN/CH579EVT_USB_DISK_TEST/SRC/StdPeriphDriver/CH57x_clk.c:42
    R8_HFCK_PWR_CTRL |= RB_CLK_XT32M_PON;
    316c:	7808      	ldrb	r0, [r1, #0]
    316e:	3aa4      	subs	r2, #164	; 0xa4
    3170:	4302      	orrs	r2, r0
    3172:	700a      	strb	r2, [r1, #0]
C:/Users/alon/Desktop/github/iot-fan_at_cnblogs/CH577_CH578_CH579/AN/CH579EVT_USB_DISK_TEST/SRC/StdPeriphDriver/CH57x_clk.c:43
    R8_SAFE_ACCESS_SIG = 0;
    3174:	2200      	movs	r2, #0
    3176:	701a      	strb	r2, [r3, #0]
    3178:	2396      	movs	r3, #150	; 0x96
    317a:	00db      	lsls	r3, r3, #3
__NOP():
C:\Users\alon\Desktop\github\iot-fan_at_cnblogs\CH577_CH578_CH579\AN\CH579EVT_USB_DISK_TEST\SRC\CMSIS\Include/core_cmInstr.h:390

    No Operation does nothing. This instruction can be used for code alignment purposes.
 */
__attribute__( ( always_inline ) ) __STATIC_INLINE void __NOP(void)
{
  __ASM volatile ("nop");
    317c:	46c0      	nop			; (mov r8, r8)
    317e:	46c0      	nop			; (mov r8, r8)
    3180:	46c0      	nop			; (mov r8, r8)
    3182:	46c0      	nop			; (mov r8, r8)
SYS_ClkXT32MPon():
C:/Users/alon/Desktop/github/iot-fan_at_cnblogs/CH577_CH578_CH579/AN/CH579EVT_USB_DISK_TEST/SRC/StdPeriphDriver/CH57x_clk.c:46

    /* “‘40MHz ±÷”º∆À„1200us—” ± ±º‰ */
    for (i = 0; i < 1200; i++) {
    3184:	3b01      	subs	r3, #1
    3186:	2b00      	cmp	r3, #0
    3188:	d1f8      	bne.n	317c <SYS_ClkXT32MPon+0x1c>
C:/Users/alon/Desktop/github/iot-fan_at_cnblogs/CH577_CH578_CH579/AN/CH579EVT_USB_DISK_TEST/SRC/StdPeriphDriver/CH57x_clk.c:51
        for (j = 0; j < 4; j++) {
            __NOP();
        }
    }
}
    318a:	4770      	bx	lr
    318c:	40001040 	.word	0x40001040
    3190:	4000100a 	.word	0x4000100a

00003194 <SYS_ClkINT32MPon>:
SYS_ClkINT32MPon():
C:/Users/alon/Desktop/github/iot-fan_at_cnblogs/CH577_CH578_CH579/AN/CH579EVT_USB_DISK_TEST/SRC/StdPeriphDriver/CH57x_clk.c:63
*******************************************************************************/
void SYS_ClkINT32MPon(void)
{
    uint32_t i;

    R8_SAFE_ACCESS_SIG = SAFE_ACCESS_SIG1;
    3194:	2257      	movs	r2, #87	; 0x57
    3196:	4b08      	ldr	r3, [pc, #32]	; (31b8 <SYS_ClkINT32MPon+0x24>)
C:/Users/alon/Desktop/github/iot-fan_at_cnblogs/CH577_CH578_CH579/AN/CH579EVT_USB_DISK_TEST/SRC/StdPeriphDriver/CH57x_clk.c:65
    R8_SAFE_ACCESS_SIG = SAFE_ACCESS_SIG2;
    R8_HFCK_PWR_CTRL |= RB_CLK_INT32M_PON;
    3198:	4908      	ldr	r1, [pc, #32]	; (31bc <SYS_ClkINT32MPon+0x28>)
C:/Users/alon/Desktop/github/iot-fan_at_cnblogs/CH577_CH578_CH579/AN/CH579EVT_USB_DISK_TEST/SRC/StdPeriphDriver/CH57x_clk.c:63
    R8_SAFE_ACCESS_SIG = SAFE_ACCESS_SIG1;
    319a:	701a      	strb	r2, [r3, #0]
C:/Users/alon/Desktop/github/iot-fan_at_cnblogs/CH577_CH578_CH579/AN/CH579EVT_USB_DISK_TEST/SRC/StdPeriphDriver/CH57x_clk.c:64
    R8_SAFE_ACCESS_SIG = SAFE_ACCESS_SIG2;
    319c:	3251      	adds	r2, #81	; 0x51
    319e:	701a      	strb	r2, [r3, #0]
C:/Users/alon/Desktop/github/iot-fan_at_cnblogs/CH577_CH578_CH579/AN/CH579EVT_USB_DISK_TEST/SRC/StdPeriphDriver/CH57x_clk.c:65
    R8_HFCK_PWR_CTRL |= RB_CLK_INT32M_PON;
    31a0:	7808      	ldrb	r0, [r1, #0]
    31a2:	3aa0      	subs	r2, #160	; 0xa0
    31a4:	4302      	orrs	r2, r0
    31a6:	700a      	strb	r2, [r1, #0]
C:/Users/alon/Desktop/github/iot-fan_at_cnblogs/CH577_CH578_CH579/AN/CH579EVT_USB_DISK_TEST/SRC/StdPeriphDriver/CH57x_clk.c:66
    R8_SAFE_ACCESS_SIG = 0;
    31a8:	2200      	movs	r2, #0
    31aa:	701a      	strb	r2, [r3, #0]
__NOP():
C:\Users\alon\Desktop\github\iot-fan_at_cnblogs\CH577_CH578_CH579\AN\CH579EVT_USB_DISK_TEST\SRC\CMSIS\Include/core_cmInstr.h:390
    31ac:	46c0      	nop			; (mov r8, r8)
    31ae:	46c0      	nop			; (mov r8, r8)
    31b0:	46c0      	nop			; (mov r8, r8)
    31b2:	46c0      	nop			; (mov r8, r8)
SYS_ClkINT32MPon():
C:/Users/alon/Desktop/github/iot-fan_at_cnblogs/CH577_CH578_CH579/AN/CH579EVT_USB_DISK_TEST/SRC/StdPeriphDriver/CH57x_clk.c:72

    /* “‘40MHz ±÷”º∆À„1us—” ± ±º‰ */
    for (i = 0; i < 4; i++) {
        __NOP();
    }
}
    31b4:	4770      	bx	lr
    31b6:	46c0      	nop			; (mov r8, r8)
    31b8:	40001040 	.word	0x40001040
    31bc:	4000100a 	.word	0x4000100a

000031c0 <SYS_PLLPon>:
SYS_PLLPon():
C:/Users/alon/Desktop/github/iot-fan_at_cnblogs/CH577_CH578_CH579/AN/CH579EVT_USB_DISK_TEST/SRC/StdPeriphDriver/CH57x_clk.c:84
*******************************************************************************/
void SYS_PLLPon(void)
{
    uint32_t i, j;

    R8_SAFE_ACCESS_SIG = SAFE_ACCESS_SIG1;
    31c0:	2257      	movs	r2, #87	; 0x57
    31c2:	4b0a      	ldr	r3, [pc, #40]	; (31ec <SYS_PLLPon+0x2c>)
C:/Users/alon/Desktop/github/iot-fan_at_cnblogs/CH577_CH578_CH579/AN/CH579EVT_USB_DISK_TEST/SRC/StdPeriphDriver/CH57x_clk.c:86
    R8_SAFE_ACCESS_SIG = SAFE_ACCESS_SIG2;
    R8_HFCK_PWR_CTRL |= RB_CLK_PLL_PON;
    31c4:	490a      	ldr	r1, [pc, #40]	; (31f0 <SYS_PLLPon+0x30>)
C:/Users/alon/Desktop/github/iot-fan_at_cnblogs/CH577_CH578_CH579/AN/CH579EVT_USB_DISK_TEST/SRC/StdPeriphDriver/CH57x_clk.c:84
    R8_SAFE_ACCESS_SIG = SAFE_ACCESS_SIG1;
    31c6:	701a      	strb	r2, [r3, #0]
C:/Users/alon/Desktop/github/iot-fan_at_cnblogs/CH577_CH578_CH579/AN/CH579EVT_USB_DISK_TEST/SRC/StdPeriphDriver/CH57x_clk.c:85
    R8_SAFE_ACCESS_SIG = SAFE_ACCESS_SIG2;
    31c8:	3251      	adds	r2, #81	; 0x51
    31ca:	701a      	strb	r2, [r3, #0]
C:/Users/alon/Desktop/github/iot-fan_at_cnblogs/CH577_CH578_CH579/AN/CH579EVT_USB_DISK_TEST/SRC/StdPeriphDriver/CH57x_clk.c:86
    R8_HFCK_PWR_CTRL |= RB_CLK_PLL_PON;
    31cc:	7808      	ldrb	r0, [r1, #0]
    31ce:	3a98      	subs	r2, #152	; 0x98
    31d0:	4302      	orrs	r2, r0
    31d2:	700a      	strb	r2, [r1, #0]
C:/Users/alon/Desktop/github/iot-fan_at_cnblogs/CH577_CH578_CH579/AN/CH579EVT_USB_DISK_TEST/SRC/StdPeriphDriver/CH57x_clk.c:87
    R8_SAFE_ACCESS_SIG = 0;  
    31d4:	2200      	movs	r2, #0
    31d6:	701a      	strb	r2, [r3, #0]
    31d8:	4b06      	ldr	r3, [pc, #24]	; (31f4 <SYS_PLLPon+0x34>)
__NOP():
C:\Users\alon\Desktop\github\iot-fan_at_cnblogs\CH577_CH578_CH579\AN\CH579EVT_USB_DISK_TEST\SRC\CMSIS\Include/core_cmInstr.h:390
    31da:	46c0      	nop			; (mov r8, r8)
    31dc:	46c0      	nop			; (mov r8, r8)
    31de:	46c0      	nop			; (mov r8, r8)
    31e0:	46c0      	nop			; (mov r8, r8)
SYS_PLLPon():
C:/Users/alon/Desktop/github/iot-fan_at_cnblogs/CH577_CH578_CH579/AN/CH579EVT_USB_DISK_TEST/SRC/StdPeriphDriver/CH57x_clk.c:90

    /* “‘40MHz ±÷”º∆À„3000us—” ± ±º‰ */
    for (i = 0; i < 3000; i++) {
    31e2:	3b01      	subs	r3, #1
    31e4:	2b00      	cmp	r3, #0
    31e6:	d1f8      	bne.n	31da <SYS_PLLPon+0x1a>
C:/Users/alon/Desktop/github/iot-fan_at_cnblogs/CH577_CH578_CH579/AN/CH579EVT_USB_DISK_TEST/SRC/StdPeriphDriver/CH57x_clk.c:95
        for (j = 0; j < 4; j++) {
            __NOP();
        }
    }
}
    31e8:	4770      	bx	lr
    31ea:	46c0      	nop			; (mov r8, r8)
    31ec:	40001040 	.word	0x40001040
    31f0:	4000100a 	.word	0x4000100a
    31f4:	00000bb8 	.word	0x00000bb8

000031f8 <GetSysClock>:
GetSysClock():
C:/Users/alon/Desktop/github/iot-fan_at_cnblogs/CH577_CH578_CH579/AN/CH579EVT_USB_DISK_TEST/SRC/StdPeriphDriver/CH57x_clk.c:262
*******************************************************************************/
UINT32 GetSysClock( void )
{
	UINT16  rev;
	
	rev = R16_CLK_SYS_CFG & 0xff;		
    31f8:	22c0      	movs	r2, #192	; 0xc0
    31fa:	4b0d      	ldr	r3, [pc, #52]	; (3230 <GetSysClock+0x38>)
C:/Users/alon/Desktop/github/iot-fan_at_cnblogs/CH577_CH578_CH579/AN/CH579EVT_USB_DISK_TEST/SRC/StdPeriphDriver/CH57x_clk.c:259
{
    31fc:	b510      	push	{r4, lr}
C:/Users/alon/Desktop/github/iot-fan_at_cnblogs/CH577_CH578_CH579/AN/CH579EVT_USB_DISK_TEST/SRC/StdPeriphDriver/CH57x_clk.c:262
	rev = R16_CLK_SYS_CFG & 0xff;		
    31fe:	881b      	ldrh	r3, [r3, #0]
    3200:	b299      	uxth	r1, r3
C:/Users/alon/Desktop/github/iot-fan_at_cnblogs/CH577_CH578_CH579/AN/CH579EVT_USB_DISK_TEST/SRC/StdPeriphDriver/CH57x_clk.c:263
	if( (rev & RB_CLK_SYS_MOD) == (2<<6) ){				// 32M◊ˆ÷˜∆µ
    3202:	4013      	ands	r3, r2
    3204:	2b80      	cmp	r3, #128	; 0x80
    3206:	d00d      	beq.n	3224 <GetSysClock+0x2c>
C:/Users/alon/Desktop/github/iot-fan_at_cnblogs/CH577_CH578_CH579/AN/CH579EVT_USB_DISK_TEST/SRC/StdPeriphDriver/CH57x_clk.c:266
	    return (32000000);
	}
	else if( (rev & RB_CLK_SYS_MOD) == (1<<6) ){		// PLLΩ¯––∑÷∆µ
    3208:	2b40      	cmp	r3, #64	; 0x40
    320a:	d105      	bne.n	3218 <GetSysClock+0x20>
C:/Users/alon/Desktop/github/iot-fan_at_cnblogs/CH577_CH578_CH579/AN/CH579EVT_USB_DISK_TEST/SRC/StdPeriphDriver/CH57x_clk.c:267
	    return (480000000/(rev&0x1f));		
    320c:	3b21      	subs	r3, #33	; 0x21
    320e:	4809      	ldr	r0, [pc, #36]	; (3234 <GetSysClock+0x3c>)
    3210:	4019      	ands	r1, r3
C:/Users/alon/Desktop/github/iot-fan_at_cnblogs/CH577_CH578_CH579/AN/CH579EVT_USB_DISK_TEST/SRC/StdPeriphDriver/CH57x_clk.c:270
	}
	else if( (rev & RB_CLK_SYS_MOD) == (0<<6) ){		// 32MΩ¯––∑÷∆µ
		return (32000000/(rev&0x1f));	
    3212:	f7fc ffe5 	bl	1e0 <__divsi3>
C:/Users/alon/Desktop/github/iot-fan_at_cnblogs/CH577_CH578_CH579/AN/CH579EVT_USB_DISK_TEST/SRC/StdPeriphDriver/CH57x_clk.c:275
	}
	else {												// 32K◊ˆ÷˜∆µ
		return (32000);
	}	
}
    3216:	bd10      	pop	{r4, pc}
C:/Users/alon/Desktop/github/iot-fan_at_cnblogs/CH577_CH578_CH579/AN/CH579EVT_USB_DISK_TEST/SRC/StdPeriphDriver/CH57x_clk.c:269
	else if( (rev & RB_CLK_SYS_MOD) == (0<<6) ){		// 32MΩ¯––∑÷∆µ
    3218:	2b00      	cmp	r3, #0
    321a:	d105      	bne.n	3228 <GetSysClock+0x30>
C:/Users/alon/Desktop/github/iot-fan_at_cnblogs/CH577_CH578_CH579/AN/CH579EVT_USB_DISK_TEST/SRC/StdPeriphDriver/CH57x_clk.c:270
		return (32000000/(rev&0x1f));	
    321c:	331f      	adds	r3, #31
    321e:	4806      	ldr	r0, [pc, #24]	; (3238 <GetSysClock+0x40>)
    3220:	4019      	ands	r1, r3
    3222:	e7f6      	b.n	3212 <GetSysClock+0x1a>
C:/Users/alon/Desktop/github/iot-fan_at_cnblogs/CH577_CH578_CH579/AN/CH579EVT_USB_DISK_TEST/SRC/StdPeriphDriver/CH57x_clk.c:264
	    return (32000000);
    3224:	4804      	ldr	r0, [pc, #16]	; (3238 <GetSysClock+0x40>)
    3226:	e7f6      	b.n	3216 <GetSysClock+0x1e>
C:/Users/alon/Desktop/github/iot-fan_at_cnblogs/CH577_CH578_CH579/AN/CH579EVT_USB_DISK_TEST/SRC/StdPeriphDriver/CH57x_clk.c:273
		return (32000);
    3228:	20fa      	movs	r0, #250	; 0xfa
    322a:	01c0      	lsls	r0, r0, #7
    322c:	e7f3      	b.n	3216 <GetSysClock+0x1e>
    322e:	46c0      	nop			; (mov r8, r8)
    3230:	40001008 	.word	0x40001008
    3234:	1c9c3800 	.word	0x1c9c3800
    3238:	01e84800 	.word	0x01e84800

0000323c <LClk32k_Power>:
LClk32k_Power():
C:/Users/alon/Desktop/github/iot-fan_at_cnblogs/CH577_CH578_CH579/AN/CH579EVT_USB_DISK_TEST/SRC/StdPeriphDriver/CH57x_clk.c:305
					Clk32K_LSI   -   —°‘Òƒ⁄≤ø32K
					Clk32K_LSE   -   —°‘ÒÕ‚≤ø32K
* Return         : None
*******************************************************************************/
void LClk32k_Power(LClk32KTypeDef hc, bool enable)
{
    323c:	b510      	push	{r4, lr}
C:/Users/alon/Desktop/github/iot-fan_at_cnblogs/CH577_CH578_CH579/AN/CH579EVT_USB_DISK_TEST/SRC/StdPeriphDriver/CH57x_clk.c:307
    uint8_t clk_pin;
    if (enable) {
    323e:	2900      	cmp	r1, #0
    3240:	d025      	beq.n	328e <LClk32k_Power+0x52>
C:/Users/alon/Desktop/github/iot-fan_at_cnblogs/CH577_CH578_CH579/AN/CH579EVT_USB_DISK_TEST/SRC/StdPeriphDriver/CH57x_clk.c:308
        if (hc == Clk32K_LSI) {
    3242:	4b20      	ldr	r3, [pc, #128]	; (32c4 <LClk32k_Power+0x88>)
    3244:	2800      	cmp	r0, #0
    3246:	d115      	bne.n	3274 <LClk32k_Power+0x38>
C:/Users/alon/Desktop/github/iot-fan_at_cnblogs/CH577_CH578_CH579/AN/CH579EVT_USB_DISK_TEST/SRC/StdPeriphDriver/CH57x_clk.c:309
            R8_SAFE_ACCESS_SIG = SAFE_ACCESS_SIG1;		
    3248:	2157      	movs	r1, #87	; 0x57
    324a:	4a1f      	ldr	r2, [pc, #124]	; (32c8 <LClk32k_Power+0x8c>)
    324c:	7011      	strb	r1, [r2, #0]
C:/Users/alon/Desktop/github/iot-fan_at_cnblogs/CH577_CH578_CH579/AN/CH579EVT_USB_DISK_TEST/SRC/StdPeriphDriver/CH57x_clk.c:310
            R8_SAFE_ACCESS_SIG = SAFE_ACCESS_SIG2;	
    324e:	3151      	adds	r1, #81	; 0x51
    3250:	7011      	strb	r1, [r2, #0]
C:/Users/alon/Desktop/github/iot-fan_at_cnblogs/CH577_CH578_CH579/AN/CH579EVT_USB_DISK_TEST/SRC/StdPeriphDriver/CH57x_clk.c:311
            R8_CK32K_CONFIG |= RB_CLK_INT32K_PON;
    3252:	781c      	ldrb	r4, [r3, #0]
    3254:	39a6      	subs	r1, #166	; 0xa6
    3256:	4321      	orrs	r1, r4
    3258:	7019      	strb	r1, [r3, #0]
C:/Users/alon/Desktop/github/iot-fan_at_cnblogs/CH577_CH578_CH579/AN/CH579EVT_USB_DISK_TEST/SRC/StdPeriphDriver/CH57x_clk.c:312
            R8_SAFE_ACCESS_SIG = 0;
    325a:	7010      	strb	r0, [r2, #0]
C:/Users/alon/Desktop/github/iot-fan_at_cnblogs/CH577_CH578_CH579/AN/CH579EVT_USB_DISK_TEST/SRC/StdPeriphDriver/CH57x_clk.c:322 (discriminator 3)
            R8_SAFE_ACCESS_SIG = 0; 
        }

        do {
            clk_pin = (R8_CK32K_CONFIG & RB_32K_CLK_PIN);
        } while ((clk_pin != (R8_CK32K_CONFIG & RB_32K_CLK_PIN)) || (!clk_pin)); 
    325c:	247f      	movs	r4, #127	; 0x7f
C:/Users/alon/Desktop/github/iot-fan_at_cnblogs/CH577_CH578_CH579/AN/CH579EVT_USB_DISK_TEST/SRC/StdPeriphDriver/CH57x_clk.c:321 (discriminator 3)
            clk_pin = (R8_CK32K_CONFIG & RB_32K_CLK_PIN);
    325e:	781a      	ldrb	r2, [r3, #0]
C:/Users/alon/Desktop/github/iot-fan_at_cnblogs/CH577_CH578_CH579/AN/CH579EVT_USB_DISK_TEST/SRC/StdPeriphDriver/CH57x_clk.c:322 (discriminator 3)
        } while ((clk_pin != (R8_CK32K_CONFIG & RB_32K_CLK_PIN)) || (!clk_pin)); 
    3260:	7818      	ldrb	r0, [r3, #0]
C:/Users/alon/Desktop/github/iot-fan_at_cnblogs/CH577_CH578_CH579/AN/CH579EVT_USB_DISK_TEST/SRC/StdPeriphDriver/CH57x_clk.c:321 (discriminator 3)
            clk_pin = (R8_CK32K_CONFIG & RB_32K_CLK_PIN);
    3262:	b2d1      	uxtb	r1, r2
C:/Users/alon/Desktop/github/iot-fan_at_cnblogs/CH577_CH578_CH579/AN/CH579EVT_USB_DISK_TEST/SRC/StdPeriphDriver/CH57x_clk.c:322 (discriminator 3)
        } while ((clk_pin != (R8_CK32K_CONFIG & RB_32K_CLK_PIN)) || (!clk_pin)); 
    3264:	43a0      	bics	r0, r4
    3266:	43a2      	bics	r2, r4
    3268:	4290      	cmp	r0, r2
    326a:	d1f8      	bne.n	325e <LClk32k_Power+0x22>
C:/Users/alon/Desktop/github/iot-fan_at_cnblogs/CH577_CH578_CH579/AN/CH579EVT_USB_DISK_TEST/SRC/StdPeriphDriver/CH57x_clk.c:322 (discriminator 2)
    326c:	b249      	sxtb	r1, r1
    326e:	2900      	cmp	r1, #0
    3270:	daf5      	bge.n	325e <LClk32k_Power+0x22>
C:/Users/alon/Desktop/github/iot-fan_at_cnblogs/CH577_CH578_CH579/AN/CH579EVT_USB_DISK_TEST/SRC/StdPeriphDriver/CH57x_clk.c:336
            R8_SAFE_ACCESS_SIG = SAFE_ACCESS_SIG2;	
            R8_CK32K_CONFIG &= ~RB_CLK_XT32K_PON;
            R8_SAFE_ACCESS_SIG = 0; 
        }
    }
}
    3272:	bd10      	pop	{r4, pc}
C:/Users/alon/Desktop/github/iot-fan_at_cnblogs/CH577_CH578_CH579/AN/CH579EVT_USB_DISK_TEST/SRC/StdPeriphDriver/CH57x_clk.c:313
        } else if (hc == Clk32K_LSE) {
    3274:	2801      	cmp	r0, #1
    3276:	d1f1      	bne.n	325c <LClk32k_Power+0x20>
C:/Users/alon/Desktop/github/iot-fan_at_cnblogs/CH577_CH578_CH579/AN/CH579EVT_USB_DISK_TEST/SRC/StdPeriphDriver/CH57x_clk.c:314
            R8_SAFE_ACCESS_SIG = SAFE_ACCESS_SIG1;		
    3278:	2157      	movs	r1, #87	; 0x57
    327a:	4a13      	ldr	r2, [pc, #76]	; (32c8 <LClk32k_Power+0x8c>)
    327c:	7011      	strb	r1, [r2, #0]
C:/Users/alon/Desktop/github/iot-fan_at_cnblogs/CH577_CH578_CH579/AN/CH579EVT_USB_DISK_TEST/SRC/StdPeriphDriver/CH57x_clk.c:315
            R8_SAFE_ACCESS_SIG = SAFE_ACCESS_SIG2;	
    327e:	3151      	adds	r1, #81	; 0x51
    3280:	7011      	strb	r1, [r2, #0]
C:/Users/alon/Desktop/github/iot-fan_at_cnblogs/CH577_CH578_CH579/AN/CH579EVT_USB_DISK_TEST/SRC/StdPeriphDriver/CH57x_clk.c:316
            R8_CK32K_CONFIG |= RB_CLK_XT32K_PON;
    3282:	7819      	ldrb	r1, [r3, #0]
    3284:	4308      	orrs	r0, r1
C:/Users/alon/Desktop/github/iot-fan_at_cnblogs/CH577_CH578_CH579/AN/CH579EVT_USB_DISK_TEST/SRC/StdPeriphDriver/CH57x_clk.c:317
            R8_SAFE_ACCESS_SIG = 0; 
    3286:	2100      	movs	r1, #0
C:/Users/alon/Desktop/github/iot-fan_at_cnblogs/CH577_CH578_CH579/AN/CH579EVT_USB_DISK_TEST/SRC/StdPeriphDriver/CH57x_clk.c:316
            R8_CK32K_CONFIG |= RB_CLK_XT32K_PON;
    3288:	7018      	strb	r0, [r3, #0]
C:/Users/alon/Desktop/github/iot-fan_at_cnblogs/CH577_CH578_CH579/AN/CH579EVT_USB_DISK_TEST/SRC/StdPeriphDriver/CH57x_clk.c:317
            R8_SAFE_ACCESS_SIG = 0; 
    328a:	7011      	strb	r1, [r2, #0]
    328c:	e7e6      	b.n	325c <LClk32k_Power+0x20>
C:/Users/alon/Desktop/github/iot-fan_at_cnblogs/CH577_CH578_CH579/AN/CH579EVT_USB_DISK_TEST/SRC/StdPeriphDriver/CH57x_clk.c:324
        if (hc == Clk32K_LSI) {
    328e:	2800      	cmp	r0, #0
    3290:	d10b      	bne.n	32aa <LClk32k_Power+0x6e>
C:/Users/alon/Desktop/github/iot-fan_at_cnblogs/CH577_CH578_CH579/AN/CH579EVT_USB_DISK_TEST/SRC/StdPeriphDriver/CH57x_clk.c:325
            R8_SAFE_ACCESS_SIG = SAFE_ACCESS_SIG1;		
    3292:	2257      	movs	r2, #87	; 0x57
C:/Users/alon/Desktop/github/iot-fan_at_cnblogs/CH577_CH578_CH579/AN/CH579EVT_USB_DISK_TEST/SRC/StdPeriphDriver/CH57x_clk.c:327
            R8_CK32K_CONFIG &= ~RB_CLK_INT32K_PON;
    3294:	2402      	movs	r4, #2
C:/Users/alon/Desktop/github/iot-fan_at_cnblogs/CH577_CH578_CH579/AN/CH579EVT_USB_DISK_TEST/SRC/StdPeriphDriver/CH57x_clk.c:325
            R8_SAFE_ACCESS_SIG = SAFE_ACCESS_SIG1;		
    3296:	4b0c      	ldr	r3, [pc, #48]	; (32c8 <LClk32k_Power+0x8c>)
C:/Users/alon/Desktop/github/iot-fan_at_cnblogs/CH577_CH578_CH579/AN/CH579EVT_USB_DISK_TEST/SRC/StdPeriphDriver/CH57x_clk.c:327
            R8_CK32K_CONFIG &= ~RB_CLK_INT32K_PON;
    3298:	490a      	ldr	r1, [pc, #40]	; (32c4 <LClk32k_Power+0x88>)
C:/Users/alon/Desktop/github/iot-fan_at_cnblogs/CH577_CH578_CH579/AN/CH579EVT_USB_DISK_TEST/SRC/StdPeriphDriver/CH57x_clk.c:325
            R8_SAFE_ACCESS_SIG = SAFE_ACCESS_SIG1;		
    329a:	701a      	strb	r2, [r3, #0]
C:/Users/alon/Desktop/github/iot-fan_at_cnblogs/CH577_CH578_CH579/AN/CH579EVT_USB_DISK_TEST/SRC/StdPeriphDriver/CH57x_clk.c:326
            R8_SAFE_ACCESS_SIG = SAFE_ACCESS_SIG2;	
    329c:	3251      	adds	r2, #81	; 0x51
    329e:	701a      	strb	r2, [r3, #0]
C:/Users/alon/Desktop/github/iot-fan_at_cnblogs/CH577_CH578_CH579/AN/CH579EVT_USB_DISK_TEST/SRC/StdPeriphDriver/CH57x_clk.c:327
            R8_CK32K_CONFIG &= ~RB_CLK_INT32K_PON;
    32a0:	780a      	ldrb	r2, [r1, #0]
    32a2:	43a2      	bics	r2, r4
    32a4:	700a      	strb	r2, [r1, #0]
C:/Users/alon/Desktop/github/iot-fan_at_cnblogs/CH577_CH578_CH579/AN/CH579EVT_USB_DISK_TEST/SRC/StdPeriphDriver/CH57x_clk.c:328
            R8_SAFE_ACCESS_SIG = 0;
    32a6:	7018      	strb	r0, [r3, #0]
    32a8:	e7e3      	b.n	3272 <LClk32k_Power+0x36>
C:/Users/alon/Desktop/github/iot-fan_at_cnblogs/CH577_CH578_CH579/AN/CH579EVT_USB_DISK_TEST/SRC/StdPeriphDriver/CH57x_clk.c:329
        } else if (hc == Clk32K_LSE) {
    32aa:	2801      	cmp	r0, #1
    32ac:	d1e1      	bne.n	3272 <LClk32k_Power+0x36>
C:/Users/alon/Desktop/github/iot-fan_at_cnblogs/CH577_CH578_CH579/AN/CH579EVT_USB_DISK_TEST/SRC/StdPeriphDriver/CH57x_clk.c:330
            R8_SAFE_ACCESS_SIG = SAFE_ACCESS_SIG1;		
    32ae:	2257      	movs	r2, #87	; 0x57
    32b0:	4b05      	ldr	r3, [pc, #20]	; (32c8 <LClk32k_Power+0x8c>)
C:/Users/alon/Desktop/github/iot-fan_at_cnblogs/CH577_CH578_CH579/AN/CH579EVT_USB_DISK_TEST/SRC/StdPeriphDriver/CH57x_clk.c:332
            R8_CK32K_CONFIG &= ~RB_CLK_XT32K_PON;
    32b2:	4c04      	ldr	r4, [pc, #16]	; (32c4 <LClk32k_Power+0x88>)
C:/Users/alon/Desktop/github/iot-fan_at_cnblogs/CH577_CH578_CH579/AN/CH579EVT_USB_DISK_TEST/SRC/StdPeriphDriver/CH57x_clk.c:330
            R8_SAFE_ACCESS_SIG = SAFE_ACCESS_SIG1;		
    32b4:	701a      	strb	r2, [r3, #0]
C:/Users/alon/Desktop/github/iot-fan_at_cnblogs/CH577_CH578_CH579/AN/CH579EVT_USB_DISK_TEST/SRC/StdPeriphDriver/CH57x_clk.c:331
            R8_SAFE_ACCESS_SIG = SAFE_ACCESS_SIG2;	
    32b6:	3251      	adds	r2, #81	; 0x51
    32b8:	701a      	strb	r2, [r3, #0]
C:/Users/alon/Desktop/github/iot-fan_at_cnblogs/CH577_CH578_CH579/AN/CH579EVT_USB_DISK_TEST/SRC/StdPeriphDriver/CH57x_clk.c:332
            R8_CK32K_CONFIG &= ~RB_CLK_XT32K_PON;
    32ba:	7822      	ldrb	r2, [r4, #0]
    32bc:	4382      	bics	r2, r0
    32be:	7022      	strb	r2, [r4, #0]
C:/Users/alon/Desktop/github/iot-fan_at_cnblogs/CH577_CH578_CH579/AN/CH579EVT_USB_DISK_TEST/SRC/StdPeriphDriver/CH57x_clk.c:333
            R8_SAFE_ACCESS_SIG = 0; 
    32c0:	7019      	strb	r1, [r3, #0]
C:/Users/alon/Desktop/github/iot-fan_at_cnblogs/CH577_CH578_CH579/AN/CH579EVT_USB_DISK_TEST/SRC/StdPeriphDriver/CH57x_clk.c:336
}
    32c2:	e7d6      	b.n	3272 <LClk32k_Power+0x36>
    32c4:	4000102f 	.word	0x4000102f
    32c8:	40001040 	.word	0x40001040

000032cc <LClk32K_Select>:
LClk32K_Select():
C:/Users/alon/Desktop/github/iot-fan_at_cnblogs/CH577_CH578_CH579/AN/CH579EVT_USB_DISK_TEST/SRC/StdPeriphDriver/CH57x_clk.c:348
					Clk32K_LSE   -   —°‘ÒÕ‚≤ø32K
* Return         : None
*******************************************************************************/
void LClk32K_Select( LClk32KTypeDef hc)
{
    LClk32k_Power(hc, true);
    32cc:	2101      	movs	r1, #1
C:/Users/alon/Desktop/github/iot-fan_at_cnblogs/CH577_CH578_CH579/AN/CH579EVT_USB_DISK_TEST/SRC/StdPeriphDriver/CH57x_clk.c:347
{
    32ce:	b510      	push	{r4, lr}
    32d0:	0004      	movs	r4, r0
C:/Users/alon/Desktop/github/iot-fan_at_cnblogs/CH577_CH578_CH579/AN/CH579EVT_USB_DISK_TEST/SRC/StdPeriphDriver/CH57x_clk.c:348
    LClk32k_Power(hc, true);
    32d2:	f7ff ffb3 	bl	323c <LClk32k_Power>
C:/Users/alon/Desktop/github/iot-fan_at_cnblogs/CH577_CH578_CH579/AN/CH579EVT_USB_DISK_TEST/SRC/StdPeriphDriver/CH57x_clk.c:350

    R8_SAFE_ACCESS_SIG = SAFE_ACCESS_SIG1;		
    32d6:	2257      	movs	r2, #87	; 0x57
    32d8:	4b08      	ldr	r3, [pc, #32]	; (32fc <LClk32K_Select+0x30>)
    32da:	2104      	movs	r1, #4
    32dc:	701a      	strb	r2, [r3, #0]
C:/Users/alon/Desktop/github/iot-fan_at_cnblogs/CH577_CH578_CH579/AN/CH579EVT_USB_DISK_TEST/SRC/StdPeriphDriver/CH57x_clk.c:351
    R8_SAFE_ACCESS_SIG = SAFE_ACCESS_SIG2;	
    32de:	3251      	adds	r2, #81	; 0x51
    32e0:	701a      	strb	r2, [r3, #0]
C:/Users/alon/Desktop/github/iot-fan_at_cnblogs/CH577_CH578_CH579/AN/CH579EVT_USB_DISK_TEST/SRC/StdPeriphDriver/CH57x_clk.c:352
    if( hc == Clk32K_LSI)
    32e2:	4a07      	ldr	r2, [pc, #28]	; (3300 <LClk32K_Select+0x34>)
C:/Users/alon/Desktop/github/iot-fan_at_cnblogs/CH577_CH578_CH579/AN/CH579EVT_USB_DISK_TEST/SRC/StdPeriphDriver/CH57x_clk.c:353
        R8_CK32K_CONFIG &= ~RB_CLK_OSC32K_XT;
    32e4:	7810      	ldrb	r0, [r2, #0]
C:/Users/alon/Desktop/github/iot-fan_at_cnblogs/CH577_CH578_CH579/AN/CH579EVT_USB_DISK_TEST/SRC/StdPeriphDriver/CH57x_clk.c:352
    if( hc == Clk32K_LSI)
    32e6:	2c00      	cmp	r4, #0
    32e8:	d104      	bne.n	32f4 <LClk32K_Select+0x28>
C:/Users/alon/Desktop/github/iot-fan_at_cnblogs/CH577_CH578_CH579/AN/CH579EVT_USB_DISK_TEST/SRC/StdPeriphDriver/CH57x_clk.c:353
        R8_CK32K_CONFIG &= ~RB_CLK_OSC32K_XT;
    32ea:	4388      	bics	r0, r1
    32ec:	7010      	strb	r0, [r2, #0]
C:/Users/alon/Desktop/github/iot-fan_at_cnblogs/CH577_CH578_CH579/AN/CH579EVT_USB_DISK_TEST/SRC/StdPeriphDriver/CH57x_clk.c:356
    else
        R8_CK32K_CONFIG |= RB_CLK_OSC32K_XT;
    R8_SAFE_ACCESS_SIG = 0;
    32ee:	2200      	movs	r2, #0
    32f0:	701a      	strb	r2, [r3, #0]
C:/Users/alon/Desktop/github/iot-fan_at_cnblogs/CH577_CH578_CH579/AN/CH579EVT_USB_DISK_TEST/SRC/StdPeriphDriver/CH57x_clk.c:357
}
    32f2:	bd10      	pop	{r4, pc}
C:/Users/alon/Desktop/github/iot-fan_at_cnblogs/CH577_CH578_CH579/AN/CH579EVT_USB_DISK_TEST/SRC/StdPeriphDriver/CH57x_clk.c:355
        R8_CK32K_CONFIG |= RB_CLK_OSC32K_XT;
    32f4:	4301      	orrs	r1, r0
    32f6:	7011      	strb	r1, [r2, #0]
    32f8:	e7f9      	b.n	32ee <LClk32K_Select+0x22>
    32fa:	46c0      	nop			; (mov r8, r8)
    32fc:	40001040 	.word	0x40001040
    3300:	4000102f 	.word	0x4000102f

00003304 <SetSysClock>:
SetSysClock():
C:/Users/alon/Desktop/github/iot-fan_at_cnblogs/CH577_CH578_CH579/AN/CH579EVT_USB_DISK_TEST/SRC/StdPeriphDriver/CH57x_clk.c:104
{
    3304:	b570      	push	{r4, r5, r6, lr}
    3306:	4c62      	ldr	r4, [pc, #392]	; (3490 <SetSysClock+0x18c>)
    3308:	280c      	cmp	r0, #12
    330a:	d84a      	bhi.n	33a2 <SetSysClock+0x9e>
    330c:	2657      	movs	r6, #87	; 0x57
    330e:	4d61      	ldr	r5, [pc, #388]	; (3494 <SetSysClock+0x190>)
    3310:	f7fc fec8 	bl	a4 <__gnu_thumb1_case_uqi>
    3314:	1f121007 	.word	0x1f121007
    3318:	564a372b 	.word	0x564a372b
    331c:	9a887664 	.word	0x9a887664
    3320:	ac          	.byte	0xac
    3321:	00          	.byte	0x00
C:/Users/alon/Desktop/github/iot-fan_at_cnblogs/CH577_CH578_CH579/AN/CH579EVT_USB_DISK_TEST/SRC/StdPeriphDriver/CH57x_clk.c:108
            LClk32K_Select(Clk32K_LSI);
    3322:	2000      	movs	r0, #0
C:/Users/alon/Desktop/github/iot-fan_at_cnblogs/CH577_CH578_CH579/AN/CH579EVT_USB_DISK_TEST/SRC/StdPeriphDriver/CH57x_clk.c:114
            LClk32K_Select(Clk32K_LSE);
    3324:	f7ff ffd2 	bl	32cc <LClk32K_Select>
C:/Users/alon/Desktop/github/iot-fan_at_cnblogs/CH577_CH578_CH579/AN/CH579EVT_USB_DISK_TEST/SRC/StdPeriphDriver/CH57x_clk.c:116
            R8_SAFE_ACCESS_SIG = SAFE_ACCESS_SIG2;
    3328:	23a8      	movs	r3, #168	; 0xa8
C:/Users/alon/Desktop/github/iot-fan_at_cnblogs/CH577_CH578_CH579/AN/CH579EVT_USB_DISK_TEST/SRC/StdPeriphDriver/CH57x_clk.c:115
            R8_SAFE_ACCESS_SIG = SAFE_ACCESS_SIG1;
    332a:	7026      	strb	r6, [r4, #0]
C:/Users/alon/Desktop/github/iot-fan_at_cnblogs/CH577_CH578_CH579/AN/CH579EVT_USB_DISK_TEST/SRC/StdPeriphDriver/CH57x_clk.c:116
            R8_SAFE_ACCESS_SIG = SAFE_ACCESS_SIG2;
    332c:	7023      	strb	r3, [r4, #0]
C:/Users/alon/Desktop/github/iot-fan_at_cnblogs/CH577_CH578_CH579/AN/CH579EVT_USB_DISK_TEST/SRC/StdPeriphDriver/CH57x_clk.c:117
            R16_CLK_SYS_CFG = (3 << 6) | 0x08;
    332e:	3320      	adds	r3, #32
C:/Users/alon/Desktop/github/iot-fan_at_cnblogs/CH577_CH578_CH579/AN/CH579EVT_USB_DISK_TEST/SRC/StdPeriphDriver/CH57x_clk.c:244
            R16_CLK_SYS_CFG = RB_CLK_OSC32M_XT | (1 << 6) | 30;
    3330:	802b      	strh	r3, [r5, #0]
C:/Users/alon/Desktop/github/iot-fan_at_cnblogs/CH577_CH578_CH579/AN/CH579EVT_USB_DISK_TEST/SRC/StdPeriphDriver/CH57x_clk.c:245
            break;
    3332:	e036      	b.n	33a2 <SetSysClock+0x9e>
C:/Users/alon/Desktop/github/iot-fan_at_cnblogs/CH577_CH578_CH579/AN/CH579EVT_USB_DISK_TEST/SRC/StdPeriphDriver/CH57x_clk.c:114
            LClk32K_Select(Clk32K_LSE);
    3334:	2001      	movs	r0, #1
    3336:	e7f5      	b.n	3324 <SetSysClock+0x20>
C:/Users/alon/Desktop/github/iot-fan_at_cnblogs/CH577_CH578_CH579/AN/CH579EVT_USB_DISK_TEST/SRC/StdPeriphDriver/CH57x_clk.c:120
            if (!SYS_IsClkXT32MPon()) {
    3338:	f7ff feec 	bl	3114 <SYS_IsClkXT32MPon>
    333c:	2800      	cmp	r0, #0
    333e:	d101      	bne.n	3344 <SetSysClock+0x40>
C:/Users/alon/Desktop/github/iot-fan_at_cnblogs/CH577_CH578_CH579/AN/CH579EVT_USB_DISK_TEST/SRC/StdPeriphDriver/CH57x_clk.c:121
                SYS_ClkXT32MPon();
    3340:	f7ff ff0e 	bl	3160 <SYS_ClkXT32MPon>
C:/Users/alon/Desktop/github/iot-fan_at_cnblogs/CH577_CH578_CH579/AN/CH579EVT_USB_DISK_TEST/SRC/StdPeriphDriver/CH57x_clk.c:124
            R8_SAFE_ACCESS_SIG = SAFE_ACCESS_SIG1;
    3344:	2357      	movs	r3, #87	; 0x57
    3346:	7023      	strb	r3, [r4, #0]
C:/Users/alon/Desktop/github/iot-fan_at_cnblogs/CH577_CH578_CH579/AN/CH579EVT_USB_DISK_TEST/SRC/StdPeriphDriver/CH57x_clk.c:125
            R8_SAFE_ACCESS_SIG = SAFE_ACCESS_SIG2;
    3348:	3351      	adds	r3, #81	; 0x51
    334a:	7023      	strb	r3, [r4, #0]
C:/Users/alon/Desktop/github/iot-fan_at_cnblogs/CH577_CH578_CH579/AN/CH579EVT_USB_DISK_TEST/SRC/StdPeriphDriver/CH57x_clk.c:126
            R16_CLK_SYS_CFG = RB_CLK_OSC32M_XT | (2 << 6) | 0x08;
    334c:	33e1      	adds	r3, #225	; 0xe1
C:/Users/alon/Desktop/github/iot-fan_at_cnblogs/CH577_CH578_CH579/AN/CH579EVT_USB_DISK_TEST/SRC/StdPeriphDriver/CH57x_clk.c:230
            R16_CLK_SYS_CFG = RB_CLK_OSC32M_XT | (1 << 6) | 24;
    334e:	33ff      	adds	r3, #255	; 0xff
    3350:	e7ee      	b.n	3330 <SetSysClock+0x2c>
C:/Users/alon/Desktop/github/iot-fan_at_cnblogs/CH577_CH578_CH579/AN/CH579EVT_USB_DISK_TEST/SRC/StdPeriphDriver/CH57x_clk.c:129
            if (!SYS_IsClkXT32MPon()) {
    3352:	f7ff fedf 	bl	3114 <SYS_IsClkXT32MPon>
    3356:	2800      	cmp	r0, #0
    3358:	d101      	bne.n	335e <SetSysClock+0x5a>
C:/Users/alon/Desktop/github/iot-fan_at_cnblogs/CH577_CH578_CH579/AN/CH579EVT_USB_DISK_TEST/SRC/StdPeriphDriver/CH57x_clk.c:130
                SYS_ClkXT32MPon();
    335a:	f7ff ff01 	bl	3160 <SYS_ClkXT32MPon>
C:/Users/alon/Desktop/github/iot-fan_at_cnblogs/CH577_CH578_CH579/AN/CH579EVT_USB_DISK_TEST/SRC/StdPeriphDriver/CH57x_clk.c:133
            R8_SAFE_ACCESS_SIG = SAFE_ACCESS_SIG1;
    335e:	2357      	movs	r3, #87	; 0x57
    3360:	7023      	strb	r3, [r4, #0]
C:/Users/alon/Desktop/github/iot-fan_at_cnblogs/CH577_CH578_CH579/AN/CH579EVT_USB_DISK_TEST/SRC/StdPeriphDriver/CH57x_clk.c:134
            R8_SAFE_ACCESS_SIG = SAFE_ACCESS_SIG2;
    3362:	3351      	adds	r3, #81	; 0x51
    3364:	7023      	strb	r3, [r4, #0]
C:/Users/alon/Desktop/github/iot-fan_at_cnblogs/CH577_CH578_CH579/AN/CH579EVT_USB_DISK_TEST/SRC/StdPeriphDriver/CH57x_clk.c:135
            R16_CLK_SYS_CFG = RB_CLK_OSC32M_XT | (0 << 6) | 0x02;
    3366:	4b4c      	ldr	r3, [pc, #304]	; (3498 <SetSysClock+0x194>)
    3368:	e7e2      	b.n	3330 <SetSysClock+0x2c>
C:/Users/alon/Desktop/github/iot-fan_at_cnblogs/CH577_CH578_CH579/AN/CH579EVT_USB_DISK_TEST/SRC/StdPeriphDriver/CH57x_clk.c:138
            if (!SYS_IsClkXT32MPon()) {
    336a:	f7ff fed3 	bl	3114 <SYS_IsClkXT32MPon>
    336e:	2800      	cmp	r0, #0
    3370:	d101      	bne.n	3376 <SetSysClock+0x72>
C:/Users/alon/Desktop/github/iot-fan_at_cnblogs/CH577_CH578_CH579/AN/CH579EVT_USB_DISK_TEST/SRC/StdPeriphDriver/CH57x_clk.c:139
                SYS_ClkXT32MPon();
    3372:	f7ff fef5 	bl	3160 <SYS_ClkXT32MPon>
C:/Users/alon/Desktop/github/iot-fan_at_cnblogs/CH577_CH578_CH579/AN/CH579EVT_USB_DISK_TEST/SRC/StdPeriphDriver/CH57x_clk.c:142
            R8_SAFE_ACCESS_SIG = SAFE_ACCESS_SIG1;
    3376:	2357      	movs	r3, #87	; 0x57
    3378:	7023      	strb	r3, [r4, #0]
C:/Users/alon/Desktop/github/iot-fan_at_cnblogs/CH577_CH578_CH579/AN/CH579EVT_USB_DISK_TEST/SRC/StdPeriphDriver/CH57x_clk.c:143
            R8_SAFE_ACCESS_SIG = SAFE_ACCESS_SIG2;
    337a:	3351      	adds	r3, #81	; 0x51
    337c:	7023      	strb	r3, [r4, #0]
C:/Users/alon/Desktop/github/iot-fan_at_cnblogs/CH577_CH578_CH579/AN/CH579EVT_USB_DISK_TEST/SRC/StdPeriphDriver/CH57x_clk.c:144
            R16_CLK_SYS_CFG = RB_CLK_OSC32M_XT | (0 << 6) | 0x04;
    337e:	335d      	adds	r3, #93	; 0x5d
    3380:	e7e5      	b.n	334e <SetSysClock+0x4a>
SYS_IsClkINT32MPon():
C:\Users\alon\Desktop\github\iot-fan_at_cnblogs\CH577_CH578_CH579\AN\CH579EVT_USB_DISK_TEST\SRC\StdPeriphDriver\inc/CH57x_clk.h:136

__STATIC_INLINE bool SYS_IsClkINT32MPon(void)
{
	return (R8_HFCK_PWR_CTRL & RB_CLK_INT32M_PON) ? true : false;
    3382:	4e46      	ldr	r6, [pc, #280]	; (349c <SetSysClock+0x198>)
    3384:	7833      	ldrb	r3, [r6, #0]
SetSysClock():
C:/Users/alon/Desktop/github/iot-fan_at_cnblogs/CH577_CH578_CH579/AN/CH579EVT_USB_DISK_TEST/SRC/StdPeriphDriver/CH57x_clk.c:147
           if (!SYS_IsClkINT32MPon()) {
    3386:	071b      	lsls	r3, r3, #28
    3388:	d401      	bmi.n	338e <SetSysClock+0x8a>
C:/Users/alon/Desktop/github/iot-fan_at_cnblogs/CH577_CH578_CH579/AN/CH579EVT_USB_DISK_TEST/SRC/StdPeriphDriver/CH57x_clk.c:148
                SYS_ClkINT32MPon();
    338a:	f7ff ff03 	bl	3194 <SYS_ClkINT32MPon>
C:/Users/alon/Desktop/github/iot-fan_at_cnblogs/CH577_CH578_CH579/AN/CH579EVT_USB_DISK_TEST/SRC/StdPeriphDriver/CH57x_clk.c:151
            R8_SAFE_ACCESS_SIG = SAFE_ACCESS_SIG1;
    338e:	2357      	movs	r3, #87	; 0x57
    3390:	7023      	strb	r3, [r4, #0]
C:/Users/alon/Desktop/github/iot-fan_at_cnblogs/CH577_CH578_CH579/AN/CH579EVT_USB_DISK_TEST/SRC/StdPeriphDriver/CH57x_clk.c:152
            R8_SAFE_ACCESS_SIG = SAFE_ACCESS_SIG2;
    3392:	3351      	adds	r3, #81	; 0x51
    3394:	7023      	strb	r3, [r4, #0]
C:/Users/alon/Desktop/github/iot-fan_at_cnblogs/CH577_CH578_CH579/AN/CH579EVT_USB_DISK_TEST/SRC/StdPeriphDriver/CH57x_clk.c:153
            R16_CLK_SYS_CFG = (2 << 6) | 0x08;
    3396:	3b20      	subs	r3, #32
C:/Users/alon/Desktop/github/iot-fan_at_cnblogs/CH577_CH578_CH579/AN/CH579EVT_USB_DISK_TEST/SRC/StdPeriphDriver/CH57x_clk.c:164
            R8_HFCK_PWR_CTRL &= ~RB_CLK_XT32M_PON;
    3398:	2204      	movs	r2, #4
C:/Users/alon/Desktop/github/iot-fan_at_cnblogs/CH577_CH578_CH579/AN/CH579EVT_USB_DISK_TEST/SRC/StdPeriphDriver/CH57x_clk.c:163
            R16_CLK_SYS_CFG = (0 << 6) | 0x02;
    339a:	802b      	strh	r3, [r5, #0]
C:/Users/alon/Desktop/github/iot-fan_at_cnblogs/CH577_CH578_CH579/AN/CH579EVT_USB_DISK_TEST/SRC/StdPeriphDriver/CH57x_clk.c:164
            R8_HFCK_PWR_CTRL &= ~RB_CLK_XT32M_PON;
    339c:	7833      	ldrb	r3, [r6, #0]
C:/Users/alon/Desktop/github/iot-fan_at_cnblogs/CH577_CH578_CH579/AN/CH579EVT_USB_DISK_TEST/SRC/StdPeriphDriver/CH57x_clk.c:174
            R8_HFCK_PWR_CTRL &= ~RB_CLK_XT32M_PON;
    339e:	4393      	bics	r3, r2
    33a0:	7033      	strb	r3, [r6, #0]
C:/Users/alon/Desktop/github/iot-fan_at_cnblogs/CH577_CH578_CH579/AN/CH579EVT_USB_DISK_TEST/SRC/StdPeriphDriver/CH57x_clk.c:249
    R8_SAFE_ACCESS_SIG = 0;
    33a2:	2300      	movs	r3, #0
    33a4:	7023      	strb	r3, [r4, #0]
C:/Users/alon/Desktop/github/iot-fan_at_cnblogs/CH577_CH578_CH579/AN/CH579EVT_USB_DISK_TEST/SRC/StdPeriphDriver/CH57x_clk.c:250
}
    33a6:	bd70      	pop	{r4, r5, r6, pc}
SYS_IsClkINT32MPon():
C:\Users\alon\Desktop\github\iot-fan_at_cnblogs\CH577_CH578_CH579\AN\CH579EVT_USB_DISK_TEST\SRC\StdPeriphDriver\inc/CH57x_clk.h:136
    33a8:	4e3c      	ldr	r6, [pc, #240]	; (349c <SetSysClock+0x198>)
    33aa:	7833      	ldrb	r3, [r6, #0]
SetSysClock():
C:/Users/alon/Desktop/github/iot-fan_at_cnblogs/CH577_CH578_CH579/AN/CH579EVT_USB_DISK_TEST/SRC/StdPeriphDriver/CH57x_clk.c:157
            if (!SYS_IsClkINT32MPon()) {
    33ac:	071b      	lsls	r3, r3, #28
    33ae:	d401      	bmi.n	33b4 <SetSysClock+0xb0>
C:/Users/alon/Desktop/github/iot-fan_at_cnblogs/CH577_CH578_CH579/AN/CH579EVT_USB_DISK_TEST/SRC/StdPeriphDriver/CH57x_clk.c:158
                SYS_ClkINT32MPon();
    33b0:	f7ff fef0 	bl	3194 <SYS_ClkINT32MPon>
C:/Users/alon/Desktop/github/iot-fan_at_cnblogs/CH577_CH578_CH579/AN/CH579EVT_USB_DISK_TEST/SRC/StdPeriphDriver/CH57x_clk.c:161
            R8_SAFE_ACCESS_SIG = SAFE_ACCESS_SIG1;
    33b4:	2357      	movs	r3, #87	; 0x57
    33b6:	7023      	strb	r3, [r4, #0]
C:/Users/alon/Desktop/github/iot-fan_at_cnblogs/CH577_CH578_CH579/AN/CH579EVT_USB_DISK_TEST/SRC/StdPeriphDriver/CH57x_clk.c:162
            R8_SAFE_ACCESS_SIG = SAFE_ACCESS_SIG2;
    33b8:	3351      	adds	r3, #81	; 0x51
    33ba:	7023      	strb	r3, [r4, #0]
C:/Users/alon/Desktop/github/iot-fan_at_cnblogs/CH577_CH578_CH579/AN/CH579EVT_USB_DISK_TEST/SRC/StdPeriphDriver/CH57x_clk.c:163
            R16_CLK_SYS_CFG = (0 << 6) | 0x02;
    33bc:	3ba6      	subs	r3, #166	; 0xa6
    33be:	e7eb      	b.n	3398 <SetSysClock+0x94>
SYS_IsClkINT32MPon():
C:\Users\alon\Desktop\github\iot-fan_at_cnblogs\CH577_CH578_CH579\AN\CH579EVT_USB_DISK_TEST\SRC\StdPeriphDriver\inc/CH57x_clk.h:136
    33c0:	4e36      	ldr	r6, [pc, #216]	; (349c <SetSysClock+0x198>)
    33c2:	7833      	ldrb	r3, [r6, #0]
SetSysClock():
C:/Users/alon/Desktop/github/iot-fan_at_cnblogs/CH577_CH578_CH579/AN/CH579EVT_USB_DISK_TEST/SRC/StdPeriphDriver/CH57x_clk.c:167
            if (!SYS_IsClkINT32MPon()) {
    33c4:	071b      	lsls	r3, r3, #28
    33c6:	d401      	bmi.n	33cc <SetSysClock+0xc8>
C:/Users/alon/Desktop/github/iot-fan_at_cnblogs/CH577_CH578_CH579/AN/CH579EVT_USB_DISK_TEST/SRC/StdPeriphDriver/CH57x_clk.c:168
                SYS_ClkINT32MPon();
    33c8:	f7ff fee4 	bl	3194 <SYS_ClkINT32MPon>
C:/Users/alon/Desktop/github/iot-fan_at_cnblogs/CH577_CH578_CH579/AN/CH579EVT_USB_DISK_TEST/SRC/StdPeriphDriver/CH57x_clk.c:171
            R8_SAFE_ACCESS_SIG = SAFE_ACCESS_SIG1;
    33cc:	2357      	movs	r3, #87	; 0x57
C:/Users/alon/Desktop/github/iot-fan_at_cnblogs/CH577_CH578_CH579/AN/CH579EVT_USB_DISK_TEST/SRC/StdPeriphDriver/CH57x_clk.c:173
            R16_CLK_SYS_CFG = (0 << 6) | 0x04;
    33ce:	2204      	movs	r2, #4
C:/Users/alon/Desktop/github/iot-fan_at_cnblogs/CH577_CH578_CH579/AN/CH579EVT_USB_DISK_TEST/SRC/StdPeriphDriver/CH57x_clk.c:171
            R8_SAFE_ACCESS_SIG = SAFE_ACCESS_SIG1;
    33d0:	7023      	strb	r3, [r4, #0]
C:/Users/alon/Desktop/github/iot-fan_at_cnblogs/CH577_CH578_CH579/AN/CH579EVT_USB_DISK_TEST/SRC/StdPeriphDriver/CH57x_clk.c:172
            R8_SAFE_ACCESS_SIG = SAFE_ACCESS_SIG2;
    33d2:	3351      	adds	r3, #81	; 0x51
    33d4:	7023      	strb	r3, [r4, #0]
C:/Users/alon/Desktop/github/iot-fan_at_cnblogs/CH577_CH578_CH579/AN/CH579EVT_USB_DISK_TEST/SRC/StdPeriphDriver/CH57x_clk.c:173
            R16_CLK_SYS_CFG = (0 << 6) | 0x04;
    33d6:	802a      	strh	r2, [r5, #0]
C:/Users/alon/Desktop/github/iot-fan_at_cnblogs/CH577_CH578_CH579/AN/CH579EVT_USB_DISK_TEST/SRC/StdPeriphDriver/CH57x_clk.c:174
            R8_HFCK_PWR_CTRL &= ~RB_CLK_XT32M_PON;
    33d8:	7833      	ldrb	r3, [r6, #0]
    33da:	e7e0      	b.n	339e <SetSysClock+0x9a>
C:/Users/alon/Desktop/github/iot-fan_at_cnblogs/CH577_CH578_CH579/AN/CH579EVT_USB_DISK_TEST/SRC/StdPeriphDriver/CH57x_clk.c:178
            if (!SYS_IsClkXT32MPon()) {
    33dc:	f7ff fe9a 	bl	3114 <SYS_IsClkXT32MPon>
    33e0:	2800      	cmp	r0, #0
    33e2:	d101      	bne.n	33e8 <SetSysClock+0xe4>
C:/Users/alon/Desktop/github/iot-fan_at_cnblogs/CH577_CH578_CH579/AN/CH579EVT_USB_DISK_TEST/SRC/StdPeriphDriver/CH57x_clk.c:179
                SYS_ClkXT32MPon();
    33e4:	f7ff febc 	bl	3160 <SYS_ClkXT32MPon>
SYS_IsPLLPon():
C:\Users\alon\Desktop\github\iot-fan_at_cnblogs\CH577_CH578_CH579\AN\CH579EVT_USB_DISK_TEST\SRC\StdPeriphDriver\inc/CH57x_clk.h:141
}

__STATIC_INLINE bool SYS_IsPLLPon(void)
{
	return (R8_HFCK_PWR_CTRL & RB_CLK_PLL_PON) ? true : false;
    33e8:	4b2c      	ldr	r3, [pc, #176]	; (349c <SetSysClock+0x198>)
    33ea:	781b      	ldrb	r3, [r3, #0]
SetSysClock():
C:/Users/alon/Desktop/github/iot-fan_at_cnblogs/CH577_CH578_CH579/AN/CH579EVT_USB_DISK_TEST/SRC/StdPeriphDriver/CH57x_clk.c:182
            if (!SYS_IsPLLPon()) {
    33ec:	06db      	lsls	r3, r3, #27
    33ee:	d401      	bmi.n	33f4 <SetSysClock+0xf0>
C:/Users/alon/Desktop/github/iot-fan_at_cnblogs/CH577_CH578_CH579/AN/CH579EVT_USB_DISK_TEST/SRC/StdPeriphDriver/CH57x_clk.c:183
                SYS_PLLPon();
    33f0:	f7ff fee6 	bl	31c0 <SYS_PLLPon>
C:/Users/alon/Desktop/github/iot-fan_at_cnblogs/CH577_CH578_CH579/AN/CH579EVT_USB_DISK_TEST/SRC/StdPeriphDriver/CH57x_clk.c:186
            R8_SAFE_ACCESS_SIG = SAFE_ACCESS_SIG1;
    33f4:	2357      	movs	r3, #87	; 0x57
    33f6:	7023      	strb	r3, [r4, #0]
C:/Users/alon/Desktop/github/iot-fan_at_cnblogs/CH577_CH578_CH579/AN/CH579EVT_USB_DISK_TEST/SRC/StdPeriphDriver/CH57x_clk.c:187
            R8_SAFE_ACCESS_SIG = SAFE_ACCESS_SIG2;
    33f8:	3351      	adds	r3, #81	; 0x51
    33fa:	7023      	strb	r3, [r4, #0]
C:/Users/alon/Desktop/github/iot-fan_at_cnblogs/CH577_CH578_CH579/AN/CH579EVT_USB_DISK_TEST/SRC/StdPeriphDriver/CH57x_clk.c:188
            R16_CLK_SYS_CFG = RB_CLK_OSC32M_XT | (1 << 6) | 12;
    33fc:	33a5      	adds	r3, #165	; 0xa5
    33fe:	e7a6      	b.n	334e <SetSysClock+0x4a>
C:/Users/alon/Desktop/github/iot-fan_at_cnblogs/CH577_CH578_CH579/AN/CH579EVT_USB_DISK_TEST/SRC/StdPeriphDriver/CH57x_clk.c:192
            if (!SYS_IsClkXT32MPon()) {
    3400:	f7ff fe88 	bl	3114 <SYS_IsClkXT32MPon>
    3404:	2800      	cmp	r0, #0
    3406:	d101      	bne.n	340c <SetSysClock+0x108>
C:/Users/alon/Desktop/github/iot-fan_at_cnblogs/CH577_CH578_CH579/AN/CH579EVT_USB_DISK_TEST/SRC/StdPeriphDriver/CH57x_clk.c:193
                SYS_ClkXT32MPon();
    3408:	f7ff feaa 	bl	3160 <SYS_ClkXT32MPon>
SYS_IsPLLPon():
C:\Users\alon\Desktop\github\iot-fan_at_cnblogs\CH577_CH578_CH579\AN\CH579EVT_USB_DISK_TEST\SRC\StdPeriphDriver\inc/CH57x_clk.h:141
    340c:	4b23      	ldr	r3, [pc, #140]	; (349c <SetSysClock+0x198>)
    340e:	781b      	ldrb	r3, [r3, #0]
SetSysClock():
C:/Users/alon/Desktop/github/iot-fan_at_cnblogs/CH577_CH578_CH579/AN/CH579EVT_USB_DISK_TEST/SRC/StdPeriphDriver/CH57x_clk.c:196
            if (!SYS_IsPLLPon()) {
    3410:	06db      	lsls	r3, r3, #27
    3412:	d401      	bmi.n	3418 <SetSysClock+0x114>
C:/Users/alon/Desktop/github/iot-fan_at_cnblogs/CH577_CH578_CH579/AN/CH579EVT_USB_DISK_TEST/SRC/StdPeriphDriver/CH57x_clk.c:197
                SYS_PLLPon();
    3414:	f7ff fed4 	bl	31c0 <SYS_PLLPon>
C:/Users/alon/Desktop/github/iot-fan_at_cnblogs/CH577_CH578_CH579/AN/CH579EVT_USB_DISK_TEST/SRC/StdPeriphDriver/CH57x_clk.c:200
            R8_SAFE_ACCESS_SIG = SAFE_ACCESS_SIG1;
    3418:	2357      	movs	r3, #87	; 0x57
    341a:	7023      	strb	r3, [r4, #0]
C:/Users/alon/Desktop/github/iot-fan_at_cnblogs/CH577_CH578_CH579/AN/CH579EVT_USB_DISK_TEST/SRC/StdPeriphDriver/CH57x_clk.c:201
            R8_SAFE_ACCESS_SIG = SAFE_ACCESS_SIG2;
    341c:	3351      	adds	r3, #81	; 0x51
    341e:	7023      	strb	r3, [r4, #0]
C:/Users/alon/Desktop/github/iot-fan_at_cnblogs/CH577_CH578_CH579/AN/CH579EVT_USB_DISK_TEST/SRC/StdPeriphDriver/CH57x_clk.c:202
            R16_CLK_SYS_CFG = RB_CLK_OSC32M_XT | (1 << 6) | 15;
    3420:	4b1f      	ldr	r3, [pc, #124]	; (34a0 <SetSysClock+0x19c>)
    3422:	e785      	b.n	3330 <SetSysClock+0x2c>
C:/Users/alon/Desktop/github/iot-fan_at_cnblogs/CH577_CH578_CH579/AN/CH579EVT_USB_DISK_TEST/SRC/StdPeriphDriver/CH57x_clk.c:206
            if (!SYS_IsClkXT32MPon()) {
    3424:	f7ff fe76 	bl	3114 <SYS_IsClkXT32MPon>
    3428:	2800      	cmp	r0, #0
    342a:	d101      	bne.n	3430 <SetSysClock+0x12c>
C:/Users/alon/Desktop/github/iot-fan_at_cnblogs/CH577_CH578_CH579/AN/CH579EVT_USB_DISK_TEST/SRC/StdPeriphDriver/CH57x_clk.c:207
                SYS_ClkXT32MPon();
    342c:	f7ff fe98 	bl	3160 <SYS_ClkXT32MPon>
SYS_IsPLLPon():
C:\Users\alon\Desktop\github\iot-fan_at_cnblogs\CH577_CH578_CH579\AN\CH579EVT_USB_DISK_TEST\SRC\StdPeriphDriver\inc/CH57x_clk.h:141
    3430:	4b1a      	ldr	r3, [pc, #104]	; (349c <SetSysClock+0x198>)
    3432:	781b      	ldrb	r3, [r3, #0]
SetSysClock():
C:/Users/alon/Desktop/github/iot-fan_at_cnblogs/CH577_CH578_CH579/AN/CH579EVT_USB_DISK_TEST/SRC/StdPeriphDriver/CH57x_clk.c:210
            if (!SYS_IsPLLPon()) {
    3434:	06db      	lsls	r3, r3, #27
    3436:	d401      	bmi.n	343c <SetSysClock+0x138>
C:/Users/alon/Desktop/github/iot-fan_at_cnblogs/CH577_CH578_CH579/AN/CH579EVT_USB_DISK_TEST/SRC/StdPeriphDriver/CH57x_clk.c:211
                SYS_PLLPon();
    3438:	f7ff fec2 	bl	31c0 <SYS_PLLPon>
C:/Users/alon/Desktop/github/iot-fan_at_cnblogs/CH577_CH578_CH579/AN/CH579EVT_USB_DISK_TEST/SRC/StdPeriphDriver/CH57x_clk.c:214
            R8_SAFE_ACCESS_SIG = SAFE_ACCESS_SIG1;
    343c:	2357      	movs	r3, #87	; 0x57
    343e:	7023      	strb	r3, [r4, #0]
C:/Users/alon/Desktop/github/iot-fan_at_cnblogs/CH577_CH578_CH579/AN/CH579EVT_USB_DISK_TEST/SRC/StdPeriphDriver/CH57x_clk.c:215
            R8_SAFE_ACCESS_SIG = SAFE_ACCESS_SIG2;
    3440:	3351      	adds	r3, #81	; 0x51
    3442:	7023      	strb	r3, [r4, #0]
C:/Users/alon/Desktop/github/iot-fan_at_cnblogs/CH577_CH578_CH579/AN/CH579EVT_USB_DISK_TEST/SRC/StdPeriphDriver/CH57x_clk.c:216
            R16_CLK_SYS_CFG = RB_CLK_OSC32M_XT | (1 << 6) | 20;
    3444:	33ad      	adds	r3, #173	; 0xad
    3446:	e782      	b.n	334e <SetSysClock+0x4a>
C:/Users/alon/Desktop/github/iot-fan_at_cnblogs/CH577_CH578_CH579/AN/CH579EVT_USB_DISK_TEST/SRC/StdPeriphDriver/CH57x_clk.c:220
            if (!SYS_IsClkXT32MPon()) {
    3448:	f7ff fe64 	bl	3114 <SYS_IsClkXT32MPon>
    344c:	2800      	cmp	r0, #0
    344e:	d101      	bne.n	3454 <SetSysClock+0x150>
C:/Users/alon/Desktop/github/iot-fan_at_cnblogs/CH577_CH578_CH579/AN/CH579EVT_USB_DISK_TEST/SRC/StdPeriphDriver/CH57x_clk.c:221
                SYS_ClkXT32MPon();
    3450:	f7ff fe86 	bl	3160 <SYS_ClkXT32MPon>
SYS_IsPLLPon():
C:\Users\alon\Desktop\github\iot-fan_at_cnblogs\CH577_CH578_CH579\AN\CH579EVT_USB_DISK_TEST\SRC\StdPeriphDriver\inc/CH57x_clk.h:141
    3454:	4b11      	ldr	r3, [pc, #68]	; (349c <SetSysClock+0x198>)
    3456:	781b      	ldrb	r3, [r3, #0]
SetSysClock():
C:/Users/alon/Desktop/github/iot-fan_at_cnblogs/CH577_CH578_CH579/AN/CH579EVT_USB_DISK_TEST/SRC/StdPeriphDriver/CH57x_clk.c:224
            if (!SYS_IsPLLPon()) {
    3458:	06db      	lsls	r3, r3, #27
    345a:	d401      	bmi.n	3460 <SetSysClock+0x15c>
C:/Users/alon/Desktop/github/iot-fan_at_cnblogs/CH577_CH578_CH579/AN/CH579EVT_USB_DISK_TEST/SRC/StdPeriphDriver/CH57x_clk.c:225
                SYS_PLLPon();
    345c:	f7ff feb0 	bl	31c0 <SYS_PLLPon>
C:/Users/alon/Desktop/github/iot-fan_at_cnblogs/CH577_CH578_CH579/AN/CH579EVT_USB_DISK_TEST/SRC/StdPeriphDriver/CH57x_clk.c:228
            R8_SAFE_ACCESS_SIG = SAFE_ACCESS_SIG1;
    3460:	2357      	movs	r3, #87	; 0x57
    3462:	7023      	strb	r3, [r4, #0]
C:/Users/alon/Desktop/github/iot-fan_at_cnblogs/CH577_CH578_CH579/AN/CH579EVT_USB_DISK_TEST/SRC/StdPeriphDriver/CH57x_clk.c:229
            R8_SAFE_ACCESS_SIG = SAFE_ACCESS_SIG2;
    3464:	3351      	adds	r3, #81	; 0x51
    3466:	7023      	strb	r3, [r4, #0]
C:/Users/alon/Desktop/github/iot-fan_at_cnblogs/CH577_CH578_CH579/AN/CH579EVT_USB_DISK_TEST/SRC/StdPeriphDriver/CH57x_clk.c:230
            R16_CLK_SYS_CFG = RB_CLK_OSC32M_XT | (1 << 6) | 24;
    3468:	33b1      	adds	r3, #177	; 0xb1
    346a:	e770      	b.n	334e <SetSysClock+0x4a>
C:/Users/alon/Desktop/github/iot-fan_at_cnblogs/CH577_CH578_CH579/AN/CH579EVT_USB_DISK_TEST/SRC/StdPeriphDriver/CH57x_clk.c:234
            if (!SYS_IsClkXT32MPon()) {
    346c:	f7ff fe52 	bl	3114 <SYS_IsClkXT32MPon>
    3470:	2800      	cmp	r0, #0
    3472:	d101      	bne.n	3478 <SetSysClock+0x174>
C:/Users/alon/Desktop/github/iot-fan_at_cnblogs/CH577_CH578_CH579/AN/CH579EVT_USB_DISK_TEST/SRC/StdPeriphDriver/CH57x_clk.c:235
                SYS_ClkXT32MPon();
    3474:	f7ff fe74 	bl	3160 <SYS_ClkXT32MPon>
SYS_IsPLLPon():
C:\Users\alon\Desktop\github\iot-fan_at_cnblogs\CH577_CH578_CH579\AN\CH579EVT_USB_DISK_TEST\SRC\StdPeriphDriver\inc/CH57x_clk.h:141
    3478:	4b08      	ldr	r3, [pc, #32]	; (349c <SetSysClock+0x198>)
    347a:	781b      	ldrb	r3, [r3, #0]
SetSysClock():
C:/Users/alon/Desktop/github/iot-fan_at_cnblogs/CH577_CH578_CH579/AN/CH579EVT_USB_DISK_TEST/SRC/StdPeriphDriver/CH57x_clk.c:238
            if (!SYS_IsPLLPon()) {
    347c:	06db      	lsls	r3, r3, #27
    347e:	d401      	bmi.n	3484 <SetSysClock+0x180>
C:/Users/alon/Desktop/github/iot-fan_at_cnblogs/CH577_CH578_CH579/AN/CH579EVT_USB_DISK_TEST/SRC/StdPeriphDriver/CH57x_clk.c:239
                SYS_PLLPon();
    3480:	f7ff fe9e 	bl	31c0 <SYS_PLLPon>
C:/Users/alon/Desktop/github/iot-fan_at_cnblogs/CH577_CH578_CH579/AN/CH579EVT_USB_DISK_TEST/SRC/StdPeriphDriver/CH57x_clk.c:242
            R8_SAFE_ACCESS_SIG = SAFE_ACCESS_SIG1;
    3484:	2357      	movs	r3, #87	; 0x57
    3486:	7023      	strb	r3, [r4, #0]
C:/Users/alon/Desktop/github/iot-fan_at_cnblogs/CH577_CH578_CH579/AN/CH579EVT_USB_DISK_TEST/SRC/StdPeriphDriver/CH57x_clk.c:243
            R8_SAFE_ACCESS_SIG = SAFE_ACCESS_SIG2;
    3488:	3351      	adds	r3, #81	; 0x51
    348a:	7023      	strb	r3, [r4, #0]
C:/Users/alon/Desktop/github/iot-fan_at_cnblogs/CH577_CH578_CH579/AN/CH579EVT_USB_DISK_TEST/SRC/StdPeriphDriver/CH57x_clk.c:244
            R16_CLK_SYS_CFG = RB_CLK_OSC32M_XT | (1 << 6) | 30;
    348c:	4b05      	ldr	r3, [pc, #20]	; (34a4 <SetSysClock+0x1a0>)
    348e:	e74f      	b.n	3330 <SetSysClock+0x2c>
    3490:	40001040 	.word	0x40001040
    3494:	40001008 	.word	0x40001008
    3498:	00000202 	.word	0x00000202
    349c:	4000100a 	.word	0x4000100a
    34a0:	0000024f 	.word	0x0000024f
    34a4:	0000025e 	.word	0x0000025e

000034a8 <GPIOA_ModeCfg>:
GPIOA_ModeCfg():
C:/Users/alon/Desktop/github/iot-fan_at_cnblogs/CH577_CH578_CH579/AN/CH579EVT_USB_DISK_TEST/SRC/StdPeriphDriver/CH57x_gpio.c:26
					GPIO_ModeOut_PP_5mA   -  Õ∆ÕÏ ‰≥ˆ◊Ó¥Û5mA
					GPIO_ModeOut_PP_20mA  -  Õ∆ÕÏ ‰≥ˆ◊Ó¥Û20mA				   				
* Return         : None
*******************************************************************************/
void GPIOA_ModeCfg( UINT32 pin, GPIOModeTypeDef mode )
{	
    34a8:	0003      	movs	r3, r0
    34aa:	b500      	push	{lr}
    34ac:	0008      	movs	r0, r1
    34ae:	2904      	cmp	r1, #4
    34b0:	d817      	bhi.n	34e2 <GPIOA_ModeCfg+0x3a>
    34b2:	4913      	ldr	r1, [pc, #76]	; (3500 <GPIOA_ModeCfg+0x58>)
    34b4:	4a13      	ldr	r2, [pc, #76]	; (3504 <GPIOA_ModeCfg+0x5c>)
    34b6:	f7fc fdf5 	bl	a4 <__gnu_thumb1_case_uqi>
    34ba:	0a03      	.short	0x0a03
    34bc:	1815      	.short	0x1815
    34be:	1f          	.byte	0x1f
    34bf:	00          	.byte	0x00
C:/Users/alon/Desktop/github/iot-fan_at_cnblogs/CH577_CH578_CH579/AN/CH579EVT_USB_DISK_TEST/SRC/StdPeriphDriver/CH57x_gpio.c:30
    switch(mode)
    {
        case GPIO_ModeIN_Floating:
            R32_PA_PD_DRV &= ~pin;
    34c0:	6808      	ldr	r0, [r1, #0]
    34c2:	4398      	bics	r0, r3
C:/Users/alon/Desktop/github/iot-fan_at_cnblogs/CH577_CH578_CH579/AN/CH579EVT_USB_DISK_TEST/SRC/StdPeriphDriver/CH57x_gpio.c:42
            R32_PA_PU     |= pin;
            R32_PA_DIR    &= ~pin;
            break;

        case GPIO_ModeIN_PD:
            R32_PA_PD_DRV |= pin;
    34c4:	6008      	str	r0, [r1, #0]
C:/Users/alon/Desktop/github/iot-fan_at_cnblogs/CH577_CH578_CH579/AN/CH579EVT_USB_DISK_TEST/SRC/StdPeriphDriver/CH57x_gpio.c:43
            R32_PA_PU     &= ~pin;
    34c6:	4810      	ldr	r0, [pc, #64]	; (3508 <GPIOA_ModeCfg+0x60>)
    34c8:	6801      	ldr	r1, [r0, #0]
    34ca:	4399      	bics	r1, r3
    34cc:	e005      	b.n	34da <GPIOA_ModeCfg+0x32>
C:/Users/alon/Desktop/github/iot-fan_at_cnblogs/CH577_CH578_CH579/AN/CH579EVT_USB_DISK_TEST/SRC/StdPeriphDriver/CH57x_gpio.c:36
            R32_PA_PD_DRV &= ~pin;
    34ce:	6808      	ldr	r0, [r1, #0]
    34d0:	4398      	bics	r0, r3
    34d2:	6008      	str	r0, [r1, #0]
C:/Users/alon/Desktop/github/iot-fan_at_cnblogs/CH577_CH578_CH579/AN/CH579EVT_USB_DISK_TEST/SRC/StdPeriphDriver/CH57x_gpio.c:37
            R32_PA_PU     |= pin;
    34d4:	480c      	ldr	r0, [pc, #48]	; (3508 <GPIOA_ModeCfg+0x60>)
    34d6:	6801      	ldr	r1, [r0, #0]
    34d8:	4319      	orrs	r1, r3
C:/Users/alon/Desktop/github/iot-fan_at_cnblogs/CH577_CH578_CH579/AN/CH579EVT_USB_DISK_TEST/SRC/StdPeriphDriver/CH57x_gpio.c:43
            R32_PA_PU     &= ~pin;
    34da:	6001      	str	r1, [r0, #0]
C:/Users/alon/Desktop/github/iot-fan_at_cnblogs/CH577_CH578_CH579/AN/CH579EVT_USB_DISK_TEST/SRC/StdPeriphDriver/CH57x_gpio.c:44
            R32_PA_DIR    &= ~pin;
    34dc:	6811      	ldr	r1, [r2, #0]
    34de:	4399      	bics	r1, r3
    34e0:	6011      	str	r1, [r2, #0]
C:/Users/alon/Desktop/github/iot-fan_at_cnblogs/CH577_CH578_CH579/AN/CH579EVT_USB_DISK_TEST/SRC/StdPeriphDriver/CH57x_gpio.c:60
            break;

        default:
            break;
    }
}
    34e2:	bd00      	pop	{pc}
C:/Users/alon/Desktop/github/iot-fan_at_cnblogs/CH577_CH578_CH579/AN/CH579EVT_USB_DISK_TEST/SRC/StdPeriphDriver/CH57x_gpio.c:42
            R32_PA_PD_DRV |= pin;
    34e4:	6808      	ldr	r0, [r1, #0]
    34e6:	4318      	orrs	r0, r3
    34e8:	e7ec      	b.n	34c4 <GPIOA_ModeCfg+0x1c>
C:/Users/alon/Desktop/github/iot-fan_at_cnblogs/CH577_CH578_CH579/AN/CH579EVT_USB_DISK_TEST/SRC/StdPeriphDriver/CH57x_gpio.c:48
            R32_PA_PD_DRV &= ~pin;
    34ea:	6808      	ldr	r0, [r1, #0]
    34ec:	4398      	bics	r0, r3
C:/Users/alon/Desktop/github/iot-fan_at_cnblogs/CH577_CH578_CH579/AN/CH579EVT_USB_DISK_TEST/SRC/StdPeriphDriver/CH57x_gpio.c:53
            R32_PA_PD_DRV |= pin;
    34ee:	6008      	str	r0, [r1, #0]
C:/Users/alon/Desktop/github/iot-fan_at_cnblogs/CH577_CH578_CH579/AN/CH579EVT_USB_DISK_TEST/SRC/StdPeriphDriver/CH57x_gpio.c:54
            R32_PA_DIR    |= pin;
    34f0:	6810      	ldr	r0, [r2, #0]
    34f2:	4303      	orrs	r3, r0
    34f4:	6013      	str	r3, [r2, #0]
C:/Users/alon/Desktop/github/iot-fan_at_cnblogs/CH577_CH578_CH579/AN/CH579EVT_USB_DISK_TEST/SRC/StdPeriphDriver/CH57x_gpio.c:60
}
    34f6:	e7f4      	b.n	34e2 <GPIOA_ModeCfg+0x3a>
C:/Users/alon/Desktop/github/iot-fan_at_cnblogs/CH577_CH578_CH579/AN/CH579EVT_USB_DISK_TEST/SRC/StdPeriphDriver/CH57x_gpio.c:53
            R32_PA_PD_DRV |= pin;
    34f8:	6808      	ldr	r0, [r1, #0]
    34fa:	4318      	orrs	r0, r3
    34fc:	e7f7      	b.n	34ee <GPIOA_ModeCfg+0x46>
    34fe:	46c0      	nop			; (mov r8, r8)
    3500:	400010b4 	.word	0x400010b4
    3504:	400010a0 	.word	0x400010a0
    3508:	400010b0 	.word	0x400010b0

0000350c <GPIOB_ModeCfg>:
GPIOB_ModeCfg():
C:/Users/alon/Desktop/github/iot-fan_at_cnblogs/CH577_CH578_CH579/AN/CH579EVT_USB_DISK_TEST/SRC/StdPeriphDriver/CH57x_gpio.c:76
					GPIO_ModeOut_PP_5mA   -  Õ∆ÕÏ ‰≥ˆ◊Ó¥Û5mA
					GPIO_ModeOut_PP_20mA  -  Õ∆ÕÏ ‰≥ˆ◊Ó¥Û20mA				   				
* Return         : None
*******************************************************************************/
void GPIOB_ModeCfg( UINT32 pin, GPIOModeTypeDef mode )
{	
    350c:	0003      	movs	r3, r0
    350e:	b500      	push	{lr}
    3510:	0008      	movs	r0, r1
    3512:	2904      	cmp	r1, #4
    3514:	d817      	bhi.n	3546 <GPIOB_ModeCfg+0x3a>
    3516:	4913      	ldr	r1, [pc, #76]	; (3564 <GPIOB_ModeCfg+0x58>)
    3518:	4a13      	ldr	r2, [pc, #76]	; (3568 <GPIOB_ModeCfg+0x5c>)
    351a:	f7fc fdc3 	bl	a4 <__gnu_thumb1_case_uqi>
    351e:	0a03      	.short	0x0a03
    3520:	1815      	.short	0x1815
    3522:	1f          	.byte	0x1f
    3523:	00          	.byte	0x00
C:/Users/alon/Desktop/github/iot-fan_at_cnblogs/CH577_CH578_CH579/AN/CH579EVT_USB_DISK_TEST/SRC/StdPeriphDriver/CH57x_gpio.c:80
    switch(mode)
    {
        case GPIO_ModeIN_Floating:
            R32_PB_PD_DRV &= ~pin;
    3524:	6808      	ldr	r0, [r1, #0]
    3526:	4398      	bics	r0, r3
C:/Users/alon/Desktop/github/iot-fan_at_cnblogs/CH577_CH578_CH579/AN/CH579EVT_USB_DISK_TEST/SRC/StdPeriphDriver/CH57x_gpio.c:92
            R32_PB_PU     |= pin;
            R32_PB_DIR    &= ~pin;
            break;

        case GPIO_ModeIN_PD:
            R32_PB_PD_DRV |= pin;
    3528:	6008      	str	r0, [r1, #0]
C:/Users/alon/Desktop/github/iot-fan_at_cnblogs/CH577_CH578_CH579/AN/CH579EVT_USB_DISK_TEST/SRC/StdPeriphDriver/CH57x_gpio.c:93
            R32_PB_PU     &= ~pin;
    352a:	4810      	ldr	r0, [pc, #64]	; (356c <GPIOB_ModeCfg+0x60>)
    352c:	6801      	ldr	r1, [r0, #0]
    352e:	4399      	bics	r1, r3
    3530:	e005      	b.n	353e <GPIOB_ModeCfg+0x32>
C:/Users/alon/Desktop/github/iot-fan_at_cnblogs/CH577_CH578_CH579/AN/CH579EVT_USB_DISK_TEST/SRC/StdPeriphDriver/CH57x_gpio.c:86
            R32_PB_PD_DRV &= ~pin;
    3532:	6808      	ldr	r0, [r1, #0]
    3534:	4398      	bics	r0, r3
    3536:	6008      	str	r0, [r1, #0]
C:/Users/alon/Desktop/github/iot-fan_at_cnblogs/CH577_CH578_CH579/AN/CH579EVT_USB_DISK_TEST/SRC/StdPeriphDriver/CH57x_gpio.c:87
            R32_PB_PU     |= pin;
    3538:	480c      	ldr	r0, [pc, #48]	; (356c <GPIOB_ModeCfg+0x60>)
    353a:	6801      	ldr	r1, [r0, #0]
    353c:	4319      	orrs	r1, r3
C:/Users/alon/Desktop/github/iot-fan_at_cnblogs/CH577_CH578_CH579/AN/CH579EVT_USB_DISK_TEST/SRC/StdPeriphDriver/CH57x_gpio.c:93
            R32_PB_PU     &= ~pin;
    353e:	6001      	str	r1, [r0, #0]
C:/Users/alon/Desktop/github/iot-fan_at_cnblogs/CH577_CH578_CH579/AN/CH579EVT_USB_DISK_TEST/SRC/StdPeriphDriver/CH57x_gpio.c:94
            R32_PB_DIR    &= ~pin;
    3540:	6811      	ldr	r1, [r2, #0]
    3542:	4399      	bics	r1, r3
    3544:	6011      	str	r1, [r2, #0]
C:/Users/alon/Desktop/github/iot-fan_at_cnblogs/CH577_CH578_CH579/AN/CH579EVT_USB_DISK_TEST/SRC/StdPeriphDriver/CH57x_gpio.c:110
            break;

        default:
            break;
    }
}
    3546:	bd00      	pop	{pc}
C:/Users/alon/Desktop/github/iot-fan_at_cnblogs/CH577_CH578_CH579/AN/CH579EVT_USB_DISK_TEST/SRC/StdPeriphDriver/CH57x_gpio.c:92
            R32_PB_PD_DRV |= pin;
    3548:	6808      	ldr	r0, [r1, #0]
    354a:	4318      	orrs	r0, r3
    354c:	e7ec      	b.n	3528 <GPIOB_ModeCfg+0x1c>
C:/Users/alon/Desktop/github/iot-fan_at_cnblogs/CH577_CH578_CH579/AN/CH579EVT_USB_DISK_TEST/SRC/StdPeriphDriver/CH57x_gpio.c:98
            R32_PB_PD_DRV &= ~pin;
    354e:	6808      	ldr	r0, [r1, #0]
    3550:	4398      	bics	r0, r3
C:/Users/alon/Desktop/github/iot-fan_at_cnblogs/CH577_CH578_CH579/AN/CH579EVT_USB_DISK_TEST/SRC/StdPeriphDriver/CH57x_gpio.c:103
            R32_PB_PD_DRV |= pin;
    3552:	6008      	str	r0, [r1, #0]
C:/Users/alon/Desktop/github/iot-fan_at_cnblogs/CH577_CH578_CH579/AN/CH579EVT_USB_DISK_TEST/SRC/StdPeriphDriver/CH57x_gpio.c:104
            R32_PB_DIR    |= pin;
    3554:	6810      	ldr	r0, [r2, #0]
    3556:	4303      	orrs	r3, r0
    3558:	6013      	str	r3, [r2, #0]
C:/Users/alon/Desktop/github/iot-fan_at_cnblogs/CH577_CH578_CH579/AN/CH579EVT_USB_DISK_TEST/SRC/StdPeriphDriver/CH57x_gpio.c:110
}
    355a:	e7f4      	b.n	3546 <GPIOB_ModeCfg+0x3a>
C:/Users/alon/Desktop/github/iot-fan_at_cnblogs/CH577_CH578_CH579/AN/CH579EVT_USB_DISK_TEST/SRC/StdPeriphDriver/CH57x_gpio.c:103
            R32_PB_PD_DRV |= pin;
    355c:	6808      	ldr	r0, [r1, #0]
    355e:	4318      	orrs	r0, r3
    3560:	e7f7      	b.n	3552 <GPIOB_ModeCfg+0x46>
    3562:	46c0      	nop			; (mov r8, r8)
    3564:	400010d4 	.word	0x400010d4
    3568:	400010c0 	.word	0x400010c0
    356c:	400010d0 	.word	0x400010d0

00003570 <NMI_Handler>:
NMI_Handler():
C:/Users/alon/Desktop/github/iot-fan_at_cnblogs/CH577_CH578_CH579/AN/CH579EVT_USB_DISK_TEST/SRC/StdPeriphDriver/CH57x_int.c:22
//__attribute__((section("NMICode")))
void NMI_Handler( void )    
{
    UINT32  i=0;
	
		if( (R8_HFCK_PWR_CTRL & RB_CLK_INT32M_PON) == 0 )
    3570:	2108      	movs	r1, #8
C:/Users/alon/Desktop/github/iot-fan_at_cnblogs/CH577_CH578_CH579/AN/CH579EVT_USB_DISK_TEST/SRC/StdPeriphDriver/CH57x_int.c:19
{
    3572:	b5f0      	push	{r4, r5, r6, r7, lr}
C:/Users/alon/Desktop/github/iot-fan_at_cnblogs/CH577_CH578_CH579/AN/CH579EVT_USB_DISK_TEST/SRC/StdPeriphDriver/CH57x_int.c:22
		if( (R8_HFCK_PWR_CTRL & RB_CLK_INT32M_PON) == 0 )
    3574:	4a19      	ldr	r2, [pc, #100]	; (35dc <NMI_Handler+0x6c>)
    3576:	4b1a      	ldr	r3, [pc, #104]	; (35e0 <NMI_Handler+0x70>)
    3578:	7810      	ldrb	r0, [r2, #0]
    357a:	4208      	tst	r0, r1
    357c:	d106      	bne.n	358c <NMI_Handler+0x1c>
C:/Users/alon/Desktop/github/iot-fan_at_cnblogs/CH577_CH578_CH579/AN/CH579EVT_USB_DISK_TEST/SRC/StdPeriphDriver/CH57x_int.c:24
		{
		    R8_SAFE_ACCESS_SIG = SAFE_ACCESS_SIG1;		
    357e:	2057      	movs	r0, #87	; 0x57
    3580:	7018      	strb	r0, [r3, #0]
C:/Users/alon/Desktop/github/iot-fan_at_cnblogs/CH577_CH578_CH579/AN/CH579EVT_USB_DISK_TEST/SRC/StdPeriphDriver/CH57x_int.c:25
				R8_SAFE_ACCESS_SIG = SAFE_ACCESS_SIG2;
    3582:	3051      	adds	r0, #81	; 0x51
    3584:	7018      	strb	r0, [r3, #0]
C:/Users/alon/Desktop/github/iot-fan_at_cnblogs/CH577_CH578_CH579/AN/CH579EVT_USB_DISK_TEST/SRC/StdPeriphDriver/CH57x_int.c:26
				R8_HFCK_PWR_CTRL |= RB_CLK_INT32M_PON;							// ¥Úø™ƒ⁄≤ø32M
    3586:	7810      	ldrb	r0, [r2, #0]
    3588:	4301      	orrs	r1, r0
    358a:	7011      	strb	r1, [r2, #0]
C:/Users/alon/Desktop/github/iot-fan_at_cnblogs/CH577_CH578_CH579/AN/CH579EVT_USB_DISK_TEST/SRC/StdPeriphDriver/CH57x_int.c:30
		}
    R8_SAFE_ACCESS_SIG = SAFE_ACCESS_SIG1;		
    R8_SAFE_ACCESS_SIG = SAFE_ACCESS_SIG2;
    R16_CLK_SYS_CFG = 5;		        												// Ωµ∆µ HSI/5=6.4M
    358c:	2505      	movs	r5, #5
C:/Users/alon/Desktop/github/iot-fan_at_cnblogs/CH577_CH578_CH579/AN/CH579EVT_USB_DISK_TEST/SRC/StdPeriphDriver/CH57x_int.c:28
    R8_SAFE_ACCESS_SIG = SAFE_ACCESS_SIG1;		
    358e:	2057      	movs	r0, #87	; 0x57
C:/Users/alon/Desktop/github/iot-fan_at_cnblogs/CH577_CH578_CH579/AN/CH579EVT_USB_DISK_TEST/SRC/StdPeriphDriver/CH57x_int.c:29
    R8_SAFE_ACCESS_SIG = SAFE_ACCESS_SIG2;
    3590:	21a8      	movs	r1, #168	; 0xa8
C:/Users/alon/Desktop/github/iot-fan_at_cnblogs/CH577_CH578_CH579/AN/CH579EVT_USB_DISK_TEST/SRC/StdPeriphDriver/CH57x_int.c:30
    R16_CLK_SYS_CFG = 5;		        												// Ωµ∆µ HSI/5=6.4M
    3592:	4c14      	ldr	r4, [pc, #80]	; (35e4 <NMI_Handler+0x74>)
C:/Users/alon/Desktop/github/iot-fan_at_cnblogs/CH577_CH578_CH579/AN/CH579EVT_USB_DISK_TEST/SRC/StdPeriphDriver/CH57x_int.c:28
    R8_SAFE_ACCESS_SIG = SAFE_ACCESS_SIG1;		
    3594:	7018      	strb	r0, [r3, #0]
C:/Users/alon/Desktop/github/iot-fan_at_cnblogs/CH577_CH578_CH579/AN/CH579EVT_USB_DISK_TEST/SRC/StdPeriphDriver/CH57x_int.c:29
    R8_SAFE_ACCESS_SIG = SAFE_ACCESS_SIG2;
    3596:	7019      	strb	r1, [r3, #0]
C:/Users/alon/Desktop/github/iot-fan_at_cnblogs/CH577_CH578_CH579/AN/CH579EVT_USB_DISK_TEST/SRC/StdPeriphDriver/CH57x_int.c:30
    R16_CLK_SYS_CFG = 5;		        												// Ωµ∆µ HSI/5=6.4M
    3598:	8025      	strh	r5, [r4, #0]
C:/Users/alon/Desktop/github/iot-fan_at_cnblogs/CH577_CH578_CH579/AN/CH579EVT_USB_DISK_TEST/SRC/StdPeriphDriver/CH57x_int.c:31
    R16_POWER_PLAN &= ~(RB_PWR_DCDC_EN|RB_PWR_DCDC_PRE);		// ≈‘¬∑ DC/DC 
    359a:	4d13      	ldr	r5, [pc, #76]	; (35e8 <NMI_Handler+0x78>)
    359c:	4e13      	ldr	r6, [pc, #76]	; (35ec <NMI_Handler+0x7c>)
    359e:	882c      	ldrh	r4, [r5, #0]
C:/Users/alon/Desktop/github/iot-fan_at_cnblogs/CH577_CH578_CH579/AN/CH579EVT_USB_DISK_TEST/SRC/StdPeriphDriver/CH57x_int.c:39
   
    while(1)
    { 
        if(R8_BAT_STATUS & RB_BAT_STAT_LOWER)   i = 0;
        else i++;
        if( i>2000 )
    35a0:	27fa      	movs	r7, #250	; 0xfa
C:/Users/alon/Desktop/github/iot-fan_at_cnblogs/CH577_CH578_CH579/AN/CH579EVT_USB_DISK_TEST/SRC/StdPeriphDriver/CH57x_int.c:31
    R16_POWER_PLAN &= ~(RB_PWR_DCDC_EN|RB_PWR_DCDC_PRE);		// ≈‘¬∑ DC/DC 
    35a2:	4034      	ands	r4, r6
    35a4:	802c      	strh	r4, [r5, #0]
C:/Users/alon/Desktop/github/iot-fan_at_cnblogs/CH577_CH578_CH579/AN/CH579EVT_USB_DISK_TEST/SRC/StdPeriphDriver/CH57x_int.c:32
		R8_HFCK_PWR_CTRL |= RB_CLK_PLL_PON;											// ¥Úø™PLL
    35a6:	2410      	movs	r4, #16
    35a8:	7815      	ldrb	r5, [r2, #0]
C:/Users/alon/Desktop/github/iot-fan_at_cnblogs/CH577_CH578_CH579/AN/CH579EVT_USB_DISK_TEST/SRC/StdPeriphDriver/CH57x_int.c:39
        if( i>2000 )
    35aa:	00ff      	lsls	r7, r7, #3
C:/Users/alon/Desktop/github/iot-fan_at_cnblogs/CH577_CH578_CH579/AN/CH579EVT_USB_DISK_TEST/SRC/StdPeriphDriver/CH57x_int.c:32
		R8_HFCK_PWR_CTRL |= RB_CLK_PLL_PON;											// ¥Úø™PLL
    35ac:	432c      	orrs	r4, r5
    35ae:	7014      	strb	r4, [r2, #0]
C:/Users/alon/Desktop/github/iot-fan_at_cnblogs/CH577_CH578_CH579/AN/CH579EVT_USB_DISK_TEST/SRC/StdPeriphDriver/CH57x_int.c:33
		R8_SAFE_ACCESS_SIG = 0;
    35b0:	2200      	movs	r2, #0
C:/Users/alon/Desktop/github/iot-fan_at_cnblogs/CH577_CH578_CH579/AN/CH579EVT_USB_DISK_TEST/SRC/StdPeriphDriver/CH57x_int.c:37
        if(R8_BAT_STATUS & RB_BAT_STAT_LOWER)   i = 0;
    35b2:	2401      	movs	r4, #1
C:/Users/alon/Desktop/github/iot-fan_at_cnblogs/CH577_CH578_CH579/AN/CH579EVT_USB_DISK_TEST/SRC/StdPeriphDriver/CH57x_int.c:33
		R8_SAFE_ACCESS_SIG = 0;
    35b4:	701a      	strb	r2, [r3, #0]
C:/Users/alon/Desktop/github/iot-fan_at_cnblogs/CH577_CH578_CH579/AN/CH579EVT_USB_DISK_TEST/SRC/StdPeriphDriver/CH57x_int.c:37
        if(R8_BAT_STATUS & RB_BAT_STAT_LOWER)   i = 0;
    35b6:	4d0e      	ldr	r5, [pc, #56]	; (35f0 <NMI_Handler+0x80>)
    35b8:	46ac      	mov	ip, r5
    35ba:	4665      	mov	r5, ip
    35bc:	782d      	ldrb	r5, [r5, #0]
    35be:	002e      	movs	r6, r5
    35c0:	4026      	ands	r6, r4
    35c2:	4225      	tst	r5, r4
    35c4:	d108      	bne.n	35d8 <NMI_Handler+0x68>
C:/Users/alon/Desktop/github/iot-fan_at_cnblogs/CH577_CH578_CH579/AN/CH579EVT_USB_DISK_TEST/SRC/StdPeriphDriver/CH57x_int.c:38
        else i++;
    35c6:	3201      	adds	r2, #1
C:/Users/alon/Desktop/github/iot-fan_at_cnblogs/CH577_CH578_CH579/AN/CH579EVT_USB_DISK_TEST/SRC/StdPeriphDriver/CH57x_int.c:39
        if( i>2000 )
    35c8:	42ba      	cmp	r2, r7
    35ca:	d9f4      	bls.n	35b6 <NMI_Handler+0x46>
C:/Users/alon/Desktop/github/iot-fan_at_cnblogs/CH577_CH578_CH579/AN/CH579EVT_USB_DISK_TEST/SRC/StdPeriphDriver/CH57x_int.c:44
				{
					/* ÷¥––œµÕ≥∏¥Œª */
					R8_SAFE_ACCESS_SIG = SAFE_ACCESS_SIG1;
					R8_SAFE_ACCESS_SIG = SAFE_ACCESS_SIG2;
					R8_RST_WDOG_CTRL = RB_SOFTWARE_RESET;
    35cc:	4d09      	ldr	r5, [pc, #36]	; (35f4 <NMI_Handler+0x84>)
C:/Users/alon/Desktop/github/iot-fan_at_cnblogs/CH577_CH578_CH579/AN/CH579EVT_USB_DISK_TEST/SRC/StdPeriphDriver/CH57x_int.c:42
					R8_SAFE_ACCESS_SIG = SAFE_ACCESS_SIG1;
    35ce:	7018      	strb	r0, [r3, #0]
C:/Users/alon/Desktop/github/iot-fan_at_cnblogs/CH577_CH578_CH579/AN/CH579EVT_USB_DISK_TEST/SRC/StdPeriphDriver/CH57x_int.c:43
					R8_SAFE_ACCESS_SIG = SAFE_ACCESS_SIG2;
    35d0:	7019      	strb	r1, [r3, #0]
C:/Users/alon/Desktop/github/iot-fan_at_cnblogs/CH577_CH578_CH579/AN/CH579EVT_USB_DISK_TEST/SRC/StdPeriphDriver/CH57x_int.c:44
					R8_RST_WDOG_CTRL = RB_SOFTWARE_RESET;
    35d2:	702c      	strb	r4, [r5, #0]
C:/Users/alon/Desktop/github/iot-fan_at_cnblogs/CH577_CH578_CH579/AN/CH579EVT_USB_DISK_TEST/SRC/StdPeriphDriver/CH57x_int.c:45
					R8_SAFE_ACCESS_SIG = 0;
    35d4:	701e      	strb	r6, [r3, #0]
    35d6:	e7ee      	b.n	35b6 <NMI_Handler+0x46>
C:/Users/alon/Desktop/github/iot-fan_at_cnblogs/CH577_CH578_CH579/AN/CH579EVT_USB_DISK_TEST/SRC/StdPeriphDriver/CH57x_int.c:37
        if(R8_BAT_STATUS & RB_BAT_STAT_LOWER)   i = 0;
    35d8:	2200      	movs	r2, #0
    35da:	e7ee      	b.n	35ba <NMI_Handler+0x4a>
    35dc:	4000100a 	.word	0x4000100a
    35e0:	40001040 	.word	0x40001040
    35e4:	40001008 	.word	0x40001008
    35e8:	40001020 	.word	0x40001020
    35ec:	fffff9ff 	.word	0xfffff9ff
    35f0:	40001026 	.word	0x40001026
    35f4:	40001046 	.word	0x40001046

000035f8 <PWR_UnitModCfg>:
PWR_UnitModCfg():
C:/Users/alon/Desktop/github/iot-fan_at_cnblogs/CH577_CH578_CH579/AN/CH579EVT_USB_DISK_TEST/SRC/StdPeriphDriver/CH57x_pwr.c:53
                   unit:
                    please refer to unit of controllable power supply 				
* Return         : None
*******************************************************************************/
void PWR_UnitModCfg( UINT8 s, UINT8 unit )
{
    35f8:	b5f0      	push	{r4, r5, r6, r7, lr}
    35fa:	2757      	movs	r7, #87	; 0x57
    35fc:	26a8      	movs	r6, #168	; 0xa8
    35fe:	4a16      	ldr	r2, [pc, #88]	; (3658 <PWR_UnitModCfg+0x60>)
    3600:	4d16      	ldr	r5, [pc, #88]	; (365c <PWR_UnitModCfg+0x64>)
C:/Users/alon/Desktop/github/iot-fan_at_cnblogs/CH577_CH578_CH579/AN/CH579EVT_USB_DISK_TEST/SRC/StdPeriphDriver/CH57x_pwr.c:56
    if(s == DISABLE)		//πÿ±’
    {
    	R8_SAFE_ACCESS_SIG = SAFE_ACCESS_SIG1;		
    3602:	7017      	strb	r7, [r2, #0]
C:/Users/alon/Desktop/github/iot-fan_at_cnblogs/CH577_CH578_CH579/AN/CH579EVT_USB_DISK_TEST/SRC/StdPeriphDriver/CH57x_pwr.c:57
    	R8_SAFE_ACCESS_SIG = SAFE_ACCESS_SIG2;
    3604:	4c16      	ldr	r4, [pc, #88]	; (3660 <PWR_UnitModCfg+0x68>)
    3606:	b24b      	sxtb	r3, r1
    3608:	7016      	strb	r6, [r2, #0]
C:/Users/alon/Desktop/github/iot-fan_at_cnblogs/CH577_CH578_CH579/AN/CH579EVT_USB_DISK_TEST/SRC/StdPeriphDriver/CH57x_pwr.c:54
    if(s == DISABLE)		//πÿ±’
    360a:	2800      	cmp	r0, #0
    360c:	d113      	bne.n	3636 <PWR_UnitModCfg+0x3e>
C:/Users/alon/Desktop/github/iot-fan_at_cnblogs/CH577_CH578_CH579/AN/CH579EVT_USB_DISK_TEST/SRC/StdPeriphDriver/CH57x_pwr.c:58
        if(unit&UNIT_ETH_PHY)		R8_SLP_POWER_CTRL |= RB_SLP_ETH_PWR_DN;
    360e:	2b00      	cmp	r3, #0
    3610:	da04      	bge.n	361c <PWR_UnitModCfg+0x24>
C:/Users/alon/Desktop/github/iot-fan_at_cnblogs/CH577_CH578_CH579/AN/CH579EVT_USB_DISK_TEST/SRC/StdPeriphDriver/CH57x_pwr.c:58 (discriminator 1)
    3612:	2302      	movs	r3, #2
    3614:	4813      	ldr	r0, [pc, #76]	; (3664 <PWR_UnitModCfg+0x6c>)
    3616:	7806      	ldrb	r6, [r0, #0]
    3618:	4333      	orrs	r3, r6
    361a:	7003      	strb	r3, [r0, #0]
C:/Users/alon/Desktop/github/iot-fan_at_cnblogs/CH577_CH578_CH579/AN/CH579EVT_USB_DISK_TEST/SRC/StdPeriphDriver/CH57x_pwr.c:59
        R8_HFCK_PWR_CTRL &= ~(unit&0x1c);
    361c:	201c      	movs	r0, #28
    361e:	782b      	ldrb	r3, [r5, #0]
    3620:	4008      	ands	r0, r1
    3622:	4383      	bics	r3, r0
C:/Users/alon/Desktop/github/iot-fan_at_cnblogs/CH577_CH578_CH579/AN/CH579EVT_USB_DISK_TEST/SRC/StdPeriphDriver/CH57x_pwr.c:60
        R8_CK32K_CONFIG &= ~(unit&0x03);
    3624:	2003      	movs	r0, #3
C:/Users/alon/Desktop/github/iot-fan_at_cnblogs/CH577_CH578_CH579/AN/CH579EVT_USB_DISK_TEST/SRC/StdPeriphDriver/CH57x_pwr.c:59
        R8_HFCK_PWR_CTRL &= ~(unit&0x1c);
    3626:	702b      	strb	r3, [r5, #0]
C:/Users/alon/Desktop/github/iot-fan_at_cnblogs/CH577_CH578_CH579/AN/CH579EVT_USB_DISK_TEST/SRC/StdPeriphDriver/CH57x_pwr.c:60
        R8_CK32K_CONFIG &= ~(unit&0x03);
    3628:	7823      	ldrb	r3, [r4, #0]
    362a:	4001      	ands	r1, r0
    362c:	438b      	bics	r3, r1
C:/Users/alon/Desktop/github/iot-fan_at_cnblogs/CH577_CH578_CH579/AN/CH579EVT_USB_DISK_TEST/SRC/StdPeriphDriver/CH57x_pwr.c:68
    {
    	R8_SAFE_ACCESS_SIG = SAFE_ACCESS_SIG1;		
    	R8_SAFE_ACCESS_SIG = SAFE_ACCESS_SIG2;
        if(unit&UNIT_ETH_PHY)		R8_SLP_POWER_CTRL &= ~RB_SLP_ETH_PWR_DN;
        R8_HFCK_PWR_CTRL |= (unit&0x1c);
        R8_CK32K_CONFIG |= (unit&0x03);
    362e:	7023      	strb	r3, [r4, #0]
C:/Users/alon/Desktop/github/iot-fan_at_cnblogs/CH577_CH578_CH579/AN/CH579EVT_USB_DISK_TEST/SRC/StdPeriphDriver/CH57x_pwr.c:70
    }
    R8_SAFE_ACCESS_SIG = 0;
    3630:	2300      	movs	r3, #0
    3632:	7013      	strb	r3, [r2, #0]
C:/Users/alon/Desktop/github/iot-fan_at_cnblogs/CH577_CH578_CH579/AN/CH579EVT_USB_DISK_TEST/SRC/StdPeriphDriver/CH57x_pwr.c:71
}
    3634:	bdf0      	pop	{r4, r5, r6, r7, pc}
C:/Users/alon/Desktop/github/iot-fan_at_cnblogs/CH577_CH578_CH579/AN/CH579EVT_USB_DISK_TEST/SRC/StdPeriphDriver/CH57x_pwr.c:66
        if(unit&UNIT_ETH_PHY)		R8_SLP_POWER_CTRL &= ~RB_SLP_ETH_PWR_DN;
    3636:	2b00      	cmp	r3, #0
    3638:	da04      	bge.n	3644 <PWR_UnitModCfg+0x4c>
C:/Users/alon/Desktop/github/iot-fan_at_cnblogs/CH577_CH578_CH579/AN/CH579EVT_USB_DISK_TEST/SRC/StdPeriphDriver/CH57x_pwr.c:66 (discriminator 1)
    363a:	2602      	movs	r6, #2
    363c:	4809      	ldr	r0, [pc, #36]	; (3664 <PWR_UnitModCfg+0x6c>)
    363e:	7801      	ldrb	r1, [r0, #0]
    3640:	43b1      	bics	r1, r6
    3642:	7001      	strb	r1, [r0, #0]
C:/Users/alon/Desktop/github/iot-fan_at_cnblogs/CH577_CH578_CH579/AN/CH579EVT_USB_DISK_TEST/SRC/StdPeriphDriver/CH57x_pwr.c:67
        R8_HFCK_PWR_CTRL |= (unit&0x1c);
    3644:	211c      	movs	r1, #28
    3646:	7828      	ldrb	r0, [r5, #0]
    3648:	4019      	ands	r1, r3
    364a:	4301      	orrs	r1, r0
C:/Users/alon/Desktop/github/iot-fan_at_cnblogs/CH577_CH578_CH579/AN/CH579EVT_USB_DISK_TEST/SRC/StdPeriphDriver/CH57x_pwr.c:68
        R8_CK32K_CONFIG |= (unit&0x03);
    364c:	2003      	movs	r0, #3
C:/Users/alon/Desktop/github/iot-fan_at_cnblogs/CH577_CH578_CH579/AN/CH579EVT_USB_DISK_TEST/SRC/StdPeriphDriver/CH57x_pwr.c:67
        R8_HFCK_PWR_CTRL |= (unit&0x1c);
    364e:	7029      	strb	r1, [r5, #0]
C:/Users/alon/Desktop/github/iot-fan_at_cnblogs/CH577_CH578_CH579/AN/CH579EVT_USB_DISK_TEST/SRC/StdPeriphDriver/CH57x_pwr.c:68
        R8_CK32K_CONFIG |= (unit&0x03);
    3650:	7821      	ldrb	r1, [r4, #0]
    3652:	4003      	ands	r3, r0
    3654:	430b      	orrs	r3, r1
    3656:	e7ea      	b.n	362e <PWR_UnitModCfg+0x36>
    3658:	40001040 	.word	0x40001040
    365c:	4000100a 	.word	0x4000100a
    3660:	4000102f 	.word	0x4000102f
    3664:	4000100f 	.word	0x4000100f

00003668 <PowerMonitor>:
PowerMonitor():
C:/Users/alon/Desktop/github/iot-fan_at_cnblogs/CH577_CH578_CH579/AN/CH579EVT_USB_DISK_TEST/SRC/StdPeriphDriver/CH57x_pwr.c:141
                    ENABLE  - ¥Úø™¥Àπ¶ƒ‹   
                    DISABLE - πÿ±’¥Àπ¶ƒ‹
* Return         : None
*******************************************************************************/
void PowerMonitor( UINT8 s )
{
    3668:	b5f8      	push	{r3, r4, r5, r6, r7, lr}
    366a:	2757      	movs	r7, #87	; 0x57
    366c:	26a8      	movs	r6, #168	; 0xa8
    366e:	4c0c      	ldr	r4, [pc, #48]	; (36a0 <PowerMonitor+0x38>)
    3670:	4d0c      	ldr	r5, [pc, #48]	; (36a4 <PowerMonitor+0x3c>)
C:/Users/alon/Desktop/github/iot-fan_at_cnblogs/CH577_CH578_CH579/AN/CH579EVT_USB_DISK_TEST/SRC/StdPeriphDriver/CH57x_pwr.c:144
    if( s == DISABLE )
    {
        R8_SAFE_ACCESS_SIG = SAFE_ACCESS_SIG1;		
    3672:	7027      	strb	r7, [r4, #0]
C:/Users/alon/Desktop/github/iot-fan_at_cnblogs/CH577_CH578_CH579/AN/CH579EVT_USB_DISK_TEST/SRC/StdPeriphDriver/CH57x_pwr.c:145
        R8_SAFE_ACCESS_SIG = SAFE_ACCESS_SIG2;
    3674:	7026      	strb	r6, [r4, #0]
C:/Users/alon/Desktop/github/iot-fan_at_cnblogs/CH577_CH578_CH579/AN/CH579EVT_USB_DISK_TEST/SRC/StdPeriphDriver/CH57x_pwr.c:142
    if( s == DISABLE )
    3676:	2800      	cmp	r0, #0
    3678:	d102      	bne.n	3680 <PowerMonitor+0x18>
C:/Users/alon/Desktop/github/iot-fan_at_cnblogs/CH577_CH578_CH579/AN/CH579EVT_USB_DISK_TEST/SRC/StdPeriphDriver/CH57x_pwr.c:146
        R8_BAT_DET_CTRL = 0;
    367a:	7028      	strb	r0, [r5, #0]
C:/Users/alon/Desktop/github/iot-fan_at_cnblogs/CH577_CH578_CH579/AN/CH579EVT_USB_DISK_TEST/SRC/StdPeriphDriver/CH57x_pwr.c:147
        R8_SAFE_ACCESS_SIG = 0; 
    367c:	7020      	strb	r0, [r4, #0]
C:/Users/alon/Desktop/github/iot-fan_at_cnblogs/CH577_CH578_CH579/AN/CH579EVT_USB_DISK_TEST/SRC/StdPeriphDriver/CH57x_pwr.c:162
        R8_SAFE_ACCESS_SIG = SAFE_ACCESS_SIG1;		
        R8_SAFE_ACCESS_SIG = SAFE_ACCESS_SIG2;
        R8_BAT_DET_CTRL = RB_BAT_LOW_IE|RB_BAT_LOWER_IE|RB_BAT_DET_EN;  
        R8_SAFE_ACCESS_SIG = 0;  
    }   
}
    367e:	bdf8      	pop	{r3, r4, r5, r6, r7, pc}
C:/Users/alon/Desktop/github/iot-fan_at_cnblogs/CH577_CH578_CH579/AN/CH579EVT_USB_DISK_TEST/SRC/StdPeriphDriver/CH57x_pwr.c:153
        R8_BAT_DET_CFG = 1;                     // 2.05V - 2.33V
    3680:	2001      	movs	r0, #1
    3682:	4b09      	ldr	r3, [pc, #36]	; (36a8 <PowerMonitor+0x40>)
    3684:	7018      	strb	r0, [r3, #0]
C:/Users/alon/Desktop/github/iot-fan_at_cnblogs/CH577_CH578_CH579/AN/CH579EVT_USB_DISK_TEST/SRC/StdPeriphDriver/CH57x_pwr.c:155
        R8_SAFE_ACCESS_SIG = 0; 
    3686:	2300      	movs	r3, #0
C:/Users/alon/Desktop/github/iot-fan_at_cnblogs/CH577_CH578_CH579/AN/CH579EVT_USB_DISK_TEST/SRC/StdPeriphDriver/CH57x_pwr.c:154
        R8_BAT_DET_CTRL = RB_BAT_DET_EN;
    3688:	7028      	strb	r0, [r5, #0]
C:/Users/alon/Desktop/github/iot-fan_at_cnblogs/CH577_CH578_CH579/AN/CH579EVT_USB_DISK_TEST/SRC/StdPeriphDriver/CH57x_pwr.c:155
        R8_SAFE_ACCESS_SIG = 0; 
    368a:	7023      	strb	r3, [r4, #0]
C:/Users/alon/Desktop/github/iot-fan_at_cnblogs/CH577_CH578_CH579/AN/CH579EVT_USB_DISK_TEST/SRC/StdPeriphDriver/CH57x_pwr.c:156
        mDelayuS(1); 	
    368c:	f000 f8aa 	bl	37e4 <mDelayuS>
C:/Users/alon/Desktop/github/iot-fan_at_cnblogs/CH577_CH578_CH579/AN/CH579EVT_USB_DISK_TEST/SRC/StdPeriphDriver/CH57x_pwr.c:159
        R8_BAT_DET_CTRL = RB_BAT_LOW_IE|RB_BAT_LOWER_IE|RB_BAT_DET_EN;  
    3690:	230d      	movs	r3, #13
C:/Users/alon/Desktop/github/iot-fan_at_cnblogs/CH577_CH578_CH579/AN/CH579EVT_USB_DISK_TEST/SRC/StdPeriphDriver/CH57x_pwr.c:157
        R8_SAFE_ACCESS_SIG = SAFE_ACCESS_SIG1;		
    3692:	7027      	strb	r7, [r4, #0]
C:/Users/alon/Desktop/github/iot-fan_at_cnblogs/CH577_CH578_CH579/AN/CH579EVT_USB_DISK_TEST/SRC/StdPeriphDriver/CH57x_pwr.c:158
        R8_SAFE_ACCESS_SIG = SAFE_ACCESS_SIG2;
    3694:	7026      	strb	r6, [r4, #0]
C:/Users/alon/Desktop/github/iot-fan_at_cnblogs/CH577_CH578_CH579/AN/CH579EVT_USB_DISK_TEST/SRC/StdPeriphDriver/CH57x_pwr.c:159
        R8_BAT_DET_CTRL = RB_BAT_LOW_IE|RB_BAT_LOWER_IE|RB_BAT_DET_EN;  
    3696:	702b      	strb	r3, [r5, #0]
C:/Users/alon/Desktop/github/iot-fan_at_cnblogs/CH577_CH578_CH579/AN/CH579EVT_USB_DISK_TEST/SRC/StdPeriphDriver/CH57x_pwr.c:160
        R8_SAFE_ACCESS_SIG = 0;  
    3698:	2300      	movs	r3, #0
    369a:	7023      	strb	r3, [r4, #0]
C:/Users/alon/Desktop/github/iot-fan_at_cnblogs/CH577_CH578_CH579/AN/CH579EVT_USB_DISK_TEST/SRC/StdPeriphDriver/CH57x_pwr.c:162
}
    369c:	e7ef      	b.n	367e <PowerMonitor+0x16>
    369e:	46c0      	nop			; (mov r8, r8)
    36a0:	40001040 	.word	0x40001040
    36a4:	40001024 	.word	0x40001024
    36a8:	40001025 	.word	0x40001025

000036ac <SPI0_MasterDefInit>:
SPI0_MasterDefInit():
C:/Users/alon/Desktop/github/iot-fan_at_cnblogs/CH577_CH578_CH579/AN/CH579EVT_USB_DISK_TEST/SRC/StdPeriphDriver/CH57x_spi0.c:20
* Input          : None			   				
* Return         : None
*******************************************************************************/
void SPI0_MasterDefInit( void )
{
    R8_SPI0_CLOCK_DIV = 4;		// ‰∏ªÈ¢ëÊó∂Èíü4ÂàÜÈ¢ë
    36ac:	2204      	movs	r2, #4
    36ae:	4b08      	ldr	r3, [pc, #32]	; (36d0 <SPI0_MasterDefInit+0x24>)
    36b0:	701a      	strb	r2, [r3, #0]
C:/Users/alon/Desktop/github/iot-fan_at_cnblogs/CH577_CH578_CH579/AN/CH579EVT_USB_DISK_TEST/SRC/StdPeriphDriver/CH57x_spi0.c:21
    R8_SPI0_CTRL_MOD = RB_SPI_ALL_CLEAR;
    36b2:	4b08      	ldr	r3, [pc, #32]	; (36d4 <SPI0_MasterDefInit+0x28>)
    36b4:	3a02      	subs	r2, #2
    36b6:	701a      	strb	r2, [r3, #0]
C:/Users/alon/Desktop/github/iot-fan_at_cnblogs/CH577_CH578_CH579/AN/CH579EVT_USB_DISK_TEST/SRC/StdPeriphDriver/CH57x_spi0.c:22
    R8_SPI0_CTRL_MOD = RB_SPI_MOSI_OE | RB_SPI_SCK_OE ;
    36b8:	325e      	adds	r2, #94	; 0x5e
    36ba:	701a      	strb	r2, [r3, #0]
C:/Users/alon/Desktop/github/iot-fan_at_cnblogs/CH577_CH578_CH579/AN/CH579EVT_USB_DISK_TEST/SRC/StdPeriphDriver/CH57x_spi0.c:23
    R8_SPI0_CTRL_CFG |= RB_SPI_AUTO_IF;		   // ËÆøÈóÆBUFFER/FIFOËá™Âä®Ê∏ÖÈô§IF_BYTE_ENDÊ†áÂøó
    36bc:	4b06      	ldr	r3, [pc, #24]	; (36d8 <SPI0_MasterDefInit+0x2c>)
    36be:	3a50      	subs	r2, #80	; 0x50
    36c0:	7819      	ldrb	r1, [r3, #0]
    36c2:	430a      	orrs	r2, r1
C:/Users/alon/Desktop/github/iot-fan_at_cnblogs/CH577_CH578_CH579/AN/CH579EVT_USB_DISK_TEST/SRC/StdPeriphDriver/CH57x_spi0.c:24
    R8_SPI0_CTRL_CFG &= ~RB_SPI_DMA_ENABLE;    // ‰∏çÂêØÂä®DMAÊñπÂºè 
    36c4:	2101      	movs	r1, #1
C:/Users/alon/Desktop/github/iot-fan_at_cnblogs/CH577_CH578_CH579/AN/CH579EVT_USB_DISK_TEST/SRC/StdPeriphDriver/CH57x_spi0.c:23
    R8_SPI0_CTRL_CFG |= RB_SPI_AUTO_IF;		   // ËÆøÈóÆBUFFER/FIFOËá™Âä®Ê∏ÖÈô§IF_BYTE_ENDÊ†áÂøó
    36c6:	701a      	strb	r2, [r3, #0]
C:/Users/alon/Desktop/github/iot-fan_at_cnblogs/CH577_CH578_CH579/AN/CH579EVT_USB_DISK_TEST/SRC/StdPeriphDriver/CH57x_spi0.c:24
    R8_SPI0_CTRL_CFG &= ~RB_SPI_DMA_ENABLE;    // ‰∏çÂêØÂä®DMAÊñπÂºè 
    36c8:	781a      	ldrb	r2, [r3, #0]
    36ca:	438a      	bics	r2, r1
    36cc:	701a      	strb	r2, [r3, #0]
C:/Users/alon/Desktop/github/iot-fan_at_cnblogs/CH577_CH578_CH579/AN/CH579EVT_USB_DISK_TEST/SRC/StdPeriphDriver/CH57x_spi0.c:25
}
    36ce:	4770      	bx	lr
    36d0:	40004003 	.word	0x40004003
    36d4:	40004000 	.word	0x40004000
    36d8:	40004001 	.word	0x40004001

000036dc <SPI0_CLKCfg>:
SPI0_CLKCfg():
C:/Users/alon/Desktop/github/iot-fan_at_cnblogs/CH577_CH578_CH579/AN/CH579EVT_USB_DISK_TEST/SRC/StdPeriphDriver/CH57x_spi0.c:35
* Input          : c: Êó∂ÈíüÂàÜÈ¢ëÁ≥ªÊï∞			   				
* Return         : None
*******************************************************************************/
void SPI0_CLKCfg( UINT8 c )
{
    if(c==2)
    36dc:	4b06      	ldr	r3, [pc, #24]	; (36f8 <SPI0_CLKCfg+0x1c>)
    36de:	2240      	movs	r2, #64	; 0x40
C:/Users/alon/Desktop/github/iot-fan_at_cnblogs/CH577_CH578_CH579/AN/CH579EVT_USB_DISK_TEST/SRC/StdPeriphDriver/CH57x_spi0.c:36
        R8_SPI0_CTRL_CFG |= RB_SPI_MST_DLY_EN;
    36e0:	7819      	ldrb	r1, [r3, #0]
C:/Users/alon/Desktop/github/iot-fan_at_cnblogs/CH577_CH578_CH579/AN/CH579EVT_USB_DISK_TEST/SRC/StdPeriphDriver/CH57x_spi0.c:35
    if(c==2)
    36e2:	2802      	cmp	r0, #2
    36e4:	d104      	bne.n	36f0 <SPI0_CLKCfg+0x14>
C:/Users/alon/Desktop/github/iot-fan_at_cnblogs/CH577_CH578_CH579/AN/CH579EVT_USB_DISK_TEST/SRC/StdPeriphDriver/CH57x_spi0.c:36
        R8_SPI0_CTRL_CFG |= RB_SPI_MST_DLY_EN;
    36e6:	430a      	orrs	r2, r1
    36e8:	701a      	strb	r2, [r3, #0]
C:/Users/alon/Desktop/github/iot-fan_at_cnblogs/CH577_CH578_CH579/AN/CH579EVT_USB_DISK_TEST/SRC/StdPeriphDriver/CH57x_spi0.c:39
    else 
        R8_SPI0_CTRL_CFG &= ~RB_SPI_MST_DLY_EN;
    R8_SPI0_CLOCK_DIV = c;
    36ea:	4b04      	ldr	r3, [pc, #16]	; (36fc <SPI0_CLKCfg+0x20>)
    36ec:	7018      	strb	r0, [r3, #0]
C:/Users/alon/Desktop/github/iot-fan_at_cnblogs/CH577_CH578_CH579/AN/CH579EVT_USB_DISK_TEST/SRC/StdPeriphDriver/CH57x_spi0.c:40
}
    36ee:	4770      	bx	lr
C:/Users/alon/Desktop/github/iot-fan_at_cnblogs/CH577_CH578_CH579/AN/CH579EVT_USB_DISK_TEST/SRC/StdPeriphDriver/CH57x_spi0.c:38
        R8_SPI0_CTRL_CFG &= ~RB_SPI_MST_DLY_EN;
    36f0:	4391      	bics	r1, r2
    36f2:	7019      	strb	r1, [r3, #0]
    36f4:	e7f9      	b.n	36ea <SPI0_CLKCfg+0xe>
    36f6:	46c0      	nop			; (mov r8, r8)
    36f8:	40004001 	.word	0x40004001
    36fc:	40004003 	.word	0x40004003

00003700 <SPI0_DataMode>:
SPI0_DataMode():
C:/Users/alon/Desktop/github/iot-fan_at_cnblogs/CH577_CH578_CH579/AN/CH579EVT_USB_DISK_TEST/SRC/StdPeriphDriver/CH57x_spi0.c:50
* Input          : m: Êï∞ÊçÆÊµÅÊ®°Âºè
					refer to ModeBitOrderTypeDef
* Return         : None
*******************************************************************************/
void SPI0_DataMode( ModeBitOrderTypeDef m )
{
    3700:	b500      	push	{lr}
    3702:	2803      	cmp	r0, #3
    3704:	d80d      	bhi.n	3722 <SPI0_DataMode+0x22>
    3706:	2108      	movs	r1, #8
    3708:	4a0e      	ldr	r2, [pc, #56]	; (3744 <SPI0_DataMode+0x44>)
    370a:	4b0f      	ldr	r3, [pc, #60]	; (3748 <SPI0_DataMode+0x48>)
    370c:	f7fc fcca 	bl	a4 <__gnu_thumb1_case_uqi>
    3710:	15110a02 	.word	0x15110a02
C:/Users/alon/Desktop/github/iot-fan_at_cnblogs/CH577_CH578_CH579/AN/CH579EVT_USB_DISK_TEST/SRC/StdPeriphDriver/CH57x_spi0.c:54
    switch( m )
    {
        case Mode0_LowBitINFront:
            R8_SPI0_CTRL_MOD &= ~RB_SPI_MST_SCK_MOD;
    3714:	7810      	ldrb	r0, [r2, #0]
    3716:	4388      	bics	r0, r1
    3718:	7010      	strb	r0, [r2, #0]
C:/Users/alon/Desktop/github/iot-fan_at_cnblogs/CH577_CH578_CH579/AN/CH579EVT_USB_DISK_TEST/SRC/StdPeriphDriver/CH57x_spi0.c:63
            R8_SPI0_CTRL_MOD &= ~RB_SPI_MST_SCK_MOD;
            R8_SPI0_CTRL_CFG &= ~RB_SPI_BIT_ORDER;
            break;
        case Mode3_LowBitINFront:
            R8_SPI0_CTRL_MOD |= RB_SPI_MST_SCK_MOD;
            R8_SPI0_CTRL_CFG |= RB_SPI_BIT_ORDER;
    371a:	2220      	movs	r2, #32
    371c:	7819      	ldrb	r1, [r3, #0]
    371e:	430a      	orrs	r2, r1
C:/Users/alon/Desktop/github/iot-fan_at_cnblogs/CH577_CH578_CH579/AN/CH579EVT_USB_DISK_TEST/SRC/StdPeriphDriver/CH57x_spi0.c:67
            break;
        case Mode3_HighBitINFront:
            R8_SPI0_CTRL_MOD |= RB_SPI_MST_SCK_MOD;
            R8_SPI0_CTRL_CFG &= ~RB_SPI_BIT_ORDER;
    3720:	701a      	strb	r2, [r3, #0]
C:/Users/alon/Desktop/github/iot-fan_at_cnblogs/CH577_CH578_CH579/AN/CH579EVT_USB_DISK_TEST/SRC/StdPeriphDriver/CH57x_spi0.c:72
            break;
        default:
            break;
    }
}
    3722:	bd00      	pop	{pc}
C:/Users/alon/Desktop/github/iot-fan_at_cnblogs/CH577_CH578_CH579/AN/CH579EVT_USB_DISK_TEST/SRC/StdPeriphDriver/CH57x_spi0.c:58
            R8_SPI0_CTRL_MOD &= ~RB_SPI_MST_SCK_MOD;
    3724:	7810      	ldrb	r0, [r2, #0]
    3726:	4388      	bics	r0, r1
    3728:	7010      	strb	r0, [r2, #0]
C:/Users/alon/Desktop/github/iot-fan_at_cnblogs/CH577_CH578_CH579/AN/CH579EVT_USB_DISK_TEST/SRC/StdPeriphDriver/CH57x_spi0.c:67
            R8_SPI0_CTRL_CFG &= ~RB_SPI_BIT_ORDER;
    372a:	2120      	movs	r1, #32
    372c:	781a      	ldrb	r2, [r3, #0]
    372e:	438a      	bics	r2, r1
    3730:	e7f6      	b.n	3720 <SPI0_DataMode+0x20>
C:/Users/alon/Desktop/github/iot-fan_at_cnblogs/CH577_CH578_CH579/AN/CH579EVT_USB_DISK_TEST/SRC/StdPeriphDriver/CH57x_spi0.c:62
            R8_SPI0_CTRL_MOD |= RB_SPI_MST_SCK_MOD;
    3732:	7810      	ldrb	r0, [r2, #0]
    3734:	4301      	orrs	r1, r0
    3736:	7011      	strb	r1, [r2, #0]
    3738:	e7ef      	b.n	371a <SPI0_DataMode+0x1a>
C:/Users/alon/Desktop/github/iot-fan_at_cnblogs/CH577_CH578_CH579/AN/CH579EVT_USB_DISK_TEST/SRC/StdPeriphDriver/CH57x_spi0.c:66
            R8_SPI0_CTRL_MOD |= RB_SPI_MST_SCK_MOD;
    373a:	7810      	ldrb	r0, [r2, #0]
    373c:	4301      	orrs	r1, r0
    373e:	7011      	strb	r1, [r2, #0]
    3740:	e7f3      	b.n	372a <SPI0_DataMode+0x2a>
    3742:	46c0      	nop			; (mov r8, r8)
    3744:	40004000 	.word	0x40004000
    3748:	40004001 	.word	0x40004001

0000374c <SPI0_MasterSendByte>:
SPI0_MasterSendByte():
C:/Users/alon/Desktop/github/iot-fan_at_cnblogs/CH577_CH578_CH579/AN/CH579EVT_USB_DISK_TEST/SRC/StdPeriphDriver/CH57x_spi0.c:82
* Input          : d: ÂèëÈÄÅÂ≠óËäÇ
* Return         : None
*******************************************************************************/
void SPI0_MasterSendByte( UINT8 d )
{
    R8_SPI0_CTRL_MOD &= ~RB_SPI_FIFO_DIR;
    374c:	2110      	movs	r1, #16
    374e:	4a06      	ldr	r2, [pc, #24]	; (3768 <SPI0_MasterSendByte+0x1c>)
    3750:	7813      	ldrb	r3, [r2, #0]
    3752:	438b      	bics	r3, r1
    3754:	7013      	strb	r3, [r2, #0]
C:/Users/alon/Desktop/github/iot-fan_at_cnblogs/CH577_CH578_CH579/AN/CH579EVT_USB_DISK_TEST/SRC/StdPeriphDriver/CH57x_spi0.c:83
    R8_SPI0_BUFFER = d;
    3756:	4b05      	ldr	r3, [pc, #20]	; (376c <SPI0_MasterSendByte+0x20>)
C:/Users/alon/Desktop/github/iot-fan_at_cnblogs/CH577_CH578_CH579/AN/CH579EVT_USB_DISK_TEST/SRC/StdPeriphDriver/CH57x_spi0.c:84
    while( !(R8_SPI0_INT_FLAG & RB_SPI_FREE) );	
    3758:	4905      	ldr	r1, [pc, #20]	; (3770 <SPI0_MasterSendByte+0x24>)
C:/Users/alon/Desktop/github/iot-fan_at_cnblogs/CH577_CH578_CH579/AN/CH579EVT_USB_DISK_TEST/SRC/StdPeriphDriver/CH57x_spi0.c:83
    R8_SPI0_BUFFER = d;
    375a:	7018      	strb	r0, [r3, #0]
C:/Users/alon/Desktop/github/iot-fan_at_cnblogs/CH577_CH578_CH579/AN/CH579EVT_USB_DISK_TEST/SRC/StdPeriphDriver/CH57x_spi0.c:84
    while( !(R8_SPI0_INT_FLAG & RB_SPI_FREE) );	
    375c:	2340      	movs	r3, #64	; 0x40
C:/Users/alon/Desktop/github/iot-fan_at_cnblogs/CH577_CH578_CH579/AN/CH579EVT_USB_DISK_TEST/SRC/StdPeriphDriver/CH57x_spi0.c:84 (discriminator 1)
    375e:	780a      	ldrb	r2, [r1, #0]
    3760:	421a      	tst	r2, r3
    3762:	d0fc      	beq.n	375e <SPI0_MasterSendByte+0x12>
C:/Users/alon/Desktop/github/iot-fan_at_cnblogs/CH577_CH578_CH579/AN/CH579EVT_USB_DISK_TEST/SRC/StdPeriphDriver/CH57x_spi0.c:85
}
    3764:	4770      	bx	lr
    3766:	46c0      	nop			; (mov r8, r8)
    3768:	40004000 	.word	0x40004000
    376c:	40004004 	.word	0x40004004
    3770:	40004006 	.word	0x40004006

00003774 <SPI0_MasterRecvByte>:
SPI0_MasterRecvByte():
C:/Users/alon/Desktop/github/iot-fan_at_cnblogs/CH577_CH578_CH579/AN/CH579EVT_USB_DISK_TEST/SRC/StdPeriphDriver/CH57x_spi0.c:95
* Input          : None
* Return         : Êé•Êî∂Âà∞ÁöÑÂ≠óËäÇ
*******************************************************************************/
UINT8 SPI0_MasterRecvByte( void )
{
    R8_SPI0_CTRL_MOD &= ~RB_SPI_FIFO_DIR;
    3774:	2110      	movs	r1, #16
    3776:	4a07      	ldr	r2, [pc, #28]	; (3794 <SPI0_MasterRecvByte+0x20>)
C:/Users/alon/Desktop/github/iot-fan_at_cnblogs/CH577_CH578_CH579/AN/CH579EVT_USB_DISK_TEST/SRC/StdPeriphDriver/CH57x_spi0.c:97
    R8_SPI0_BUFFER = 0xFF;           // ÂêØÂä®‰º†Ëæì
    while( !(R8_SPI0_INT_FLAG & RB_SPI_FREE) );
    3778:	4807      	ldr	r0, [pc, #28]	; (3798 <SPI0_MasterRecvByte+0x24>)
C:/Users/alon/Desktop/github/iot-fan_at_cnblogs/CH577_CH578_CH579/AN/CH579EVT_USB_DISK_TEST/SRC/StdPeriphDriver/CH57x_spi0.c:95
    R8_SPI0_CTRL_MOD &= ~RB_SPI_FIFO_DIR;
    377a:	7813      	ldrb	r3, [r2, #0]
    377c:	438b      	bics	r3, r1
    377e:	7013      	strb	r3, [r2, #0]
C:/Users/alon/Desktop/github/iot-fan_at_cnblogs/CH577_CH578_CH579/AN/CH579EVT_USB_DISK_TEST/SRC/StdPeriphDriver/CH57x_spi0.c:96
    R8_SPI0_BUFFER = 0xFF;           // ÂêØÂä®‰º†Ëæì
    3780:	22ff      	movs	r2, #255	; 0xff
    3782:	4b06      	ldr	r3, [pc, #24]	; (379c <SPI0_MasterRecvByte+0x28>)
    3784:	701a      	strb	r2, [r3, #0]
C:/Users/alon/Desktop/github/iot-fan_at_cnblogs/CH577_CH578_CH579/AN/CH579EVT_USB_DISK_TEST/SRC/StdPeriphDriver/CH57x_spi0.c:97
    while( !(R8_SPI0_INT_FLAG & RB_SPI_FREE) );
    3786:	3abf      	subs	r2, #191	; 0xbf
C:/Users/alon/Desktop/github/iot-fan_at_cnblogs/CH577_CH578_CH579/AN/CH579EVT_USB_DISK_TEST/SRC/StdPeriphDriver/CH57x_spi0.c:97 (discriminator 1)
    3788:	7801      	ldrb	r1, [r0, #0]
    378a:	4211      	tst	r1, r2
    378c:	d0fc      	beq.n	3788 <SPI0_MasterRecvByte+0x14>
C:/Users/alon/Desktop/github/iot-fan_at_cnblogs/CH577_CH578_CH579/AN/CH579EVT_USB_DISK_TEST/SRC/StdPeriphDriver/CH57x_spi0.c:98
    return ( R8_SPI0_BUFFER );
    378e:	7818      	ldrb	r0, [r3, #0]
    3790:	b2c0      	uxtb	r0, r0
C:/Users/alon/Desktop/github/iot-fan_at_cnblogs/CH577_CH578_CH579/AN/CH579EVT_USB_DISK_TEST/SRC/StdPeriphDriver/CH57x_spi0.c:99
}
    3792:	4770      	bx	lr
    3794:	40004000 	.word	0x40004000
    3798:	40004006 	.word	0x40004006
    379c:	40004004 	.word	0x40004004

000037a0 <SPI0_MasterRecv>:
SPI0_MasterRecv():
C:/Users/alon/Desktop/github/iot-fan_at_cnblogs/CH577_CH578_CH579/AN/CH579EVT_USB_DISK_TEST/SRC/StdPeriphDriver/CH57x_spi0.c:141
void SPI0_MasterRecv( UINT8 *pbuf, UINT16 len )
{
    UINT16  readlen;

    readlen = len;
    R8_SPI0_CTRL_MOD |= RB_SPI_FIFO_DIR;                     // ËÆæÁΩÆÊï∞ÊçÆÊñπÂêë‰∏∫ËæìÂÖ• 
    37a0:	2310      	movs	r3, #16
C:/Users/alon/Desktop/github/iot-fan_at_cnblogs/CH577_CH578_CH579/AN/CH579EVT_USB_DISK_TEST/SRC/StdPeriphDriver/CH57x_spi0.c:137
{
    37a2:	b510      	push	{r4, lr}
C:/Users/alon/Desktop/github/iot-fan_at_cnblogs/CH577_CH578_CH579/AN/CH579EVT_USB_DISK_TEST/SRC/StdPeriphDriver/CH57x_spi0.c:141
    R8_SPI0_CTRL_MOD |= RB_SPI_FIFO_DIR;                     // ËÆæÁΩÆÊï∞ÊçÆÊñπÂêë‰∏∫ËæìÂÖ• 
    37a4:	4a0a      	ldr	r2, [pc, #40]	; (37d0 <SPI0_MasterRecv+0x30>)
    37a6:	7814      	ldrb	r4, [r2, #0]
    37a8:	4323      	orrs	r3, r4
    37aa:	7013      	strb	r3, [r2, #0]
C:/Users/alon/Desktop/github/iot-fan_at_cnblogs/CH577_CH578_CH579/AN/CH579EVT_USB_DISK_TEST/SRC/StdPeriphDriver/CH57x_spi0.c:143
    R16_SPI0_TOTAL_CNT = len;                                // ËÆæÁΩÆÈúÄË¶ÅÊé•Êî∂ÁöÑÊï∞ÊçÆÈïøÂ∫¶ÔºåFIFOÊñπÂêë‰∏∫ËæìÂÖ•ÈïøÂ∫¶‰∏ç‰∏∫0Âàô‰ºöÂêØÂä®‰º†Ëæì */
    R8_SPI0_INT_FLAG = RB_SPI_IF_CNT_END;
    37ac:	2201      	movs	r2, #1
C:/Users/alon/Desktop/github/iot-fan_at_cnblogs/CH577_CH578_CH579/AN/CH579EVT_USB_DISK_TEST/SRC/StdPeriphDriver/CH57x_spi0.c:142
    R16_SPI0_TOTAL_CNT = len;                                // ËÆæÁΩÆÈúÄË¶ÅÊé•Êî∂ÁöÑÊï∞ÊçÆÈïøÂ∫¶ÔºåFIFOÊñπÂêë‰∏∫ËæìÂÖ•ÈïøÂ∫¶‰∏ç‰∏∫0Âàô‰ºöÂêØÂä®‰º†Ëæì */
    37ae:	4b09      	ldr	r3, [pc, #36]	; (37d4 <SPI0_MasterRecv+0x34>)
    37b0:	8019      	strh	r1, [r3, #0]
C:/Users/alon/Desktop/github/iot-fan_at_cnblogs/CH577_CH578_CH579/AN/CH579EVT_USB_DISK_TEST/SRC/StdPeriphDriver/CH57x_spi0.c:143
    R8_SPI0_INT_FLAG = RB_SPI_IF_CNT_END;
    37b2:	4b09      	ldr	r3, [pc, #36]	; (37d8 <SPI0_MasterRecv+0x38>)
    37b4:	1841      	adds	r1, r0, r1
    37b6:	701a      	strb	r2, [r3, #0]
C:/Users/alon/Desktop/github/iot-fan_at_cnblogs/CH577_CH578_CH579/AN/CH579EVT_USB_DISK_TEST/SRC/StdPeriphDriver/CH57x_spi0.c:146
    while( readlen )
    {                                                          
        if( R8_SPI0_FIFO_COUNT )
    37b8:	4b08      	ldr	r3, [pc, #32]	; (37dc <SPI0_MasterRecv+0x3c>)
C:/Users/alon/Desktop/github/iot-fan_at_cnblogs/CH577_CH578_CH579/AN/CH579EVT_USB_DISK_TEST/SRC/StdPeriphDriver/CH57x_spi0.c:148
        {                                               
            *pbuf = R8_SPI0_FIFO;                                             
    37ba:	4a09      	ldr	r2, [pc, #36]	; (37e0 <SPI0_MasterRecv+0x40>)
C:/Users/alon/Desktop/github/iot-fan_at_cnblogs/CH577_CH578_CH579/AN/CH579EVT_USB_DISK_TEST/SRC/StdPeriphDriver/CH57x_spi0.c:144
    while( readlen )
    37bc:	4288      	cmp	r0, r1
    37be:	d100      	bne.n	37c2 <SPI0_MasterRecv+0x22>
C:/Users/alon/Desktop/github/iot-fan_at_cnblogs/CH577_CH578_CH579/AN/CH579EVT_USB_DISK_TEST/SRC/StdPeriphDriver/CH57x_spi0.c:153
            pbuf++;
            readlen--;
        }
    }
}
    37c0:	bd10      	pop	{r4, pc}
C:/Users/alon/Desktop/github/iot-fan_at_cnblogs/CH577_CH578_CH579/AN/CH579EVT_USB_DISK_TEST/SRC/StdPeriphDriver/CH57x_spi0.c:146
        if( R8_SPI0_FIFO_COUNT )
    37c2:	781c      	ldrb	r4, [r3, #0]
    37c4:	2c00      	cmp	r4, #0
    37c6:	d0f9      	beq.n	37bc <SPI0_MasterRecv+0x1c>
C:/Users/alon/Desktop/github/iot-fan_at_cnblogs/CH577_CH578_CH579/AN/CH579EVT_USB_DISK_TEST/SRC/StdPeriphDriver/CH57x_spi0.c:148
            *pbuf = R8_SPI0_FIFO;                                             
    37c8:	7814      	ldrb	r4, [r2, #0]
    37ca:	7004      	strb	r4, [r0, #0]
C:/Users/alon/Desktop/github/iot-fan_at_cnblogs/CH577_CH578_CH579/AN/CH579EVT_USB_DISK_TEST/SRC/StdPeriphDriver/CH57x_spi0.c:149
            pbuf++;
    37cc:	3001      	adds	r0, #1
C:/Users/alon/Desktop/github/iot-fan_at_cnblogs/CH577_CH578_CH579/AN/CH579EVT_USB_DISK_TEST/SRC/StdPeriphDriver/CH57x_spi0.c:150
            readlen--;
    37ce:	e7f5      	b.n	37bc <SPI0_MasterRecv+0x1c>
    37d0:	40004000 	.word	0x40004000
    37d4:	4000400c 	.word	0x4000400c
    37d8:	40004006 	.word	0x40004006
    37dc:	40004007 	.word	0x40004007
    37e0:	40004010 	.word	0x40004010

000037e4 <mDelayuS>:
mDelayuS():
C:/Users/alon/Desktop/github/iot-fan_at_cnblogs/CH577_CH578_CH579/AN/CH579EVT_USB_DISK_TEST/SRC/StdPeriphDriver/CH57x_sys.c:131
*******************************************************************************/
#pragma GCC push_options
#pragma GCC optimize("O0")

void mDelayuS( UINT16 t )
{
    37e4:	b580      	push	{r7, lr}
    37e6:	b084      	sub	sp, #16
    37e8:	af00      	add	r7, sp, #0
    37ea:	0002      	movs	r2, r0
    37ec:	1dbb      	adds	r3, r7, #6
    37ee:	801a      	strh	r2, [r3, #0]
C:/Users/alon/Desktop/github/iot-fan_at_cnblogs/CH577_CH578_CH579/AN/CH579EVT_USB_DISK_TEST/SRC/StdPeriphDriver/CH57x_sys.c:134
    UINT16 i, j;

    for(j=0; j<t; j++)
    37f0:	230c      	movs	r3, #12
    37f2:	18fb      	adds	r3, r7, r3
    37f4:	2200      	movs	r2, #0
    37f6:	801a      	strh	r2, [r3, #0]
    37f8:	e014      	b.n	3824 <mDelayuS+0x40>
C:/Users/alon/Desktop/github/iot-fan_at_cnblogs/CH577_CH578_CH579/AN/CH579EVT_USB_DISK_TEST/SRC/StdPeriphDriver/CH57x_sys.c:141

#if     (FREQ_SYS == 40000000)	
    for(i=0; i<4; i++)		__nop();

#elif       (FREQ_SYS == 32000000)		
    i = 2;
    37fa:	230e      	movs	r3, #14
    37fc:	18fb      	adds	r3, r7, r3
    37fe:	2202      	movs	r2, #2
    3800:	801a      	strh	r2, [r3, #0]
C:/Users/alon/Desktop/github/iot-fan_at_cnblogs/CH577_CH578_CH579/AN/CH579EVT_USB_DISK_TEST/SRC/StdPeriphDriver/CH57x_sys.c:142
    while(i--)	{ asm("nop");	asm("nop"); }
    3802:	e001      	b.n	3808 <mDelayuS+0x24>
C:/Users/alon/Desktop/github/iot-fan_at_cnblogs/CH577_CH578_CH579/AN/CH579EVT_USB_DISK_TEST/SRC/StdPeriphDriver/CH57x_sys.c:142 (discriminator 2)
    3804:	46c0      	nop			; (mov r8, r8)
    3806:	46c0      	nop			; (mov r8, r8)
C:/Users/alon/Desktop/github/iot-fan_at_cnblogs/CH577_CH578_CH579/AN/CH579EVT_USB_DISK_TEST/SRC/StdPeriphDriver/CH57x_sys.c:142 (discriminator 1)
    3808:	220e      	movs	r2, #14
    380a:	18bb      	adds	r3, r7, r2
    380c:	881b      	ldrh	r3, [r3, #0]
    380e:	18ba      	adds	r2, r7, r2
    3810:	1e59      	subs	r1, r3, #1
    3812:	8011      	strh	r1, [r2, #0]
    3814:	2b00      	cmp	r3, #0
    3816:	d1f5      	bne.n	3804 <mDelayuS+0x20>
C:/Users/alon/Desktop/github/iot-fan_at_cnblogs/CH577_CH578_CH579/AN/CH579EVT_USB_DISK_TEST/SRC/StdPeriphDriver/CH57x_sys.c:134 (discriminator 2)
    for(j=0; j<t; j++)
    3818:	210c      	movs	r1, #12
    381a:	187b      	adds	r3, r7, r1
    381c:	881a      	ldrh	r2, [r3, #0]
    381e:	187b      	adds	r3, r7, r1
    3820:	3201      	adds	r2, #1
    3822:	801a      	strh	r2, [r3, #0]
C:/Users/alon/Desktop/github/iot-fan_at_cnblogs/CH577_CH578_CH579/AN/CH579EVT_USB_DISK_TEST/SRC/StdPeriphDriver/CH57x_sys.c:134 (discriminator 1)
    3824:	230c      	movs	r3, #12
    3826:	18fa      	adds	r2, r7, r3
    3828:	1dbb      	adds	r3, r7, #6
    382a:	8812      	ldrh	r2, [r2, #0]
    382c:	881b      	ldrh	r3, [r3, #0]
    382e:	429a      	cmp	r2, r3
    3830:	d3e3      	bcc.n	37fa <mDelayuS+0x16>
C:/Users/alon/Desktop/github/iot-fan_at_cnblogs/CH577_CH578_CH579/AN/CH579EVT_USB_DISK_TEST/SRC/StdPeriphDriver/CH57x_sys.c:161
    __nop(); __nop();
    
#endif			
    
    }	
}
    3832:	46c0      	nop			; (mov r8, r8)
    3834:	46c0      	nop			; (mov r8, r8)
    3836:	46bd      	mov	sp, r7
    3838:	b004      	add	sp, #16
    383a:	bd80      	pop	{r7, pc}

0000383c <mDelaymS>:
mDelaymS():
C:/Users/alon/Desktop/github/iot-fan_at_cnblogs/CH577_CH578_CH579/AN/CH579EVT_USB_DISK_TEST/SRC/StdPeriphDriver/CH57x_sys.c:170
* Description    : mS —” ±
* Input          : t:  ±º‰≤Œ ˝
* Return         : None
*******************************************************************************/
void mDelaymS( UINT16 t )
{
    383c:	b570      	push	{r4, r5, r6, lr}
C:/Users/alon/Desktop/github/iot-fan_at_cnblogs/CH577_CH578_CH579/AN/CH579EVT_USB_DISK_TEST/SRC/StdPeriphDriver/CH57x_sys.c:174
    UINT16 i;

    for(i=0; i<t; i++)
        mDelayuS(1000);
    383e:	26fa      	movs	r6, #250	; 0xfa
C:/Users/alon/Desktop/github/iot-fan_at_cnblogs/CH577_CH578_CH579/AN/CH579EVT_USB_DISK_TEST/SRC/StdPeriphDriver/CH57x_sys.c:170
{
    3840:	0005      	movs	r5, r0
C:/Users/alon/Desktop/github/iot-fan_at_cnblogs/CH577_CH578_CH579/AN/CH579EVT_USB_DISK_TEST/SRC/StdPeriphDriver/CH57x_sys.c:173
    for(i=0; i<t; i++)
    3842:	2400      	movs	r4, #0
C:/Users/alon/Desktop/github/iot-fan_at_cnblogs/CH577_CH578_CH579/AN/CH579EVT_USB_DISK_TEST/SRC/StdPeriphDriver/CH57x_sys.c:174
        mDelayuS(1000);
    3844:	00b6      	lsls	r6, r6, #2
C:/Users/alon/Desktop/github/iot-fan_at_cnblogs/CH577_CH578_CH579/AN/CH579EVT_USB_DISK_TEST/SRC/StdPeriphDriver/CH57x_sys.c:173 (discriminator 1)
    for(i=0; i<t; i++)
    3846:	42ac      	cmp	r4, r5
    3848:	d100      	bne.n	384c <mDelaymS+0x10>
C:/Users/alon/Desktop/github/iot-fan_at_cnblogs/CH577_CH578_CH579/AN/CH579EVT_USB_DISK_TEST/SRC/StdPeriphDriver/CH57x_sys.c:175
}
    384a:	bd70      	pop	{r4, r5, r6, pc}
C:/Users/alon/Desktop/github/iot-fan_at_cnblogs/CH577_CH578_CH579/AN/CH579EVT_USB_DISK_TEST/SRC/StdPeriphDriver/CH57x_sys.c:174 (discriminator 3)
        mDelayuS(1000);
    384c:	0030      	movs	r0, r6
C:/Users/alon/Desktop/github/iot-fan_at_cnblogs/CH577_CH578_CH579/AN/CH579EVT_USB_DISK_TEST/SRC/StdPeriphDriver/CH57x_sys.c:173 (discriminator 3)
    for(i=0; i<t; i++)
    384e:	3401      	adds	r4, #1
C:/Users/alon/Desktop/github/iot-fan_at_cnblogs/CH577_CH578_CH579/AN/CH579EVT_USB_DISK_TEST/SRC/StdPeriphDriver/CH57x_sys.c:174 (discriminator 3)
        mDelayuS(1000);
    3850:	f7ff ffc8 	bl	37e4 <mDelayuS>
C:/Users/alon/Desktop/github/iot-fan_at_cnblogs/CH577_CH578_CH579/AN/CH579EVT_USB_DISK_TEST/SRC/StdPeriphDriver/CH57x_sys.c:173 (discriminator 3)
    for(i=0; i<t; i++)
    3854:	b2a4      	uxth	r4, r4
    3856:	e7f6      	b.n	3846 <mDelaymS+0xa>

00003858 <_write>:
_write():
C:/Users/alon/Desktop/github/iot-fan_at_cnblogs/CH577_CH578_CH579/AN/CH579EVT_USB_DISK_TEST/SRC/StdPeriphDriver/CH57x_sys.c:203

    #ifdef DEBUG
    int _write(int fd, char *buf, int size)
    {
        int i;
        for(i = 0; i < size; i++)
    3858:	2300      	movs	r3, #0
C:/Users/alon/Desktop/github/iot-fan_at_cnblogs/CH577_CH578_CH579/AN/CH579EVT_USB_DISK_TEST/SRC/StdPeriphDriver/CH57x_sys.c:201
    {
    385a:	0010      	movs	r0, r2
    385c:	b530      	push	{r4, r5, lr}
C:/Users/alon/Desktop/github/iot-fan_at_cnblogs/CH577_CH578_CH579/AN/CH579EVT_USB_DISK_TEST/SRC/StdPeriphDriver/CH57x_sys.c:206
        {
    #if DEBUG == Debug_UART0
            while(R8_UART0_TFC == UART_FIFO_SIZE);                  /* µ»¥˝ ˝æ›∑¢ÀÕ */
    385e:	4a06      	ldr	r2, [pc, #24]	; (3878 <_write+0x20>)
C:/Users/alon/Desktop/github/iot-fan_at_cnblogs/CH577_CH578_CH579/AN/CH579EVT_USB_DISK_TEST/SRC/StdPeriphDriver/CH57x_sys.c:207
            R8_UART0_THR = *buf++; /* ∑¢ÀÕ ˝æ› */
    3860:	4c06      	ldr	r4, [pc, #24]	; (387c <_write+0x24>)
C:/Users/alon/Desktop/github/iot-fan_at_cnblogs/CH577_CH578_CH579/AN/CH579EVT_USB_DISK_TEST/SRC/StdPeriphDriver/CH57x_sys.c:203 (discriminator 1)
        for(i = 0; i < size; i++)
    3862:	4283      	cmp	r3, r0
    3864:	db00      	blt.n	3868 <_write+0x10>
C:/Users/alon/Desktop/github/iot-fan_at_cnblogs/CH577_CH578_CH579/AN/CH579EVT_USB_DISK_TEST/SRC/StdPeriphDriver/CH57x_sys.c:220
            while(R8_UART3_TFC == UART_FIFO_SIZE);                  /* µ»¥˝ ˝æ›∑¢ÀÕ */
            R8_UART3_THR = *buf++; /* ∑¢ÀÕ ˝æ› */
    #endif
        }
        return size;
    }
    3866:	bd30      	pop	{r4, r5, pc}
C:/Users/alon/Desktop/github/iot-fan_at_cnblogs/CH577_CH578_CH579/AN/CH579EVT_USB_DISK_TEST/SRC/StdPeriphDriver/CH57x_sys.c:206 (discriminator 1)
            while(R8_UART0_TFC == UART_FIFO_SIZE);                  /* µ»¥˝ ˝æ›∑¢ÀÕ */
    3868:	7815      	ldrb	r5, [r2, #0]
    386a:	2d08      	cmp	r5, #8
    386c:	d0fc      	beq.n	3868 <_write+0x10>
C:/Users/alon/Desktop/github/iot-fan_at_cnblogs/CH577_CH578_CH579/AN/CH579EVT_USB_DISK_TEST/SRC/StdPeriphDriver/CH57x_sys.c:207 (discriminator 2)
            R8_UART0_THR = *buf++; /* ∑¢ÀÕ ˝æ› */
    386e:	5ccd      	ldrb	r5, [r1, r3]
C:/Users/alon/Desktop/github/iot-fan_at_cnblogs/CH577_CH578_CH579/AN/CH579EVT_USB_DISK_TEST/SRC/StdPeriphDriver/CH57x_sys.c:203 (discriminator 2)
        for(i = 0; i < size; i++)
    3870:	3301      	adds	r3, #1
C:/Users/alon/Desktop/github/iot-fan_at_cnblogs/CH577_CH578_CH579/AN/CH579EVT_USB_DISK_TEST/SRC/StdPeriphDriver/CH57x_sys.c:207 (discriminator 2)
            R8_UART0_THR = *buf++; /* ∑¢ÀÕ ˝æ› */
    3872:	7025      	strb	r5, [r4, #0]
C:/Users/alon/Desktop/github/iot-fan_at_cnblogs/CH577_CH578_CH579/AN/CH579EVT_USB_DISK_TEST/SRC/StdPeriphDriver/CH57x_sys.c:203 (discriminator 2)
        for(i = 0; i < size; i++)
    3874:	e7f5      	b.n	3862 <_write+0xa>
    3876:	46c0      	nop			; (mov r8, r8)
    3878:	4000300b 	.word	0x4000300b
    387c:	40003008 	.word	0x40003008

00003880 <UART0_BaudRateCfg>:
UART0_BaudRateCfg():
C:/Users/alon/Desktop/github/iot-fan_at_cnblogs/CH577_CH578_CH579/AN/CH579EVT_USB_DISK_TEST/SRC/StdPeriphDriver/CH57x_uart0.c:33
* Description    : ¥Æø⁄≤®Ãÿ¬ ≈‰÷√
* Input          : 
* Return         : 
*******************************************************************************/
void UART0_BaudRateCfg( UINT32 baudrate )
{
    3880:	b570      	push	{r4, r5, r6, lr}
C:/Users/alon/Desktop/github/iot-fan_at_cnblogs/CH577_CH578_CH579/AN/CH579EVT_USB_DISK_TEST/SRC/StdPeriphDriver/CH57x_uart0.c:36
    UINT32	x;

    x = 10 * GetSysClock() / 8 / baudrate;
    3882:	250a      	movs	r5, #10
C:/Users/alon/Desktop/github/iot-fan_at_cnblogs/CH577_CH578_CH579/AN/CH579EVT_USB_DISK_TEST/SRC/StdPeriphDriver/CH57x_uart0.c:33
{
    3884:	0004      	movs	r4, r0
C:/Users/alon/Desktop/github/iot-fan_at_cnblogs/CH577_CH578_CH579/AN/CH579EVT_USB_DISK_TEST/SRC/StdPeriphDriver/CH57x_uart0.c:36
    x = 10 * GetSysClock() / 8 / baudrate;
    3886:	f7ff fcb7 	bl	31f8 <GetSysClock>
    388a:	4368      	muls	r0, r5
    388c:	0021      	movs	r1, r4
    388e:	08c0      	lsrs	r0, r0, #3
    3890:	f7fc fc1c 	bl	cc <__udivsi3>
C:/Users/alon/Desktop/github/iot-fan_at_cnblogs/CH577_CH578_CH579/AN/CH579EVT_USB_DISK_TEST/SRC/StdPeriphDriver/CH57x_uart0.c:37
    x = ( x + 5 ) / 10;
    3894:	0029      	movs	r1, r5
    3896:	3005      	adds	r0, #5
    3898:	f7fc fc18 	bl	cc <__udivsi3>
C:/Users/alon/Desktop/github/iot-fan_at_cnblogs/CH577_CH578_CH579/AN/CH579EVT_USB_DISK_TEST/SRC/StdPeriphDriver/CH57x_uart0.c:38
    R16_UART0_DL = (UINT16)x;
    389c:	4b01      	ldr	r3, [pc, #4]	; (38a4 <UART0_BaudRateCfg+0x24>)
    389e:	b280      	uxth	r0, r0
    38a0:	8018      	strh	r0, [r3, #0]
C:/Users/alon/Desktop/github/iot-fan_at_cnblogs/CH577_CH578_CH579/AN/CH579EVT_USB_DISK_TEST/SRC/StdPeriphDriver/CH57x_uart0.c:39
}
    38a2:	bd70      	pop	{r4, r5, r6, pc}
    38a4:	4000300c 	.word	0x4000300c

000038a8 <UART0_DefInit>:
UART0_DefInit():
C:/Users/alon/Desktop/github/iot-fan_at_cnblogs/CH577_CH578_CH579/AN/CH579EVT_USB_DISK_TEST/SRC/StdPeriphDriver/CH57x_uart0.c:19
    UART0_BaudRateCfg( 115200 );
    38a8:	20e1      	movs	r0, #225	; 0xe1
C:/Users/alon/Desktop/github/iot-fan_at_cnblogs/CH577_CH578_CH579/AN/CH579EVT_USB_DISK_TEST/SRC/StdPeriphDriver/CH57x_uart0.c:18
{	
    38aa:	b510      	push	{r4, lr}
C:/Users/alon/Desktop/github/iot-fan_at_cnblogs/CH577_CH578_CH579/AN/CH579EVT_USB_DISK_TEST/SRC/StdPeriphDriver/CH57x_uart0.c:19
    UART0_BaudRateCfg( 115200 );
    38ac:	0240      	lsls	r0, r0, #9
    38ae:	f7ff ffe7 	bl	3880 <UART0_BaudRateCfg>
C:/Users/alon/Desktop/github/iot-fan_at_cnblogs/CH577_CH578_CH579/AN/CH579EVT_USB_DISK_TEST/SRC/StdPeriphDriver/CH57x_uart0.c:20
    R8_UART0_FCR = (2<<6) | RB_FCR_TX_FIFO_CLR | RB_FCR_RX_FIFO_CLR | RB_FCR_FIFO_EN;		// FIFO¥Úø™£¨¥•∑¢µ„4◊÷Ω⁄
    38b2:	2287      	movs	r2, #135	; 0x87
    38b4:	4b05      	ldr	r3, [pc, #20]	; (38cc <UART0_DefInit+0x24>)
    38b6:	701a      	strb	r2, [r3, #0]
C:/Users/alon/Desktop/github/iot-fan_at_cnblogs/CH577_CH578_CH579/AN/CH579EVT_USB_DISK_TEST/SRC/StdPeriphDriver/CH57x_uart0.c:21
    R8_UART0_LCR = RB_LCR_WORD_SZ;	
    38b8:	4b05      	ldr	r3, [pc, #20]	; (38d0 <UART0_DefInit+0x28>)
    38ba:	3a84      	subs	r2, #132	; 0x84
    38bc:	701a      	strb	r2, [r3, #0]
C:/Users/alon/Desktop/github/iot-fan_at_cnblogs/CH577_CH578_CH579/AN/CH579EVT_USB_DISK_TEST/SRC/StdPeriphDriver/CH57x_uart0.c:22
    R8_UART0_IER = RB_IER_TXD_EN;
    38be:	4b05      	ldr	r3, [pc, #20]	; (38d4 <UART0_DefInit+0x2c>)
    38c0:	323d      	adds	r2, #61	; 0x3d
    38c2:	701a      	strb	r2, [r3, #0]
C:/Users/alon/Desktop/github/iot-fan_at_cnblogs/CH577_CH578_CH579/AN/CH579EVT_USB_DISK_TEST/SRC/StdPeriphDriver/CH57x_uart0.c:23
    R8_UART0_DIV = 1;	
    38c4:	4b04      	ldr	r3, [pc, #16]	; (38d8 <UART0_DefInit+0x30>)
    38c6:	3a3f      	subs	r2, #63	; 0x3f
    38c8:	701a      	strb	r2, [r3, #0]
C:/Users/alon/Desktop/github/iot-fan_at_cnblogs/CH577_CH578_CH579/AN/CH579EVT_USB_DISK_TEST/SRC/StdPeriphDriver/CH57x_uart0.c:24
}
    38ca:	bd10      	pop	{r4, pc}
    38cc:	40003002 	.word	0x40003002
    38d0:	40003003 	.word	0x40003003
    38d4:	40003001 	.word	0x40003001
    38d8:	4000300e 	.word	0x4000300e

000038dc <Reset_Handler>:
Reset_Handler():
C:/Users/alon/Desktop/github/iot-fan_at_cnblogs/CH577_CH578_CH579/AN/CH579EVT_USB_DISK_TEST/SRC/Startup/startup_ch579.S:33

  .section .text.Reset_Handler
  .weak Reset_Handler
  .type Reset_Handler, %function
Reset_Handler:
  ldr   r0, =_estack
    38dc:	4812      	ldr	r0, [pc, #72]	; (3928 <LoopForever+0x2>)
C:/Users/alon/Desktop/github/iot-fan_at_cnblogs/CH577_CH578_CH579/AN/CH579EVT_USB_DISK_TEST/SRC/Startup/startup_ch579.S:34
  mov   sp, r0          /* set stack pointer */
    38de:	4685      	mov	sp, r0
C:/Users/alon/Desktop/github/iot-fan_at_cnblogs/CH577_CH578_CH579/AN/CH579EVT_USB_DISK_TEST/SRC/Startup/startup_ch579.S:38

/*Check if boot space corresponds to test memory*/
 
    LDR R0,=0x00000004
    38e0:	4812      	ldr	r0, [pc, #72]	; (392c <LoopForever+0x6>)
C:/Users/alon/Desktop/github/iot-fan_at_cnblogs/CH577_CH578_CH579/AN/CH579EVT_USB_DISK_TEST/SRC/Startup/startup_ch579.S:39
    LDR R1, [R0]
    38e2:	6801      	ldr	r1, [r0, #0]
C:/Users/alon/Desktop/github/iot-fan_at_cnblogs/CH577_CH578_CH579/AN/CH579EVT_USB_DISK_TEST/SRC/Startup/startup_ch579.S:40
    LSRS R1, R1, #24
    38e4:	0e09      	lsrs	r1, r1, #24
C:/Users/alon/Desktop/github/iot-fan_at_cnblogs/CH577_CH578_CH579/AN/CH579EVT_USB_DISK_TEST/SRC/Startup/startup_ch579.S:41
    LDR R2,=0x1F
    38e6:	4a12      	ldr	r2, [pc, #72]	; (3930 <LoopForever+0xa>)
C:/Users/alon/Desktop/github/iot-fan_at_cnblogs/CH577_CH578_CH579/AN/CH579EVT_USB_DISK_TEST/SRC/Startup/startup_ch579.S:42
    CMP R1, R2
    38e8:	4291      	cmp	r1, r2
C:/Users/alon/Desktop/github/iot-fan_at_cnblogs/CH577_CH578_CH579/AN/CH579EVT_USB_DISK_TEST/SRC/Startup/startup_ch579.S:43
    BNE ApplicationStart
    38ea:	d105      	bne.n	38f8 <ApplicationStart>
C:/Users/alon/Desktop/github/iot-fan_at_cnblogs/CH577_CH578_CH579/AN/CH579EVT_USB_DISK_TEST/SRC/Startup/startup_ch579.S:47

 /*SYSCFG clock enable*/

    LDR R0,=0x40021018
    38ec:	4811      	ldr	r0, [pc, #68]	; (3934 <LoopForever+0xe>)
C:/Users/alon/Desktop/github/iot-fan_at_cnblogs/CH577_CH578_CH579/AN/CH579EVT_USB_DISK_TEST/SRC/Startup/startup_ch579.S:48
    LDR R1,=0x00000001
    38ee:	4912      	ldr	r1, [pc, #72]	; (3938 <LoopForever+0x12>)
C:/Users/alon/Desktop/github/iot-fan_at_cnblogs/CH577_CH578_CH579/AN/CH579EVT_USB_DISK_TEST/SRC/Startup/startup_ch579.S:49
    STR R1, [R0]
    38f0:	6001      	str	r1, [r0, #0]
C:/Users/alon/Desktop/github/iot-fan_at_cnblogs/CH577_CH578_CH579/AN/CH579EVT_USB_DISK_TEST/SRC/Startup/startup_ch579.S:52

/*Set CFGR1 register with flash memory remap at address 0*/
    LDR R0,=0x40010000
    38f2:	4812      	ldr	r0, [pc, #72]	; (393c <LoopForever+0x16>)
C:/Users/alon/Desktop/github/iot-fan_at_cnblogs/CH577_CH578_CH579/AN/CH579EVT_USB_DISK_TEST/SRC/Startup/startup_ch579.S:53
    LDR R1,=0x00000000
    38f4:	4912      	ldr	r1, [pc, #72]	; (3940 <LoopForever+0x1a>)
C:/Users/alon/Desktop/github/iot-fan_at_cnblogs/CH577_CH578_CH579/AN/CH579EVT_USB_DISK_TEST/SRC/Startup/startup_ch579.S:54
    STR R1, [R0]
    38f6:	6001      	str	r1, [r0, #0]

000038f8 <ApplicationStart>:
C:/Users/alon/Desktop/github/iot-fan_at_cnblogs/CH577_CH578_CH579/AN/CH579EVT_USB_DISK_TEST/SRC/Startup/startup_ch579.S:58

ApplicationStart:
/* Copy the data segment initializers from flash to SRAM */
  movs r1, #0
    38f8:	2100      	movs	r1, #0
C:/Users/alon/Desktop/github/iot-fan_at_cnblogs/CH577_CH578_CH579/AN/CH579EVT_USB_DISK_TEST/SRC/Startup/startup_ch579.S:59
  b LoopCopyDataInit
    38fa:	e003      	b.n	3904 <LoopCopyDataInit>

000038fc <CopyDataInit>:
C:/Users/alon/Desktop/github/iot-fan_at_cnblogs/CH577_CH578_CH579/AN/CH579EVT_USB_DISK_TEST/SRC/Startup/startup_ch579.S:62

CopyDataInit:
  ldr r3, =_sidata
    38fc:	4b11      	ldr	r3, [pc, #68]	; (3944 <LoopForever+0x1e>)
C:/Users/alon/Desktop/github/iot-fan_at_cnblogs/CH577_CH578_CH579/AN/CH579EVT_USB_DISK_TEST/SRC/Startup/startup_ch579.S:63
  ldr r3, [r3, r1]
    38fe:	585b      	ldr	r3, [r3, r1]
C:/Users/alon/Desktop/github/iot-fan_at_cnblogs/CH577_CH578_CH579/AN/CH579EVT_USB_DISK_TEST/SRC/Startup/startup_ch579.S:64
  str r3, [r0, r1]
    3900:	5043      	str	r3, [r0, r1]
C:/Users/alon/Desktop/github/iot-fan_at_cnblogs/CH577_CH578_CH579/AN/CH579EVT_USB_DISK_TEST/SRC/Startup/startup_ch579.S:65
  adds r1, r1, #4
    3902:	3104      	adds	r1, #4

00003904 <LoopCopyDataInit>:
C:/Users/alon/Desktop/github/iot-fan_at_cnblogs/CH577_CH578_CH579/AN/CH579EVT_USB_DISK_TEST/SRC/Startup/startup_ch579.S:68

LoopCopyDataInit:
  ldr r0, =_sdata
    3904:	4810      	ldr	r0, [pc, #64]	; (3948 <LoopForever+0x22>)
C:/Users/alon/Desktop/github/iot-fan_at_cnblogs/CH577_CH578_CH579/AN/CH579EVT_USB_DISK_TEST/SRC/Startup/startup_ch579.S:69
  ldr r3, =_edata
    3906:	4b11      	ldr	r3, [pc, #68]	; (394c <LoopForever+0x26>)
C:/Users/alon/Desktop/github/iot-fan_at_cnblogs/CH577_CH578_CH579/AN/CH579EVT_USB_DISK_TEST/SRC/Startup/startup_ch579.S:70
  adds r2, r0, r1
    3908:	1842      	adds	r2, r0, r1
C:/Users/alon/Desktop/github/iot-fan_at_cnblogs/CH577_CH578_CH579/AN/CH579EVT_USB_DISK_TEST/SRC/Startup/startup_ch579.S:71
  cmp r2, r3
    390a:	429a      	cmp	r2, r3
C:/Users/alon/Desktop/github/iot-fan_at_cnblogs/CH577_CH578_CH579/AN/CH579EVT_USB_DISK_TEST/SRC/Startup/startup_ch579.S:72
  bcc CopyDataInit
    390c:	d3f6      	bcc.n	38fc <CopyDataInit>
C:/Users/alon/Desktop/github/iot-fan_at_cnblogs/CH577_CH578_CH579/AN/CH579EVT_USB_DISK_TEST/SRC/Startup/startup_ch579.S:73
  ldr r2, =_sbss
    390e:	4a10      	ldr	r2, [pc, #64]	; (3950 <LoopForever+0x2a>)
C:/Users/alon/Desktop/github/iot-fan_at_cnblogs/CH577_CH578_CH579/AN/CH579EVT_USB_DISK_TEST/SRC/Startup/startup_ch579.S:74
  b LoopFillZerobss
    3910:	e002      	b.n	3918 <LoopFillZerobss>

00003912 <FillZerobss>:
C:/Users/alon/Desktop/github/iot-fan_at_cnblogs/CH577_CH578_CH579/AN/CH579EVT_USB_DISK_TEST/SRC/Startup/startup_ch579.S:77
/* Zero fill the bss segment. */
FillZerobss:
  movs r3, #0
    3912:	2300      	movs	r3, #0
C:/Users/alon/Desktop/github/iot-fan_at_cnblogs/CH577_CH578_CH579/AN/CH579EVT_USB_DISK_TEST/SRC/Startup/startup_ch579.S:78
  str  r3, [r2]
    3914:	6013      	str	r3, [r2, #0]
C:/Users/alon/Desktop/github/iot-fan_at_cnblogs/CH577_CH578_CH579/AN/CH579EVT_USB_DISK_TEST/SRC/Startup/startup_ch579.S:79
  adds r2, r2, #4
    3916:	3204      	adds	r2, #4

00003918 <LoopFillZerobss>:
C:/Users/alon/Desktop/github/iot-fan_at_cnblogs/CH577_CH578_CH579/AN/CH579EVT_USB_DISK_TEST/SRC/Startup/startup_ch579.S:83


LoopFillZerobss:
  ldr r3, = _ebss
    3918:	4b0e      	ldr	r3, [pc, #56]	; (3954 <LoopForever+0x2e>)
C:/Users/alon/Desktop/github/iot-fan_at_cnblogs/CH577_CH578_CH579/AN/CH579EVT_USB_DISK_TEST/SRC/Startup/startup_ch579.S:84
  cmp r2, r3
    391a:	429a      	cmp	r2, r3
C:/Users/alon/Desktop/github/iot-fan_at_cnblogs/CH577_CH578_CH579/AN/CH579EVT_USB_DISK_TEST/SRC/Startup/startup_ch579.S:85
  bcc FillZerobss
    391c:	d3f9      	bcc.n	3912 <FillZerobss>
C:/Users/alon/Desktop/github/iot-fan_at_cnblogs/CH577_CH578_CH579/AN/CH579EVT_USB_DISK_TEST/SRC/Startup/startup_ch579.S:88

/* Call the clock system intitialization function.*/
    bl  SystemInit
    391e:	f7ff fc01 	bl	3124 <SystemInit>
C:/Users/alon/Desktop/github/iot-fan_at_cnblogs/CH577_CH578_CH579/AN/CH579EVT_USB_DISK_TEST/SRC/Startup/startup_ch579.S:92
/* Call static constructors */
  /*  bl __libc_init_array*/
/* Call the application's entry point.*/
  bl main
    3922:	f7ff f9cb 	bl	2cbc <main>

00003926 <LoopForever>:
C:/Users/alon/Desktop/github/iot-fan_at_cnblogs/CH577_CH578_CH579/AN/CH579EVT_USB_DISK_TEST/SRC/Startup/startup_ch579.S:95
  
LoopForever:
    b LoopForever
    3926:	e7fe      	b.n	3926 <LoopForever>
LoopForever():
C:/Users/alon/Desktop/github/iot-fan_at_cnblogs/CH577_CH578_CH579/AN/CH579EVT_USB_DISK_TEST/SRC/Startup/startup_ch579.S:33
  ldr   r0, =_estack
    3928:	20008000 	.word	0x20008000
C:/Users/alon/Desktop/github/iot-fan_at_cnblogs/CH577_CH578_CH579/AN/CH579EVT_USB_DISK_TEST/SRC/Startup/startup_ch579.S:38
    LDR R0,=0x00000004
    392c:	00000004 	.word	0x00000004
C:/Users/alon/Desktop/github/iot-fan_at_cnblogs/CH577_CH578_CH579/AN/CH579EVT_USB_DISK_TEST/SRC/Startup/startup_ch579.S:41
    LDR R2,=0x1F
    3930:	0000001f 	.word	0x0000001f
C:/Users/alon/Desktop/github/iot-fan_at_cnblogs/CH577_CH578_CH579/AN/CH579EVT_USB_DISK_TEST/SRC/Startup/startup_ch579.S:47
    LDR R0,=0x40021018
    3934:	40021018 	.word	0x40021018
C:/Users/alon/Desktop/github/iot-fan_at_cnblogs/CH577_CH578_CH579/AN/CH579EVT_USB_DISK_TEST/SRC/Startup/startup_ch579.S:48
    LDR R1,=0x00000001
    3938:	00000001 	.word	0x00000001
C:/Users/alon/Desktop/github/iot-fan_at_cnblogs/CH577_CH578_CH579/AN/CH579EVT_USB_DISK_TEST/SRC/Startup/startup_ch579.S:52
    LDR R0,=0x40010000
    393c:	40010000 	.word	0x40010000
C:/Users/alon/Desktop/github/iot-fan_at_cnblogs/CH577_CH578_CH579/AN/CH579EVT_USB_DISK_TEST/SRC/Startup/startup_ch579.S:53
    LDR R1,=0x00000000
    3940:	00000000 	.word	0x00000000
C:/Users/alon/Desktop/github/iot-fan_at_cnblogs/CH577_CH578_CH579/AN/CH579EVT_USB_DISK_TEST/SRC/Startup/startup_ch579.S:62
  ldr r3, =_sidata
    3944:	00005474 	.word	0x00005474
C:/Users/alon/Desktop/github/iot-fan_at_cnblogs/CH577_CH578_CH579/AN/CH579EVT_USB_DISK_TEST/SRC/Startup/startup_ch579.S:68
  ldr r0, =_sdata
    3948:	20004000 	.word	0x20004000
C:/Users/alon/Desktop/github/iot-fan_at_cnblogs/CH577_CH578_CH579/AN/CH579EVT_USB_DISK_TEST/SRC/Startup/startup_ch579.S:69
  ldr r3, =_edata
    394c:	20004080 	.word	0x20004080
C:/Users/alon/Desktop/github/iot-fan_at_cnblogs/CH577_CH578_CH579/AN/CH579EVT_USB_DISK_TEST/SRC/Startup/startup_ch579.S:73
  ldr r2, =_sbss
    3950:	20004080 	.word	0x20004080
C:/Users/alon/Desktop/github/iot-fan_at_cnblogs/CH577_CH578_CH579/AN/CH579EVT_USB_DISK_TEST/SRC/Startup/startup_ch579.S:83
  ldr r3, = _ebss
    3954:	20005678 	.word	0x20005678

00003958 <ADC_IRQHandler>:
GPIO_IRQHandler():
C:/Users/alon/Desktop/github/iot-fan_at_cnblogs/CH577_CH578_CH579/AN/CH579EVT_USB_DISK_TEST/SRC/Startup/startup_ch579.S:111
 * @retval : None
*/
    .section .text.Default_Handler,"ax",%progbits
Default_Handler:
Infinite_Loop:
  b Infinite_Loop
    3958:	e7fe      	b.n	3958 <ADC_IRQHandler>
	...

0000395c <malloc>:
malloc():
    395c:	b510      	push	{r4, lr}
    395e:	4b03      	ldr	r3, [pc, #12]	; (396c <malloc+0x10>)
    3960:	0001      	movs	r1, r0
    3962:	6818      	ldr	r0, [r3, #0]
    3964:	f000 f862 	bl	3a2c <_malloc_r>
    3968:	bd10      	pop	{r4, pc}
    396a:	46c0      	nop			; (mov r8, r8)
    396c:	2000401c 	.word	0x2000401c

00003970 <free>:
free():
    3970:	b510      	push	{r4, lr}
    3972:	4b03      	ldr	r3, [pc, #12]	; (3980 <free+0x10>)
    3974:	0001      	movs	r1, r0
    3976:	6818      	ldr	r0, [r3, #0]
    3978:	f000 f80e 	bl	3998 <_free_r>
    397c:	bd10      	pop	{r4, pc}
    397e:	46c0      	nop			; (mov r8, r8)
    3980:	2000401c 	.word	0x2000401c

00003984 <memcpy>:
memcpy():
    3984:	2300      	movs	r3, #0
    3986:	b510      	push	{r4, lr}
    3988:	429a      	cmp	r2, r3
    398a:	d100      	bne.n	398e <memcpy+0xa>
    398c:	bd10      	pop	{r4, pc}
    398e:	5ccc      	ldrb	r4, [r1, r3]
    3990:	54c4      	strb	r4, [r0, r3]
    3992:	3301      	adds	r3, #1
    3994:	e7f8      	b.n	3988 <memcpy+0x4>
	...

00003998 <_free_r>:
_free_r():
    3998:	b570      	push	{r4, r5, r6, lr}
    399a:	0005      	movs	r5, r0
    399c:	2900      	cmp	r1, #0
    399e:	d010      	beq.n	39c2 <_free_r+0x2a>
    39a0:	1f0c      	subs	r4, r1, #4
    39a2:	6823      	ldr	r3, [r4, #0]
    39a4:	2b00      	cmp	r3, #0
    39a6:	da00      	bge.n	39aa <_free_r+0x12>
    39a8:	18e4      	adds	r4, r4, r3
    39aa:	0028      	movs	r0, r5
    39ac:	f000 fc58 	bl	4260 <__malloc_lock>
    39b0:	4a1d      	ldr	r2, [pc, #116]	; (3a28 <_free_r+0x90>)
    39b2:	6813      	ldr	r3, [r2, #0]
    39b4:	2b00      	cmp	r3, #0
    39b6:	d105      	bne.n	39c4 <_free_r+0x2c>
    39b8:	6063      	str	r3, [r4, #4]
    39ba:	6014      	str	r4, [r2, #0]
    39bc:	0028      	movs	r0, r5
    39be:	f000 fc57 	bl	4270 <__malloc_unlock>
    39c2:	bd70      	pop	{r4, r5, r6, pc}
    39c4:	42a3      	cmp	r3, r4
    39c6:	d908      	bls.n	39da <_free_r+0x42>
    39c8:	6821      	ldr	r1, [r4, #0]
    39ca:	1860      	adds	r0, r4, r1
    39cc:	4283      	cmp	r3, r0
    39ce:	d1f3      	bne.n	39b8 <_free_r+0x20>
    39d0:	6818      	ldr	r0, [r3, #0]
    39d2:	685b      	ldr	r3, [r3, #4]
    39d4:	1841      	adds	r1, r0, r1
    39d6:	6021      	str	r1, [r4, #0]
    39d8:	e7ee      	b.n	39b8 <_free_r+0x20>
    39da:	001a      	movs	r2, r3
    39dc:	685b      	ldr	r3, [r3, #4]
    39de:	2b00      	cmp	r3, #0
    39e0:	d001      	beq.n	39e6 <_free_r+0x4e>
    39e2:	42a3      	cmp	r3, r4
    39e4:	d9f9      	bls.n	39da <_free_r+0x42>
    39e6:	6811      	ldr	r1, [r2, #0]
    39e8:	1850      	adds	r0, r2, r1
    39ea:	42a0      	cmp	r0, r4
    39ec:	d10b      	bne.n	3a06 <_free_r+0x6e>
    39ee:	6820      	ldr	r0, [r4, #0]
    39f0:	1809      	adds	r1, r1, r0
    39f2:	1850      	adds	r0, r2, r1
    39f4:	6011      	str	r1, [r2, #0]
    39f6:	4283      	cmp	r3, r0
    39f8:	d1e0      	bne.n	39bc <_free_r+0x24>
    39fa:	6818      	ldr	r0, [r3, #0]
    39fc:	685b      	ldr	r3, [r3, #4]
    39fe:	1841      	adds	r1, r0, r1
    3a00:	6011      	str	r1, [r2, #0]
    3a02:	6053      	str	r3, [r2, #4]
    3a04:	e7da      	b.n	39bc <_free_r+0x24>
    3a06:	42a0      	cmp	r0, r4
    3a08:	d902      	bls.n	3a10 <_free_r+0x78>
    3a0a:	230c      	movs	r3, #12
    3a0c:	602b      	str	r3, [r5, #0]
    3a0e:	e7d5      	b.n	39bc <_free_r+0x24>
    3a10:	6821      	ldr	r1, [r4, #0]
    3a12:	1860      	adds	r0, r4, r1
    3a14:	4283      	cmp	r3, r0
    3a16:	d103      	bne.n	3a20 <_free_r+0x88>
    3a18:	6818      	ldr	r0, [r3, #0]
    3a1a:	685b      	ldr	r3, [r3, #4]
    3a1c:	1841      	adds	r1, r0, r1
    3a1e:	6021      	str	r1, [r4, #0]
    3a20:	6063      	str	r3, [r4, #4]
    3a22:	6054      	str	r4, [r2, #4]
    3a24:	e7ca      	b.n	39bc <_free_r+0x24>
    3a26:	46c0      	nop			; (mov r8, r8)
    3a28:	2000565c 	.word	0x2000565c

00003a2c <_malloc_r>:
_malloc_r():
    3a2c:	b5f8      	push	{r3, r4, r5, r6, r7, lr}
    3a2e:	2303      	movs	r3, #3
    3a30:	1ccd      	adds	r5, r1, #3
    3a32:	439d      	bics	r5, r3
    3a34:	3508      	adds	r5, #8
    3a36:	0006      	movs	r6, r0
    3a38:	2d0c      	cmp	r5, #12
    3a3a:	d21f      	bcs.n	3a7c <_malloc_r+0x50>
    3a3c:	250c      	movs	r5, #12
    3a3e:	42a9      	cmp	r1, r5
    3a40:	d81e      	bhi.n	3a80 <_malloc_r+0x54>
    3a42:	0030      	movs	r0, r6
    3a44:	f000 fc0c 	bl	4260 <__malloc_lock>
    3a48:	4925      	ldr	r1, [pc, #148]	; (3ae0 <_malloc_r+0xb4>)
    3a4a:	680a      	ldr	r2, [r1, #0]
    3a4c:	0014      	movs	r4, r2
    3a4e:	2c00      	cmp	r4, #0
    3a50:	d11a      	bne.n	3a88 <_malloc_r+0x5c>
    3a52:	4f24      	ldr	r7, [pc, #144]	; (3ae4 <_malloc_r+0xb8>)
    3a54:	683b      	ldr	r3, [r7, #0]
    3a56:	2b00      	cmp	r3, #0
    3a58:	d104      	bne.n	3a64 <_malloc_r+0x38>
    3a5a:	0021      	movs	r1, r4
    3a5c:	0030      	movs	r0, r6
    3a5e:	f000 f8d9 	bl	3c14 <_sbrk_r>
    3a62:	6038      	str	r0, [r7, #0]
    3a64:	0029      	movs	r1, r5
    3a66:	0030      	movs	r0, r6
    3a68:	f000 f8d4 	bl	3c14 <_sbrk_r>
    3a6c:	1c43      	adds	r3, r0, #1
    3a6e:	d12b      	bne.n	3ac8 <_malloc_r+0x9c>
    3a70:	230c      	movs	r3, #12
    3a72:	0030      	movs	r0, r6
    3a74:	6033      	str	r3, [r6, #0]
    3a76:	f000 fbfb 	bl	4270 <__malloc_unlock>
    3a7a:	e003      	b.n	3a84 <_malloc_r+0x58>
    3a7c:	2d00      	cmp	r5, #0
    3a7e:	dade      	bge.n	3a3e <_malloc_r+0x12>
    3a80:	230c      	movs	r3, #12
    3a82:	6033      	str	r3, [r6, #0]
    3a84:	2000      	movs	r0, #0
    3a86:	bdf8      	pop	{r3, r4, r5, r6, r7, pc}
    3a88:	6823      	ldr	r3, [r4, #0]
    3a8a:	1b5b      	subs	r3, r3, r5
    3a8c:	d419      	bmi.n	3ac2 <_malloc_r+0x96>
    3a8e:	2b0b      	cmp	r3, #11
    3a90:	d903      	bls.n	3a9a <_malloc_r+0x6e>
    3a92:	6023      	str	r3, [r4, #0]
    3a94:	18e4      	adds	r4, r4, r3
    3a96:	6025      	str	r5, [r4, #0]
    3a98:	e003      	b.n	3aa2 <_malloc_r+0x76>
    3a9a:	6863      	ldr	r3, [r4, #4]
    3a9c:	42a2      	cmp	r2, r4
    3a9e:	d10e      	bne.n	3abe <_malloc_r+0x92>
    3aa0:	600b      	str	r3, [r1, #0]
    3aa2:	0030      	movs	r0, r6
    3aa4:	f000 fbe4 	bl	4270 <__malloc_unlock>
    3aa8:	0020      	movs	r0, r4
    3aaa:	2207      	movs	r2, #7
    3aac:	300b      	adds	r0, #11
    3aae:	1d23      	adds	r3, r4, #4
    3ab0:	4390      	bics	r0, r2
    3ab2:	1ac2      	subs	r2, r0, r3
    3ab4:	4298      	cmp	r0, r3
    3ab6:	d0e6      	beq.n	3a86 <_malloc_r+0x5a>
    3ab8:	1a1b      	subs	r3, r3, r0
    3aba:	50a3      	str	r3, [r4, r2]
    3abc:	e7e3      	b.n	3a86 <_malloc_r+0x5a>
    3abe:	6053      	str	r3, [r2, #4]
    3ac0:	e7ef      	b.n	3aa2 <_malloc_r+0x76>
    3ac2:	0022      	movs	r2, r4
    3ac4:	6864      	ldr	r4, [r4, #4]
    3ac6:	e7c2      	b.n	3a4e <_malloc_r+0x22>
    3ac8:	2303      	movs	r3, #3
    3aca:	1cc4      	adds	r4, r0, #3
    3acc:	439c      	bics	r4, r3
    3ace:	42a0      	cmp	r0, r4
    3ad0:	d0e1      	beq.n	3a96 <_malloc_r+0x6a>
    3ad2:	1a21      	subs	r1, r4, r0
    3ad4:	0030      	movs	r0, r6
    3ad6:	f000 f89d 	bl	3c14 <_sbrk_r>
    3ada:	1c43      	adds	r3, r0, #1
    3adc:	d1db      	bne.n	3a96 <_malloc_r+0x6a>
    3ade:	e7c7      	b.n	3a70 <_malloc_r+0x44>
    3ae0:	2000565c 	.word	0x2000565c
    3ae4:	20005660 	.word	0x20005660

00003ae8 <iprintf>:
printf():
    3ae8:	b40f      	push	{r0, r1, r2, r3}
    3aea:	4b0b      	ldr	r3, [pc, #44]	; (3b18 <iprintf+0x30>)
    3aec:	b513      	push	{r0, r1, r4, lr}
    3aee:	681c      	ldr	r4, [r3, #0]
    3af0:	2c00      	cmp	r4, #0
    3af2:	d005      	beq.n	3b00 <iprintf+0x18>
    3af4:	69a3      	ldr	r3, [r4, #24]
    3af6:	2b00      	cmp	r3, #0
    3af8:	d102      	bne.n	3b00 <iprintf+0x18>
    3afa:	0020      	movs	r0, r4
    3afc:	f000 fa98 	bl	4030 <__sinit>
    3b00:	ab05      	add	r3, sp, #20
    3b02:	0020      	movs	r0, r4
    3b04:	9a04      	ldr	r2, [sp, #16]
    3b06:	68a1      	ldr	r1, [r4, #8]
    3b08:	9301      	str	r3, [sp, #4]
    3b0a:	f000 fbe1 	bl	42d0 <_vfiprintf_r>
    3b0e:	bc16      	pop	{r1, r2, r4}
    3b10:	bc08      	pop	{r3}
    3b12:	b004      	add	sp, #16
    3b14:	4718      	bx	r3
    3b16:	46c0      	nop			; (mov r8, r8)
    3b18:	2000401c 	.word	0x2000401c

00003b1c <_puts_r>:
_puts_r():
    3b1c:	b570      	push	{r4, r5, r6, lr}
    3b1e:	0005      	movs	r5, r0
    3b20:	000e      	movs	r6, r1
    3b22:	2800      	cmp	r0, #0
    3b24:	d004      	beq.n	3b30 <_puts_r+0x14>
    3b26:	6983      	ldr	r3, [r0, #24]
    3b28:	2b00      	cmp	r3, #0
    3b2a:	d101      	bne.n	3b30 <_puts_r+0x14>
    3b2c:	f000 fa80 	bl	4030 <__sinit>
    3b30:	69ab      	ldr	r3, [r5, #24]
    3b32:	68ac      	ldr	r4, [r5, #8]
    3b34:	2b00      	cmp	r3, #0
    3b36:	d102      	bne.n	3b3e <_puts_r+0x22>
    3b38:	0028      	movs	r0, r5
    3b3a:	f000 fa79 	bl	4030 <__sinit>
    3b3e:	4b2d      	ldr	r3, [pc, #180]	; (3bf4 <_puts_r+0xd8>)
    3b40:	429c      	cmp	r4, r3
    3b42:	d122      	bne.n	3b8a <_puts_r+0x6e>
    3b44:	686c      	ldr	r4, [r5, #4]
    3b46:	6e63      	ldr	r3, [r4, #100]	; 0x64
    3b48:	07db      	lsls	r3, r3, #31
    3b4a:	d405      	bmi.n	3b58 <_puts_r+0x3c>
    3b4c:	89a3      	ldrh	r3, [r4, #12]
    3b4e:	059b      	lsls	r3, r3, #22
    3b50:	d402      	bmi.n	3b58 <_puts_r+0x3c>
    3b52:	6da0      	ldr	r0, [r4, #88]	; 0x58
    3b54:	f000 fb0d 	bl	4172 <__retarget_lock_acquire_recursive>
    3b58:	89a3      	ldrh	r3, [r4, #12]
    3b5a:	071b      	lsls	r3, r3, #28
    3b5c:	d502      	bpl.n	3b64 <_puts_r+0x48>
    3b5e:	6923      	ldr	r3, [r4, #16]
    3b60:	2b00      	cmp	r3, #0
    3b62:	d129      	bne.n	3bb8 <_puts_r+0x9c>
    3b64:	0021      	movs	r1, r4
    3b66:	0028      	movs	r0, r5
    3b68:	f000 f8bc 	bl	3ce4 <__swsetup_r>
    3b6c:	2800      	cmp	r0, #0
    3b6e:	d023      	beq.n	3bb8 <_puts_r+0x9c>
    3b70:	2501      	movs	r5, #1
    3b72:	426d      	negs	r5, r5
    3b74:	6e63      	ldr	r3, [r4, #100]	; 0x64
    3b76:	07db      	lsls	r3, r3, #31
    3b78:	d405      	bmi.n	3b86 <_puts_r+0x6a>
    3b7a:	89a3      	ldrh	r3, [r4, #12]
    3b7c:	059b      	lsls	r3, r3, #22
    3b7e:	d402      	bmi.n	3b86 <_puts_r+0x6a>
    3b80:	6da0      	ldr	r0, [r4, #88]	; 0x58
    3b82:	f000 faf7 	bl	4174 <__retarget_lock_release_recursive>
    3b86:	0028      	movs	r0, r5
    3b88:	bd70      	pop	{r4, r5, r6, pc}
    3b8a:	4b1b      	ldr	r3, [pc, #108]	; (3bf8 <_puts_r+0xdc>)
    3b8c:	429c      	cmp	r4, r3
    3b8e:	d101      	bne.n	3b94 <_puts_r+0x78>
    3b90:	68ac      	ldr	r4, [r5, #8]
    3b92:	e7d8      	b.n	3b46 <_puts_r+0x2a>
    3b94:	4b19      	ldr	r3, [pc, #100]	; (3bfc <_puts_r+0xe0>)
    3b96:	429c      	cmp	r4, r3
    3b98:	d1d5      	bne.n	3b46 <_puts_r+0x2a>
    3b9a:	68ec      	ldr	r4, [r5, #12]
    3b9c:	e7d3      	b.n	3b46 <_puts_r+0x2a>
    3b9e:	3601      	adds	r6, #1
    3ba0:	60a3      	str	r3, [r4, #8]
    3ba2:	2b00      	cmp	r3, #0
    3ba4:	da04      	bge.n	3bb0 <_puts_r+0x94>
    3ba6:	69a2      	ldr	r2, [r4, #24]
    3ba8:	429a      	cmp	r2, r3
    3baa:	dc16      	bgt.n	3bda <_puts_r+0xbe>
    3bac:	290a      	cmp	r1, #10
    3bae:	d014      	beq.n	3bda <_puts_r+0xbe>
    3bb0:	6823      	ldr	r3, [r4, #0]
    3bb2:	1c5a      	adds	r2, r3, #1
    3bb4:	6022      	str	r2, [r4, #0]
    3bb6:	7019      	strb	r1, [r3, #0]
    3bb8:	68a3      	ldr	r3, [r4, #8]
    3bba:	7831      	ldrb	r1, [r6, #0]
    3bbc:	3b01      	subs	r3, #1
    3bbe:	2900      	cmp	r1, #0
    3bc0:	d1ed      	bne.n	3b9e <_puts_r+0x82>
    3bc2:	60a3      	str	r3, [r4, #8]
    3bc4:	2b00      	cmp	r3, #0
    3bc6:	da0f      	bge.n	3be8 <_puts_r+0xcc>
    3bc8:	0028      	movs	r0, r5
    3bca:	0022      	movs	r2, r4
    3bcc:	310a      	adds	r1, #10
    3bce:	f000 f833 	bl	3c38 <__swbuf_r>
    3bd2:	250a      	movs	r5, #10
    3bd4:	1c43      	adds	r3, r0, #1
    3bd6:	d1cd      	bne.n	3b74 <_puts_r+0x58>
    3bd8:	e7ca      	b.n	3b70 <_puts_r+0x54>
    3bda:	0022      	movs	r2, r4
    3bdc:	0028      	movs	r0, r5
    3bde:	f000 f82b 	bl	3c38 <__swbuf_r>
    3be2:	1c43      	adds	r3, r0, #1
    3be4:	d1e8      	bne.n	3bb8 <_puts_r+0x9c>
    3be6:	e7c3      	b.n	3b70 <_puts_r+0x54>
    3be8:	250a      	movs	r5, #10
    3bea:	6823      	ldr	r3, [r4, #0]
    3bec:	1c5a      	adds	r2, r3, #1
    3bee:	6022      	str	r2, [r4, #0]
    3bf0:	701d      	strb	r5, [r3, #0]
    3bf2:	e7bf      	b.n	3b74 <_puts_r+0x58>
    3bf4:	000053fc 	.word	0x000053fc
    3bf8:	0000541c 	.word	0x0000541c
    3bfc:	000053dc 	.word	0x000053dc

00003c00 <puts>:
puts():
    3c00:	b510      	push	{r4, lr}
    3c02:	4b03      	ldr	r3, [pc, #12]	; (3c10 <puts+0x10>)
    3c04:	0001      	movs	r1, r0
    3c06:	6818      	ldr	r0, [r3, #0]
    3c08:	f7ff ff88 	bl	3b1c <_puts_r>
    3c0c:	bd10      	pop	{r4, pc}
    3c0e:	46c0      	nop			; (mov r8, r8)
    3c10:	2000401c 	.word	0x2000401c

00003c14 <_sbrk_r>:
_sbrk_r():
    3c14:	2300      	movs	r3, #0
    3c16:	b570      	push	{r4, r5, r6, lr}
    3c18:	4d06      	ldr	r5, [pc, #24]	; (3c34 <_sbrk_r+0x20>)
    3c1a:	0004      	movs	r4, r0
    3c1c:	0008      	movs	r0, r1
    3c1e:	602b      	str	r3, [r5, #0]
    3c20:	f000 ff04 	bl	4a2c <_sbrk>
    3c24:	1c43      	adds	r3, r0, #1
    3c26:	d103      	bne.n	3c30 <_sbrk_r+0x1c>
    3c28:	682b      	ldr	r3, [r5, #0]
    3c2a:	2b00      	cmp	r3, #0
    3c2c:	d000      	beq.n	3c30 <_sbrk_r+0x1c>
    3c2e:	6023      	str	r3, [r4, #0]
    3c30:	bd70      	pop	{r4, r5, r6, pc}
    3c32:	46c0      	nop			; (mov r8, r8)
    3c34:	20005674 	.word	0x20005674

00003c38 <__swbuf_r>:
__swbuf_r():
    3c38:	b5f8      	push	{r3, r4, r5, r6, r7, lr}
    3c3a:	0005      	movs	r5, r0
    3c3c:	000e      	movs	r6, r1
    3c3e:	0014      	movs	r4, r2
    3c40:	2800      	cmp	r0, #0
    3c42:	d004      	beq.n	3c4e <__swbuf_r+0x16>
    3c44:	6983      	ldr	r3, [r0, #24]
    3c46:	2b00      	cmp	r3, #0
    3c48:	d101      	bne.n	3c4e <__swbuf_r+0x16>
    3c4a:	f000 f9f1 	bl	4030 <__sinit>
    3c4e:	4b22      	ldr	r3, [pc, #136]	; (3cd8 <__swbuf_r+0xa0>)
    3c50:	429c      	cmp	r4, r3
    3c52:	d12e      	bne.n	3cb2 <__swbuf_r+0x7a>
    3c54:	686c      	ldr	r4, [r5, #4]
    3c56:	69a3      	ldr	r3, [r4, #24]
    3c58:	60a3      	str	r3, [r4, #8]
    3c5a:	89a3      	ldrh	r3, [r4, #12]
    3c5c:	071b      	lsls	r3, r3, #28
    3c5e:	d532      	bpl.n	3cc6 <__swbuf_r+0x8e>
    3c60:	6923      	ldr	r3, [r4, #16]
    3c62:	2b00      	cmp	r3, #0
    3c64:	d02f      	beq.n	3cc6 <__swbuf_r+0x8e>
    3c66:	6823      	ldr	r3, [r4, #0]
    3c68:	6922      	ldr	r2, [r4, #16]
    3c6a:	b2f7      	uxtb	r7, r6
    3c6c:	1a98      	subs	r0, r3, r2
    3c6e:	6963      	ldr	r3, [r4, #20]
    3c70:	b2f6      	uxtb	r6, r6
    3c72:	4283      	cmp	r3, r0
    3c74:	dc05      	bgt.n	3c82 <__swbuf_r+0x4a>
    3c76:	0021      	movs	r1, r4
    3c78:	0028      	movs	r0, r5
    3c7a:	f000 f937 	bl	3eec <_fflush_r>
    3c7e:	2800      	cmp	r0, #0
    3c80:	d127      	bne.n	3cd2 <__swbuf_r+0x9a>
    3c82:	68a3      	ldr	r3, [r4, #8]
    3c84:	3001      	adds	r0, #1
    3c86:	3b01      	subs	r3, #1
    3c88:	60a3      	str	r3, [r4, #8]
    3c8a:	6823      	ldr	r3, [r4, #0]
    3c8c:	1c5a      	adds	r2, r3, #1
    3c8e:	6022      	str	r2, [r4, #0]
    3c90:	701f      	strb	r7, [r3, #0]
    3c92:	6963      	ldr	r3, [r4, #20]
    3c94:	4283      	cmp	r3, r0
    3c96:	d004      	beq.n	3ca2 <__swbuf_r+0x6a>
    3c98:	89a3      	ldrh	r3, [r4, #12]
    3c9a:	07db      	lsls	r3, r3, #31
    3c9c:	d507      	bpl.n	3cae <__swbuf_r+0x76>
    3c9e:	2e0a      	cmp	r6, #10
    3ca0:	d105      	bne.n	3cae <__swbuf_r+0x76>
    3ca2:	0021      	movs	r1, r4
    3ca4:	0028      	movs	r0, r5
    3ca6:	f000 f921 	bl	3eec <_fflush_r>
    3caa:	2800      	cmp	r0, #0
    3cac:	d111      	bne.n	3cd2 <__swbuf_r+0x9a>
    3cae:	0030      	movs	r0, r6
    3cb0:	bdf8      	pop	{r3, r4, r5, r6, r7, pc}
    3cb2:	4b0a      	ldr	r3, [pc, #40]	; (3cdc <__swbuf_r+0xa4>)
    3cb4:	429c      	cmp	r4, r3
    3cb6:	d101      	bne.n	3cbc <__swbuf_r+0x84>
    3cb8:	68ac      	ldr	r4, [r5, #8]
    3cba:	e7cc      	b.n	3c56 <__swbuf_r+0x1e>
    3cbc:	4b08      	ldr	r3, [pc, #32]	; (3ce0 <__swbuf_r+0xa8>)
    3cbe:	429c      	cmp	r4, r3
    3cc0:	d1c9      	bne.n	3c56 <__swbuf_r+0x1e>
    3cc2:	68ec      	ldr	r4, [r5, #12]
    3cc4:	e7c7      	b.n	3c56 <__swbuf_r+0x1e>
    3cc6:	0021      	movs	r1, r4
    3cc8:	0028      	movs	r0, r5
    3cca:	f000 f80b 	bl	3ce4 <__swsetup_r>
    3cce:	2800      	cmp	r0, #0
    3cd0:	d0c9      	beq.n	3c66 <__swbuf_r+0x2e>
    3cd2:	2601      	movs	r6, #1
    3cd4:	4276      	negs	r6, r6
    3cd6:	e7ea      	b.n	3cae <__swbuf_r+0x76>
    3cd8:	000053fc 	.word	0x000053fc
    3cdc:	0000541c 	.word	0x0000541c
    3ce0:	000053dc 	.word	0x000053dc

00003ce4 <__swsetup_r>:
__swsetup_r():
    3ce4:	4b37      	ldr	r3, [pc, #220]	; (3dc4 <__swsetup_r+0xe0>)
    3ce6:	b570      	push	{r4, r5, r6, lr}
    3ce8:	681d      	ldr	r5, [r3, #0]
    3cea:	0006      	movs	r6, r0
    3cec:	000c      	movs	r4, r1
    3cee:	2d00      	cmp	r5, #0
    3cf0:	d005      	beq.n	3cfe <__swsetup_r+0x1a>
    3cf2:	69ab      	ldr	r3, [r5, #24]
    3cf4:	2b00      	cmp	r3, #0
    3cf6:	d102      	bne.n	3cfe <__swsetup_r+0x1a>
    3cf8:	0028      	movs	r0, r5
    3cfa:	f000 f999 	bl	4030 <__sinit>
    3cfe:	4b32      	ldr	r3, [pc, #200]	; (3dc8 <__swsetup_r+0xe4>)
    3d00:	429c      	cmp	r4, r3
    3d02:	d10f      	bne.n	3d24 <__swsetup_r+0x40>
    3d04:	686c      	ldr	r4, [r5, #4]
    3d06:	230c      	movs	r3, #12
    3d08:	5ee2      	ldrsh	r2, [r4, r3]
    3d0a:	b293      	uxth	r3, r2
    3d0c:	0711      	lsls	r1, r2, #28
    3d0e:	d42d      	bmi.n	3d6c <__swsetup_r+0x88>
    3d10:	06d9      	lsls	r1, r3, #27
    3d12:	d411      	bmi.n	3d38 <__swsetup_r+0x54>
    3d14:	2309      	movs	r3, #9
    3d16:	2001      	movs	r0, #1
    3d18:	6033      	str	r3, [r6, #0]
    3d1a:	3337      	adds	r3, #55	; 0x37
    3d1c:	4313      	orrs	r3, r2
    3d1e:	81a3      	strh	r3, [r4, #12]
    3d20:	4240      	negs	r0, r0
    3d22:	bd70      	pop	{r4, r5, r6, pc}
    3d24:	4b29      	ldr	r3, [pc, #164]	; (3dcc <__swsetup_r+0xe8>)
    3d26:	429c      	cmp	r4, r3
    3d28:	d101      	bne.n	3d2e <__swsetup_r+0x4a>
    3d2a:	68ac      	ldr	r4, [r5, #8]
    3d2c:	e7eb      	b.n	3d06 <__swsetup_r+0x22>
    3d2e:	4b28      	ldr	r3, [pc, #160]	; (3dd0 <__swsetup_r+0xec>)
    3d30:	429c      	cmp	r4, r3
    3d32:	d1e8      	bne.n	3d06 <__swsetup_r+0x22>
    3d34:	68ec      	ldr	r4, [r5, #12]
    3d36:	e7e6      	b.n	3d06 <__swsetup_r+0x22>
    3d38:	075b      	lsls	r3, r3, #29
    3d3a:	d513      	bpl.n	3d64 <__swsetup_r+0x80>
    3d3c:	6b61      	ldr	r1, [r4, #52]	; 0x34
    3d3e:	2900      	cmp	r1, #0
    3d40:	d008      	beq.n	3d54 <__swsetup_r+0x70>
    3d42:	0023      	movs	r3, r4
    3d44:	3344      	adds	r3, #68	; 0x44
    3d46:	4299      	cmp	r1, r3
    3d48:	d002      	beq.n	3d50 <__swsetup_r+0x6c>
    3d4a:	0030      	movs	r0, r6
    3d4c:	f7ff fe24 	bl	3998 <_free_r>
    3d50:	2300      	movs	r3, #0
    3d52:	6363      	str	r3, [r4, #52]	; 0x34
    3d54:	2224      	movs	r2, #36	; 0x24
    3d56:	89a3      	ldrh	r3, [r4, #12]
    3d58:	4393      	bics	r3, r2
    3d5a:	81a3      	strh	r3, [r4, #12]
    3d5c:	2300      	movs	r3, #0
    3d5e:	6063      	str	r3, [r4, #4]
    3d60:	6923      	ldr	r3, [r4, #16]
    3d62:	6023      	str	r3, [r4, #0]
    3d64:	2308      	movs	r3, #8
    3d66:	89a2      	ldrh	r2, [r4, #12]
    3d68:	4313      	orrs	r3, r2
    3d6a:	81a3      	strh	r3, [r4, #12]
    3d6c:	6923      	ldr	r3, [r4, #16]
    3d6e:	2b00      	cmp	r3, #0
    3d70:	d10b      	bne.n	3d8a <__swsetup_r+0xa6>
    3d72:	21a0      	movs	r1, #160	; 0xa0
    3d74:	2280      	movs	r2, #128	; 0x80
    3d76:	89a3      	ldrh	r3, [r4, #12]
    3d78:	0089      	lsls	r1, r1, #2
    3d7a:	0092      	lsls	r2, r2, #2
    3d7c:	400b      	ands	r3, r1
    3d7e:	4293      	cmp	r3, r2
    3d80:	d003      	beq.n	3d8a <__swsetup_r+0xa6>
    3d82:	0021      	movs	r1, r4
    3d84:	0030      	movs	r0, r6
    3d86:	f000 fa1f 	bl	41c8 <__smakebuf_r>
    3d8a:	220c      	movs	r2, #12
    3d8c:	5ea3      	ldrsh	r3, [r4, r2]
    3d8e:	2001      	movs	r0, #1
    3d90:	001a      	movs	r2, r3
    3d92:	b299      	uxth	r1, r3
    3d94:	4002      	ands	r2, r0
    3d96:	4203      	tst	r3, r0
    3d98:	d00f      	beq.n	3dba <__swsetup_r+0xd6>
    3d9a:	2200      	movs	r2, #0
    3d9c:	60a2      	str	r2, [r4, #8]
    3d9e:	6962      	ldr	r2, [r4, #20]
    3da0:	4252      	negs	r2, r2
    3da2:	61a2      	str	r2, [r4, #24]
    3da4:	2000      	movs	r0, #0
    3da6:	6922      	ldr	r2, [r4, #16]
    3da8:	4282      	cmp	r2, r0
    3daa:	d1ba      	bne.n	3d22 <__swsetup_r+0x3e>
    3dac:	060a      	lsls	r2, r1, #24
    3dae:	d5b8      	bpl.n	3d22 <__swsetup_r+0x3e>
    3db0:	2240      	movs	r2, #64	; 0x40
    3db2:	4313      	orrs	r3, r2
    3db4:	81a3      	strh	r3, [r4, #12]
    3db6:	3801      	subs	r0, #1
    3db8:	e7b3      	b.n	3d22 <__swsetup_r+0x3e>
    3dba:	0788      	lsls	r0, r1, #30
    3dbc:	d400      	bmi.n	3dc0 <__swsetup_r+0xdc>
    3dbe:	6962      	ldr	r2, [r4, #20]
    3dc0:	60a2      	str	r2, [r4, #8]
    3dc2:	e7ef      	b.n	3da4 <__swsetup_r+0xc0>
    3dc4:	2000401c 	.word	0x2000401c
    3dc8:	000053fc 	.word	0x000053fc
    3dcc:	0000541c 	.word	0x0000541c
    3dd0:	000053dc 	.word	0x000053dc

00003dd4 <__sflush_r>:
__sflush_r():
    3dd4:	b5f7      	push	{r0, r1, r2, r4, r5, r6, r7, lr}
    3dd6:	898b      	ldrh	r3, [r1, #12]
    3dd8:	0005      	movs	r5, r0
    3dda:	000c      	movs	r4, r1
    3ddc:	071a      	lsls	r2, r3, #28
    3dde:	d45f      	bmi.n	3ea0 <__sflush_r+0xcc>
    3de0:	684a      	ldr	r2, [r1, #4]
    3de2:	2a00      	cmp	r2, #0
    3de4:	dc04      	bgt.n	3df0 <__sflush_r+0x1c>
    3de6:	6c0a      	ldr	r2, [r1, #64]	; 0x40
    3de8:	2a00      	cmp	r2, #0
    3dea:	dc01      	bgt.n	3df0 <__sflush_r+0x1c>
    3dec:	2000      	movs	r0, #0
    3dee:	bdfe      	pop	{r1, r2, r3, r4, r5, r6, r7, pc}
    3df0:	6ae7      	ldr	r7, [r4, #44]	; 0x2c
    3df2:	2f00      	cmp	r7, #0
    3df4:	d0fa      	beq.n	3dec <__sflush_r+0x18>
    3df6:	2200      	movs	r2, #0
    3df8:	2180      	movs	r1, #128	; 0x80
    3dfa:	682e      	ldr	r6, [r5, #0]
    3dfc:	602a      	str	r2, [r5, #0]
    3dfe:	001a      	movs	r2, r3
    3e00:	0149      	lsls	r1, r1, #5
    3e02:	400a      	ands	r2, r1
    3e04:	420b      	tst	r3, r1
    3e06:	d034      	beq.n	3e72 <__sflush_r+0x9e>
    3e08:	6d60      	ldr	r0, [r4, #84]	; 0x54
    3e0a:	89a3      	ldrh	r3, [r4, #12]
    3e0c:	075b      	lsls	r3, r3, #29
    3e0e:	d506      	bpl.n	3e1e <__sflush_r+0x4a>
    3e10:	6863      	ldr	r3, [r4, #4]
    3e12:	1ac0      	subs	r0, r0, r3
    3e14:	6b63      	ldr	r3, [r4, #52]	; 0x34
    3e16:	2b00      	cmp	r3, #0
    3e18:	d001      	beq.n	3e1e <__sflush_r+0x4a>
    3e1a:	6c23      	ldr	r3, [r4, #64]	; 0x40
    3e1c:	1ac0      	subs	r0, r0, r3
    3e1e:	0002      	movs	r2, r0
    3e20:	6a21      	ldr	r1, [r4, #32]
    3e22:	2300      	movs	r3, #0
    3e24:	0028      	movs	r0, r5
    3e26:	6ae7      	ldr	r7, [r4, #44]	; 0x2c
    3e28:	47b8      	blx	r7
    3e2a:	89a1      	ldrh	r1, [r4, #12]
    3e2c:	1c43      	adds	r3, r0, #1
    3e2e:	d106      	bne.n	3e3e <__sflush_r+0x6a>
    3e30:	682b      	ldr	r3, [r5, #0]
    3e32:	2b1d      	cmp	r3, #29
    3e34:	d831      	bhi.n	3e9a <__sflush_r+0xc6>
    3e36:	4a2c      	ldr	r2, [pc, #176]	; (3ee8 <__sflush_r+0x114>)
    3e38:	40da      	lsrs	r2, r3
    3e3a:	07d3      	lsls	r3, r2, #31
    3e3c:	d52d      	bpl.n	3e9a <__sflush_r+0xc6>
    3e3e:	2300      	movs	r3, #0
    3e40:	6063      	str	r3, [r4, #4]
    3e42:	6923      	ldr	r3, [r4, #16]
    3e44:	6023      	str	r3, [r4, #0]
    3e46:	04cb      	lsls	r3, r1, #19
    3e48:	d505      	bpl.n	3e56 <__sflush_r+0x82>
    3e4a:	1c43      	adds	r3, r0, #1
    3e4c:	d102      	bne.n	3e54 <__sflush_r+0x80>
    3e4e:	682b      	ldr	r3, [r5, #0]
    3e50:	2b00      	cmp	r3, #0
    3e52:	d100      	bne.n	3e56 <__sflush_r+0x82>
    3e54:	6560      	str	r0, [r4, #84]	; 0x54
    3e56:	6b61      	ldr	r1, [r4, #52]	; 0x34
    3e58:	602e      	str	r6, [r5, #0]
    3e5a:	2900      	cmp	r1, #0
    3e5c:	d0c6      	beq.n	3dec <__sflush_r+0x18>
    3e5e:	0023      	movs	r3, r4
    3e60:	3344      	adds	r3, #68	; 0x44
    3e62:	4299      	cmp	r1, r3
    3e64:	d002      	beq.n	3e6c <__sflush_r+0x98>
    3e66:	0028      	movs	r0, r5
    3e68:	f7ff fd96 	bl	3998 <_free_r>
    3e6c:	2000      	movs	r0, #0
    3e6e:	6360      	str	r0, [r4, #52]	; 0x34
    3e70:	e7bd      	b.n	3dee <__sflush_r+0x1a>
    3e72:	2301      	movs	r3, #1
    3e74:	0028      	movs	r0, r5
    3e76:	6a21      	ldr	r1, [r4, #32]
    3e78:	47b8      	blx	r7
    3e7a:	1c43      	adds	r3, r0, #1
    3e7c:	d1c5      	bne.n	3e0a <__sflush_r+0x36>
    3e7e:	682b      	ldr	r3, [r5, #0]
    3e80:	2b00      	cmp	r3, #0
    3e82:	d0c2      	beq.n	3e0a <__sflush_r+0x36>
    3e84:	2b1d      	cmp	r3, #29
    3e86:	d001      	beq.n	3e8c <__sflush_r+0xb8>
    3e88:	2b16      	cmp	r3, #22
    3e8a:	d101      	bne.n	3e90 <__sflush_r+0xbc>
    3e8c:	602e      	str	r6, [r5, #0]
    3e8e:	e7ad      	b.n	3dec <__sflush_r+0x18>
    3e90:	2340      	movs	r3, #64	; 0x40
    3e92:	89a2      	ldrh	r2, [r4, #12]
    3e94:	4313      	orrs	r3, r2
    3e96:	81a3      	strh	r3, [r4, #12]
    3e98:	e7a9      	b.n	3dee <__sflush_r+0x1a>
    3e9a:	2340      	movs	r3, #64	; 0x40
    3e9c:	430b      	orrs	r3, r1
    3e9e:	e7fa      	b.n	3e96 <__sflush_r+0xc2>
    3ea0:	690f      	ldr	r7, [r1, #16]
    3ea2:	2f00      	cmp	r7, #0
    3ea4:	d0a2      	beq.n	3dec <__sflush_r+0x18>
    3ea6:	680a      	ldr	r2, [r1, #0]
    3ea8:	600f      	str	r7, [r1, #0]
    3eaa:	1bd2      	subs	r2, r2, r7
    3eac:	9201      	str	r2, [sp, #4]
    3eae:	2200      	movs	r2, #0
    3eb0:	079b      	lsls	r3, r3, #30
    3eb2:	d100      	bne.n	3eb6 <__sflush_r+0xe2>
    3eb4:	694a      	ldr	r2, [r1, #20]
    3eb6:	60a2      	str	r2, [r4, #8]
    3eb8:	9b01      	ldr	r3, [sp, #4]
    3eba:	2b00      	cmp	r3, #0
    3ebc:	dc00      	bgt.n	3ec0 <__sflush_r+0xec>
    3ebe:	e795      	b.n	3dec <__sflush_r+0x18>
    3ec0:	003a      	movs	r2, r7
    3ec2:	0028      	movs	r0, r5
    3ec4:	9b01      	ldr	r3, [sp, #4]
    3ec6:	6a21      	ldr	r1, [r4, #32]
    3ec8:	6aa6      	ldr	r6, [r4, #40]	; 0x28
    3eca:	47b0      	blx	r6
    3ecc:	2800      	cmp	r0, #0
    3ece:	dc06      	bgt.n	3ede <__sflush_r+0x10a>
    3ed0:	2340      	movs	r3, #64	; 0x40
    3ed2:	2001      	movs	r0, #1
    3ed4:	89a2      	ldrh	r2, [r4, #12]
    3ed6:	4240      	negs	r0, r0
    3ed8:	4313      	orrs	r3, r2
    3eda:	81a3      	strh	r3, [r4, #12]
    3edc:	e787      	b.n	3dee <__sflush_r+0x1a>
    3ede:	9b01      	ldr	r3, [sp, #4]
    3ee0:	183f      	adds	r7, r7, r0
    3ee2:	1a1b      	subs	r3, r3, r0
    3ee4:	9301      	str	r3, [sp, #4]
    3ee6:	e7e7      	b.n	3eb8 <__sflush_r+0xe4>
    3ee8:	20400001 	.word	0x20400001

00003eec <_fflush_r>:
_fflush_r():
    3eec:	690b      	ldr	r3, [r1, #16]
    3eee:	b570      	push	{r4, r5, r6, lr}
    3ef0:	0005      	movs	r5, r0
    3ef2:	000c      	movs	r4, r1
    3ef4:	2b00      	cmp	r3, #0
    3ef6:	d102      	bne.n	3efe <_fflush_r+0x12>
    3ef8:	2500      	movs	r5, #0
    3efa:	0028      	movs	r0, r5
    3efc:	bd70      	pop	{r4, r5, r6, pc}
    3efe:	2800      	cmp	r0, #0
    3f00:	d004      	beq.n	3f0c <_fflush_r+0x20>
    3f02:	6983      	ldr	r3, [r0, #24]
    3f04:	2b00      	cmp	r3, #0
    3f06:	d101      	bne.n	3f0c <_fflush_r+0x20>
    3f08:	f000 f892 	bl	4030 <__sinit>
    3f0c:	4b14      	ldr	r3, [pc, #80]	; (3f60 <_fflush_r+0x74>)
    3f0e:	429c      	cmp	r4, r3
    3f10:	d11b      	bne.n	3f4a <_fflush_r+0x5e>
    3f12:	686c      	ldr	r4, [r5, #4]
    3f14:	220c      	movs	r2, #12
    3f16:	5ea3      	ldrsh	r3, [r4, r2]
    3f18:	2b00      	cmp	r3, #0
    3f1a:	d0ed      	beq.n	3ef8 <_fflush_r+0xc>
    3f1c:	6e62      	ldr	r2, [r4, #100]	; 0x64
    3f1e:	07d2      	lsls	r2, r2, #31
    3f20:	d404      	bmi.n	3f2c <_fflush_r+0x40>
    3f22:	059b      	lsls	r3, r3, #22
    3f24:	d402      	bmi.n	3f2c <_fflush_r+0x40>
    3f26:	6da0      	ldr	r0, [r4, #88]	; 0x58
    3f28:	f000 f923 	bl	4172 <__retarget_lock_acquire_recursive>
    3f2c:	0028      	movs	r0, r5
    3f2e:	0021      	movs	r1, r4
    3f30:	f7ff ff50 	bl	3dd4 <__sflush_r>
    3f34:	6e63      	ldr	r3, [r4, #100]	; 0x64
    3f36:	0005      	movs	r5, r0
    3f38:	07db      	lsls	r3, r3, #31
    3f3a:	d4de      	bmi.n	3efa <_fflush_r+0xe>
    3f3c:	89a3      	ldrh	r3, [r4, #12]
    3f3e:	059b      	lsls	r3, r3, #22
    3f40:	d4db      	bmi.n	3efa <_fflush_r+0xe>
    3f42:	6da0      	ldr	r0, [r4, #88]	; 0x58
    3f44:	f000 f916 	bl	4174 <__retarget_lock_release_recursive>
    3f48:	e7d7      	b.n	3efa <_fflush_r+0xe>
    3f4a:	4b06      	ldr	r3, [pc, #24]	; (3f64 <_fflush_r+0x78>)
    3f4c:	429c      	cmp	r4, r3
    3f4e:	d101      	bne.n	3f54 <_fflush_r+0x68>
    3f50:	68ac      	ldr	r4, [r5, #8]
    3f52:	e7df      	b.n	3f14 <_fflush_r+0x28>
    3f54:	4b04      	ldr	r3, [pc, #16]	; (3f68 <_fflush_r+0x7c>)
    3f56:	429c      	cmp	r4, r3
    3f58:	d1dc      	bne.n	3f14 <_fflush_r+0x28>
    3f5a:	68ec      	ldr	r4, [r5, #12]
    3f5c:	e7da      	b.n	3f14 <_fflush_r+0x28>
    3f5e:	46c0      	nop			; (mov r8, r8)
    3f60:	000053fc 	.word	0x000053fc
    3f64:	0000541c 	.word	0x0000541c
    3f68:	000053dc 	.word	0x000053dc

00003f6c <std>:
std():
    3f6c:	2300      	movs	r3, #0
    3f6e:	b510      	push	{r4, lr}
    3f70:	0004      	movs	r4, r0
    3f72:	6003      	str	r3, [r0, #0]
    3f74:	6043      	str	r3, [r0, #4]
    3f76:	6083      	str	r3, [r0, #8]
    3f78:	8181      	strh	r1, [r0, #12]
    3f7a:	6643      	str	r3, [r0, #100]	; 0x64
    3f7c:	0019      	movs	r1, r3
    3f7e:	81c2      	strh	r2, [r0, #14]
    3f80:	6103      	str	r3, [r0, #16]
    3f82:	6143      	str	r3, [r0, #20]
    3f84:	6183      	str	r3, [r0, #24]
    3f86:	2208      	movs	r2, #8
    3f88:	305c      	adds	r0, #92	; 0x5c
    3f8a:	f000 f961 	bl	4250 <memset>
    3f8e:	4b05      	ldr	r3, [pc, #20]	; (3fa4 <std+0x38>)
    3f90:	6263      	str	r3, [r4, #36]	; 0x24
    3f92:	4b05      	ldr	r3, [pc, #20]	; (3fa8 <std+0x3c>)
    3f94:	6224      	str	r4, [r4, #32]
    3f96:	62a3      	str	r3, [r4, #40]	; 0x28
    3f98:	4b04      	ldr	r3, [pc, #16]	; (3fac <std+0x40>)
    3f9a:	62e3      	str	r3, [r4, #44]	; 0x2c
    3f9c:	4b04      	ldr	r3, [pc, #16]	; (3fb0 <std+0x44>)
    3f9e:	6323      	str	r3, [r4, #48]	; 0x30
    3fa0:	bd10      	pop	{r4, pc}
    3fa2:	46c0      	nop			; (mov r8, r8)
    3fa4:	00004849 	.word	0x00004849
    3fa8:	00004871 	.word	0x00004871
    3fac:	000048a9 	.word	0x000048a9
    3fb0:	000048d5 	.word	0x000048d5

00003fb4 <_cleanup_r>:
_cleanup_r():
    3fb4:	b510      	push	{r4, lr}
    3fb6:	4902      	ldr	r1, [pc, #8]	; (3fc0 <_cleanup_r+0xc>)
    3fb8:	f000 f8ba 	bl	4130 <_fwalk_reent>
    3fbc:	bd10      	pop	{r4, pc}
    3fbe:	46c0      	nop			; (mov r8, r8)
    3fc0:	00003eed 	.word	0x00003eed

00003fc4 <__sfmoreglue>:
__sfmoreglue():
    3fc4:	b570      	push	{r4, r5, r6, lr}
    3fc6:	2568      	movs	r5, #104	; 0x68
    3fc8:	1e4a      	subs	r2, r1, #1
    3fca:	4355      	muls	r5, r2
    3fcc:	000e      	movs	r6, r1
    3fce:	0029      	movs	r1, r5
    3fd0:	3174      	adds	r1, #116	; 0x74
    3fd2:	f7ff fd2b 	bl	3a2c <_malloc_r>
    3fd6:	1e04      	subs	r4, r0, #0
    3fd8:	d008      	beq.n	3fec <__sfmoreglue+0x28>
    3fda:	2100      	movs	r1, #0
    3fdc:	002a      	movs	r2, r5
    3fde:	6001      	str	r1, [r0, #0]
    3fe0:	6046      	str	r6, [r0, #4]
    3fe2:	300c      	adds	r0, #12
    3fe4:	60a0      	str	r0, [r4, #8]
    3fe6:	3268      	adds	r2, #104	; 0x68
    3fe8:	f000 f932 	bl	4250 <memset>
    3fec:	0020      	movs	r0, r4
    3fee:	bd70      	pop	{r4, r5, r6, pc}

00003ff0 <__sfp_lock_acquire>:
__sfp_lock_acquire():
    3ff0:	b510      	push	{r4, lr}
    3ff2:	4802      	ldr	r0, [pc, #8]	; (3ffc <__sfp_lock_acquire+0xc>)
    3ff4:	f000 f8bd 	bl	4172 <__retarget_lock_acquire_recursive>
    3ff8:	bd10      	pop	{r4, pc}
    3ffa:	46c0      	nop			; (mov r8, r8)
    3ffc:	20005670 	.word	0x20005670

00004000 <__sfp_lock_release>:
__sfp_lock_release():
    4000:	b510      	push	{r4, lr}
    4002:	4802      	ldr	r0, [pc, #8]	; (400c <__sfp_lock_release+0xc>)
    4004:	f000 f8b6 	bl	4174 <__retarget_lock_release_recursive>
    4008:	bd10      	pop	{r4, pc}
    400a:	46c0      	nop			; (mov r8, r8)
    400c:	20005670 	.word	0x20005670

00004010 <__sinit_lock_acquire>:
__sinit_lock_acquire():
    4010:	b510      	push	{r4, lr}
    4012:	4802      	ldr	r0, [pc, #8]	; (401c <__sinit_lock_acquire+0xc>)
    4014:	f000 f8ad 	bl	4172 <__retarget_lock_acquire_recursive>
    4018:	bd10      	pop	{r4, pc}
    401a:	46c0      	nop			; (mov r8, r8)
    401c:	2000566b 	.word	0x2000566b

00004020 <__sinit_lock_release>:
__sinit_lock_release():
    4020:	b510      	push	{r4, lr}
    4022:	4802      	ldr	r0, [pc, #8]	; (402c <__sinit_lock_release+0xc>)
    4024:	f000 f8a6 	bl	4174 <__retarget_lock_release_recursive>
    4028:	bd10      	pop	{r4, pc}
    402a:	46c0      	nop			; (mov r8, r8)
    402c:	2000566b 	.word	0x2000566b

00004030 <__sinit>:
__sinit():
    4030:	b513      	push	{r0, r1, r4, lr}
    4032:	0004      	movs	r4, r0
    4034:	f7ff ffec 	bl	4010 <__sinit_lock_acquire>
    4038:	69a3      	ldr	r3, [r4, #24]
    403a:	2b00      	cmp	r3, #0
    403c:	d002      	beq.n	4044 <__sinit+0x14>
    403e:	f7ff ffef 	bl	4020 <__sinit_lock_release>
    4042:	bd13      	pop	{r0, r1, r4, pc}
    4044:	64a3      	str	r3, [r4, #72]	; 0x48
    4046:	64e3      	str	r3, [r4, #76]	; 0x4c
    4048:	6523      	str	r3, [r4, #80]	; 0x50
    404a:	4b13      	ldr	r3, [pc, #76]	; (4098 <__sinit+0x68>)
    404c:	4a13      	ldr	r2, [pc, #76]	; (409c <__sinit+0x6c>)
    404e:	681b      	ldr	r3, [r3, #0]
    4050:	62a2      	str	r2, [r4, #40]	; 0x28
    4052:	9301      	str	r3, [sp, #4]
    4054:	42a3      	cmp	r3, r4
    4056:	d101      	bne.n	405c <__sinit+0x2c>
    4058:	2301      	movs	r3, #1
    405a:	61a3      	str	r3, [r4, #24]
    405c:	0020      	movs	r0, r4
    405e:	f000 f81f 	bl	40a0 <__sfp>
    4062:	6060      	str	r0, [r4, #4]
    4064:	0020      	movs	r0, r4
    4066:	f000 f81b 	bl	40a0 <__sfp>
    406a:	60a0      	str	r0, [r4, #8]
    406c:	0020      	movs	r0, r4
    406e:	f000 f817 	bl	40a0 <__sfp>
    4072:	2200      	movs	r2, #0
    4074:	2104      	movs	r1, #4
    4076:	60e0      	str	r0, [r4, #12]
    4078:	6860      	ldr	r0, [r4, #4]
    407a:	f7ff ff77 	bl	3f6c <std>
    407e:	2201      	movs	r2, #1
    4080:	2109      	movs	r1, #9
    4082:	68a0      	ldr	r0, [r4, #8]
    4084:	f7ff ff72 	bl	3f6c <std>
    4088:	2202      	movs	r2, #2
    408a:	2112      	movs	r1, #18
    408c:	68e0      	ldr	r0, [r4, #12]
    408e:	f7ff ff6d 	bl	3f6c <std>
    4092:	2301      	movs	r3, #1
    4094:	61a3      	str	r3, [r4, #24]
    4096:	e7d2      	b.n	403e <__sinit+0xe>
    4098:	0000543c 	.word	0x0000543c
    409c:	00003fb5 	.word	0x00003fb5

000040a0 <__sfp>:
__sfp():
    40a0:	b5f8      	push	{r3, r4, r5, r6, r7, lr}
    40a2:	0007      	movs	r7, r0
    40a4:	f7ff ffa4 	bl	3ff0 <__sfp_lock_acquire>
    40a8:	4b1f      	ldr	r3, [pc, #124]	; (4128 <__sfp+0x88>)
    40aa:	681e      	ldr	r6, [r3, #0]
    40ac:	69b3      	ldr	r3, [r6, #24]
    40ae:	2b00      	cmp	r3, #0
    40b0:	d102      	bne.n	40b8 <__sfp+0x18>
    40b2:	0030      	movs	r0, r6
    40b4:	f7ff ffbc 	bl	4030 <__sinit>
    40b8:	3648      	adds	r6, #72	; 0x48
    40ba:	68b4      	ldr	r4, [r6, #8]
    40bc:	6873      	ldr	r3, [r6, #4]
    40be:	3b01      	subs	r3, #1
    40c0:	d504      	bpl.n	40cc <__sfp+0x2c>
    40c2:	6833      	ldr	r3, [r6, #0]
    40c4:	2b00      	cmp	r3, #0
    40c6:	d022      	beq.n	410e <__sfp+0x6e>
    40c8:	6836      	ldr	r6, [r6, #0]
    40ca:	e7f6      	b.n	40ba <__sfp+0x1a>
    40cc:	220c      	movs	r2, #12
    40ce:	5ea5      	ldrsh	r5, [r4, r2]
    40d0:	2d00      	cmp	r5, #0
    40d2:	d11a      	bne.n	410a <__sfp+0x6a>
    40d4:	0020      	movs	r0, r4
    40d6:	4b15      	ldr	r3, [pc, #84]	; (412c <__sfp+0x8c>)
    40d8:	3058      	adds	r0, #88	; 0x58
    40da:	60e3      	str	r3, [r4, #12]
    40dc:	6665      	str	r5, [r4, #100]	; 0x64
    40de:	f000 f847 	bl	4170 <__retarget_lock_init_recursive>
    40e2:	f7ff ff8d 	bl	4000 <__sfp_lock_release>
    40e6:	0020      	movs	r0, r4
    40e8:	2208      	movs	r2, #8
    40ea:	0029      	movs	r1, r5
    40ec:	6025      	str	r5, [r4, #0]
    40ee:	60a5      	str	r5, [r4, #8]
    40f0:	6065      	str	r5, [r4, #4]
    40f2:	6125      	str	r5, [r4, #16]
    40f4:	6165      	str	r5, [r4, #20]
    40f6:	61a5      	str	r5, [r4, #24]
    40f8:	305c      	adds	r0, #92	; 0x5c
    40fa:	f000 f8a9 	bl	4250 <memset>
    40fe:	6365      	str	r5, [r4, #52]	; 0x34
    4100:	63a5      	str	r5, [r4, #56]	; 0x38
    4102:	64a5      	str	r5, [r4, #72]	; 0x48
    4104:	64e5      	str	r5, [r4, #76]	; 0x4c
    4106:	0020      	movs	r0, r4
    4108:	bdf8      	pop	{r3, r4, r5, r6, r7, pc}
    410a:	3468      	adds	r4, #104	; 0x68
    410c:	e7d7      	b.n	40be <__sfp+0x1e>
    410e:	2104      	movs	r1, #4
    4110:	0038      	movs	r0, r7
    4112:	f7ff ff57 	bl	3fc4 <__sfmoreglue>
    4116:	1e04      	subs	r4, r0, #0
    4118:	6030      	str	r0, [r6, #0]
    411a:	d1d5      	bne.n	40c8 <__sfp+0x28>
    411c:	f7ff ff70 	bl	4000 <__sfp_lock_release>
    4120:	230c      	movs	r3, #12
    4122:	603b      	str	r3, [r7, #0]
    4124:	e7ef      	b.n	4106 <__sfp+0x66>
    4126:	46c0      	nop			; (mov r8, r8)
    4128:	0000543c 	.word	0x0000543c
    412c:	ffff0001 	.word	0xffff0001

00004130 <_fwalk_reent>:
_fwalk_reent():
    4130:	b5f7      	push	{r0, r1, r2, r4, r5, r6, r7, lr}
    4132:	0004      	movs	r4, r0
    4134:	0006      	movs	r6, r0
    4136:	2700      	movs	r7, #0
    4138:	9101      	str	r1, [sp, #4]
    413a:	3448      	adds	r4, #72	; 0x48
    413c:	6863      	ldr	r3, [r4, #4]
    413e:	68a5      	ldr	r5, [r4, #8]
    4140:	9300      	str	r3, [sp, #0]
    4142:	9b00      	ldr	r3, [sp, #0]
    4144:	3b01      	subs	r3, #1
    4146:	9300      	str	r3, [sp, #0]
    4148:	d504      	bpl.n	4154 <_fwalk_reent+0x24>
    414a:	6824      	ldr	r4, [r4, #0]
    414c:	2c00      	cmp	r4, #0
    414e:	d1f5      	bne.n	413c <_fwalk_reent+0xc>
    4150:	0038      	movs	r0, r7
    4152:	bdfe      	pop	{r1, r2, r3, r4, r5, r6, r7, pc}
    4154:	89ab      	ldrh	r3, [r5, #12]
    4156:	2b01      	cmp	r3, #1
    4158:	d908      	bls.n	416c <_fwalk_reent+0x3c>
    415a:	220e      	movs	r2, #14
    415c:	5eab      	ldrsh	r3, [r5, r2]
    415e:	3301      	adds	r3, #1
    4160:	d004      	beq.n	416c <_fwalk_reent+0x3c>
    4162:	0029      	movs	r1, r5
    4164:	0030      	movs	r0, r6
    4166:	9b01      	ldr	r3, [sp, #4]
    4168:	4798      	blx	r3
    416a:	4307      	orrs	r7, r0
    416c:	3568      	adds	r5, #104	; 0x68
    416e:	e7e8      	b.n	4142 <_fwalk_reent+0x12>

00004170 <__retarget_lock_init_recursive>:
__retarget_lock_init_recursive():
    4170:	4770      	bx	lr

00004172 <__retarget_lock_acquire_recursive>:
__retarget_lock_acquire_recursive():
    4172:	4770      	bx	lr

00004174 <__retarget_lock_release_recursive>:
__retarget_lock_release_recursive():
    4174:	4770      	bx	lr
	...

00004178 <__swhatbuf_r>:
__swhatbuf_r():
    4178:	b570      	push	{r4, r5, r6, lr}
    417a:	000e      	movs	r6, r1
    417c:	001d      	movs	r5, r3
    417e:	230e      	movs	r3, #14
    4180:	5ec9      	ldrsh	r1, [r1, r3]
    4182:	0014      	movs	r4, r2
    4184:	b096      	sub	sp, #88	; 0x58
    4186:	2900      	cmp	r1, #0
    4188:	da07      	bge.n	419a <__swhatbuf_r+0x22>
    418a:	2300      	movs	r3, #0
    418c:	602b      	str	r3, [r5, #0]
    418e:	89b3      	ldrh	r3, [r6, #12]
    4190:	061b      	lsls	r3, r3, #24
    4192:	d411      	bmi.n	41b8 <__swhatbuf_r+0x40>
    4194:	2380      	movs	r3, #128	; 0x80
    4196:	00db      	lsls	r3, r3, #3
    4198:	e00f      	b.n	41ba <__swhatbuf_r+0x42>
    419a:	466a      	mov	r2, sp
    419c:	f000 fbc6 	bl	492c <_fstat_r>
    41a0:	2800      	cmp	r0, #0
    41a2:	dbf2      	blt.n	418a <__swhatbuf_r+0x12>
    41a4:	23f0      	movs	r3, #240	; 0xf0
    41a6:	9901      	ldr	r1, [sp, #4]
    41a8:	021b      	lsls	r3, r3, #8
    41aa:	4019      	ands	r1, r3
    41ac:	4b05      	ldr	r3, [pc, #20]	; (41c4 <__swhatbuf_r+0x4c>)
    41ae:	18c9      	adds	r1, r1, r3
    41b0:	424b      	negs	r3, r1
    41b2:	4159      	adcs	r1, r3
    41b4:	6029      	str	r1, [r5, #0]
    41b6:	e7ed      	b.n	4194 <__swhatbuf_r+0x1c>
    41b8:	2340      	movs	r3, #64	; 0x40
    41ba:	2000      	movs	r0, #0
    41bc:	6023      	str	r3, [r4, #0]
    41be:	b016      	add	sp, #88	; 0x58
    41c0:	bd70      	pop	{r4, r5, r6, pc}
    41c2:	46c0      	nop			; (mov r8, r8)
    41c4:	ffffe000 	.word	0xffffe000

000041c8 <__smakebuf_r>:
__smakebuf_r():
    41c8:	b5f7      	push	{r0, r1, r2, r4, r5, r6, r7, lr}
    41ca:	2602      	movs	r6, #2
    41cc:	898b      	ldrh	r3, [r1, #12]
    41ce:	0005      	movs	r5, r0
    41d0:	000c      	movs	r4, r1
    41d2:	4233      	tst	r3, r6
    41d4:	d006      	beq.n	41e4 <__smakebuf_r+0x1c>
    41d6:	0023      	movs	r3, r4
    41d8:	3347      	adds	r3, #71	; 0x47
    41da:	6023      	str	r3, [r4, #0]
    41dc:	6123      	str	r3, [r4, #16]
    41de:	2301      	movs	r3, #1
    41e0:	6163      	str	r3, [r4, #20]
    41e2:	bdf7      	pop	{r0, r1, r2, r4, r5, r6, r7, pc}
    41e4:	466a      	mov	r2, sp
    41e6:	ab01      	add	r3, sp, #4
    41e8:	f7ff ffc6 	bl	4178 <__swhatbuf_r>
    41ec:	9900      	ldr	r1, [sp, #0]
    41ee:	0007      	movs	r7, r0
    41f0:	0028      	movs	r0, r5
    41f2:	f7ff fc1b 	bl	3a2c <_malloc_r>
    41f6:	2800      	cmp	r0, #0
    41f8:	d108      	bne.n	420c <__smakebuf_r+0x44>
    41fa:	220c      	movs	r2, #12
    41fc:	5ea3      	ldrsh	r3, [r4, r2]
    41fe:	059a      	lsls	r2, r3, #22
    4200:	d4ef      	bmi.n	41e2 <__smakebuf_r+0x1a>
    4202:	2203      	movs	r2, #3
    4204:	4393      	bics	r3, r2
    4206:	431e      	orrs	r6, r3
    4208:	81a6      	strh	r6, [r4, #12]
    420a:	e7e4      	b.n	41d6 <__smakebuf_r+0xe>
    420c:	4b0f      	ldr	r3, [pc, #60]	; (424c <__smakebuf_r+0x84>)
    420e:	62ab      	str	r3, [r5, #40]	; 0x28
    4210:	2380      	movs	r3, #128	; 0x80
    4212:	89a2      	ldrh	r2, [r4, #12]
    4214:	6020      	str	r0, [r4, #0]
    4216:	4313      	orrs	r3, r2
    4218:	81a3      	strh	r3, [r4, #12]
    421a:	9b00      	ldr	r3, [sp, #0]
    421c:	6120      	str	r0, [r4, #16]
    421e:	6163      	str	r3, [r4, #20]
    4220:	9b01      	ldr	r3, [sp, #4]
    4222:	2b00      	cmp	r3, #0
    4224:	d00d      	beq.n	4242 <__smakebuf_r+0x7a>
    4226:	0028      	movs	r0, r5
    4228:	230e      	movs	r3, #14
    422a:	5ee1      	ldrsh	r1, [r4, r3]
    422c:	f000 fb90 	bl	4950 <_isatty_r>
    4230:	2800      	cmp	r0, #0
    4232:	d006      	beq.n	4242 <__smakebuf_r+0x7a>
    4234:	2203      	movs	r2, #3
    4236:	89a3      	ldrh	r3, [r4, #12]
    4238:	4393      	bics	r3, r2
    423a:	001a      	movs	r2, r3
    423c:	2301      	movs	r3, #1
    423e:	4313      	orrs	r3, r2
    4240:	81a3      	strh	r3, [r4, #12]
    4242:	89a0      	ldrh	r0, [r4, #12]
    4244:	4307      	orrs	r7, r0
    4246:	81a7      	strh	r7, [r4, #12]
    4248:	e7cb      	b.n	41e2 <__smakebuf_r+0x1a>
    424a:	46c0      	nop			; (mov r8, r8)
    424c:	00003fb5 	.word	0x00003fb5

00004250 <memset>:
memset():
    4250:	0003      	movs	r3, r0
    4252:	1882      	adds	r2, r0, r2
    4254:	4293      	cmp	r3, r2
    4256:	d100      	bne.n	425a <memset+0xa>
    4258:	4770      	bx	lr
    425a:	7019      	strb	r1, [r3, #0]
    425c:	3301      	adds	r3, #1
    425e:	e7f9      	b.n	4254 <memset+0x4>

00004260 <__malloc_lock>:
__malloc_lock():
    4260:	b510      	push	{r4, lr}
    4262:	4802      	ldr	r0, [pc, #8]	; (426c <__malloc_lock+0xc>)
    4264:	f7ff ff85 	bl	4172 <__retarget_lock_acquire_recursive>
    4268:	bd10      	pop	{r4, pc}
    426a:	46c0      	nop			; (mov r8, r8)
    426c:	2000566c 	.word	0x2000566c

00004270 <__malloc_unlock>:
__malloc_unlock():
    4270:	b510      	push	{r4, lr}
    4272:	4802      	ldr	r0, [pc, #8]	; (427c <__malloc_unlock+0xc>)
    4274:	f7ff ff7e 	bl	4174 <__retarget_lock_release_recursive>
    4278:	bd10      	pop	{r4, pc}
    427a:	46c0      	nop			; (mov r8, r8)
    427c:	2000566c 	.word	0x2000566c

00004280 <__sfputc_r>:
__sfputc_r():
    4280:	6893      	ldr	r3, [r2, #8]
    4282:	b510      	push	{r4, lr}
    4284:	3b01      	subs	r3, #1
    4286:	6093      	str	r3, [r2, #8]
    4288:	2b00      	cmp	r3, #0
    428a:	da04      	bge.n	4296 <__sfputc_r+0x16>
    428c:	6994      	ldr	r4, [r2, #24]
    428e:	42a3      	cmp	r3, r4
    4290:	db07      	blt.n	42a2 <__sfputc_r+0x22>
    4292:	290a      	cmp	r1, #10
    4294:	d005      	beq.n	42a2 <__sfputc_r+0x22>
    4296:	6813      	ldr	r3, [r2, #0]
    4298:	1c58      	adds	r0, r3, #1
    429a:	6010      	str	r0, [r2, #0]
    429c:	7019      	strb	r1, [r3, #0]
    429e:	0008      	movs	r0, r1
    42a0:	bd10      	pop	{r4, pc}
    42a2:	f7ff fcc9 	bl	3c38 <__swbuf_r>
    42a6:	0001      	movs	r1, r0
    42a8:	e7f9      	b.n	429e <__sfputc_r+0x1e>

000042aa <__sfputs_r>:
__sfputs_r():
    42aa:	b5f8      	push	{r3, r4, r5, r6, r7, lr}
    42ac:	0006      	movs	r6, r0
    42ae:	000f      	movs	r7, r1
    42b0:	0014      	movs	r4, r2
    42b2:	18d5      	adds	r5, r2, r3
    42b4:	42ac      	cmp	r4, r5
    42b6:	d101      	bne.n	42bc <__sfputs_r+0x12>
    42b8:	2000      	movs	r0, #0
    42ba:	e007      	b.n	42cc <__sfputs_r+0x22>
    42bc:	7821      	ldrb	r1, [r4, #0]
    42be:	003a      	movs	r2, r7
    42c0:	0030      	movs	r0, r6
    42c2:	f7ff ffdd 	bl	4280 <__sfputc_r>
    42c6:	3401      	adds	r4, #1
    42c8:	1c43      	adds	r3, r0, #1
    42ca:	d1f3      	bne.n	42b4 <__sfputs_r+0xa>
    42cc:	bdf8      	pop	{r3, r4, r5, r6, r7, pc}
	...

000042d0 <_vfiprintf_r>:
_vfiprintf_r():
    42d0:	b5f0      	push	{r4, r5, r6, r7, lr}
    42d2:	b0a1      	sub	sp, #132	; 0x84
    42d4:	0006      	movs	r6, r0
    42d6:	000c      	movs	r4, r1
    42d8:	001f      	movs	r7, r3
    42da:	9203      	str	r2, [sp, #12]
    42dc:	2800      	cmp	r0, #0
    42de:	d004      	beq.n	42ea <_vfiprintf_r+0x1a>
    42e0:	6983      	ldr	r3, [r0, #24]
    42e2:	2b00      	cmp	r3, #0
    42e4:	d101      	bne.n	42ea <_vfiprintf_r+0x1a>
    42e6:	f7ff fea3 	bl	4030 <__sinit>
    42ea:	4b8e      	ldr	r3, [pc, #568]	; (4524 <_vfiprintf_r+0x254>)
    42ec:	429c      	cmp	r4, r3
    42ee:	d11c      	bne.n	432a <_vfiprintf_r+0x5a>
    42f0:	6874      	ldr	r4, [r6, #4]
    42f2:	6e63      	ldr	r3, [r4, #100]	; 0x64
    42f4:	07db      	lsls	r3, r3, #31
    42f6:	d405      	bmi.n	4304 <_vfiprintf_r+0x34>
    42f8:	89a3      	ldrh	r3, [r4, #12]
    42fa:	059b      	lsls	r3, r3, #22
    42fc:	d402      	bmi.n	4304 <_vfiprintf_r+0x34>
    42fe:	6da0      	ldr	r0, [r4, #88]	; 0x58
    4300:	f7ff ff37 	bl	4172 <__retarget_lock_acquire_recursive>
    4304:	89a3      	ldrh	r3, [r4, #12]
    4306:	071b      	lsls	r3, r3, #28
    4308:	d502      	bpl.n	4310 <_vfiprintf_r+0x40>
    430a:	6923      	ldr	r3, [r4, #16]
    430c:	2b00      	cmp	r3, #0
    430e:	d11d      	bne.n	434c <_vfiprintf_r+0x7c>
    4310:	0021      	movs	r1, r4
    4312:	0030      	movs	r0, r6
    4314:	f7ff fce6 	bl	3ce4 <__swsetup_r>
    4318:	2800      	cmp	r0, #0
    431a:	d017      	beq.n	434c <_vfiprintf_r+0x7c>
    431c:	6e63      	ldr	r3, [r4, #100]	; 0x64
    431e:	07db      	lsls	r3, r3, #31
    4320:	d50d      	bpl.n	433e <_vfiprintf_r+0x6e>
    4322:	2001      	movs	r0, #1
    4324:	4240      	negs	r0, r0
    4326:	b021      	add	sp, #132	; 0x84
    4328:	bdf0      	pop	{r4, r5, r6, r7, pc}
    432a:	4b7f      	ldr	r3, [pc, #508]	; (4528 <_vfiprintf_r+0x258>)
    432c:	429c      	cmp	r4, r3
    432e:	d101      	bne.n	4334 <_vfiprintf_r+0x64>
    4330:	68b4      	ldr	r4, [r6, #8]
    4332:	e7de      	b.n	42f2 <_vfiprintf_r+0x22>
    4334:	4b7d      	ldr	r3, [pc, #500]	; (452c <_vfiprintf_r+0x25c>)
    4336:	429c      	cmp	r4, r3
    4338:	d1db      	bne.n	42f2 <_vfiprintf_r+0x22>
    433a:	68f4      	ldr	r4, [r6, #12]
    433c:	e7d9      	b.n	42f2 <_vfiprintf_r+0x22>
    433e:	89a3      	ldrh	r3, [r4, #12]
    4340:	059b      	lsls	r3, r3, #22
    4342:	d4ee      	bmi.n	4322 <_vfiprintf_r+0x52>
    4344:	6da0      	ldr	r0, [r4, #88]	; 0x58
    4346:	f7ff ff15 	bl	4174 <__retarget_lock_release_recursive>
    434a:	e7ea      	b.n	4322 <_vfiprintf_r+0x52>
    434c:	2300      	movs	r3, #0
    434e:	ad08      	add	r5, sp, #32
    4350:	616b      	str	r3, [r5, #20]
    4352:	3320      	adds	r3, #32
    4354:	766b      	strb	r3, [r5, #25]
    4356:	3310      	adds	r3, #16
    4358:	76ab      	strb	r3, [r5, #26]
    435a:	9707      	str	r7, [sp, #28]
    435c:	9f03      	ldr	r7, [sp, #12]
    435e:	783b      	ldrb	r3, [r7, #0]
    4360:	2b00      	cmp	r3, #0
    4362:	d001      	beq.n	4368 <_vfiprintf_r+0x98>
    4364:	2b25      	cmp	r3, #37	; 0x25
    4366:	d14e      	bne.n	4406 <_vfiprintf_r+0x136>
    4368:	9b03      	ldr	r3, [sp, #12]
    436a:	1afb      	subs	r3, r7, r3
    436c:	9305      	str	r3, [sp, #20]
    436e:	9b03      	ldr	r3, [sp, #12]
    4370:	429f      	cmp	r7, r3
    4372:	d00d      	beq.n	4390 <_vfiprintf_r+0xc0>
    4374:	9b05      	ldr	r3, [sp, #20]
    4376:	0021      	movs	r1, r4
    4378:	0030      	movs	r0, r6
    437a:	9a03      	ldr	r2, [sp, #12]
    437c:	f7ff ff95 	bl	42aa <__sfputs_r>
    4380:	1c43      	adds	r3, r0, #1
    4382:	d100      	bne.n	4386 <_vfiprintf_r+0xb6>
    4384:	e0b5      	b.n	44f2 <_vfiprintf_r+0x222>
    4386:	696a      	ldr	r2, [r5, #20]
    4388:	9b05      	ldr	r3, [sp, #20]
    438a:	4694      	mov	ip, r2
    438c:	4463      	add	r3, ip
    438e:	616b      	str	r3, [r5, #20]
    4390:	783b      	ldrb	r3, [r7, #0]
    4392:	2b00      	cmp	r3, #0
    4394:	d100      	bne.n	4398 <_vfiprintf_r+0xc8>
    4396:	e0ac      	b.n	44f2 <_vfiprintf_r+0x222>
    4398:	2201      	movs	r2, #1
    439a:	1c7b      	adds	r3, r7, #1
    439c:	9303      	str	r3, [sp, #12]
    439e:	2300      	movs	r3, #0
    43a0:	4252      	negs	r2, r2
    43a2:	606a      	str	r2, [r5, #4]
    43a4:	a904      	add	r1, sp, #16
    43a6:	3254      	adds	r2, #84	; 0x54
    43a8:	1852      	adds	r2, r2, r1
    43aa:	602b      	str	r3, [r5, #0]
    43ac:	60eb      	str	r3, [r5, #12]
    43ae:	60ab      	str	r3, [r5, #8]
    43b0:	7013      	strb	r3, [r2, #0]
    43b2:	65ab      	str	r3, [r5, #88]	; 0x58
    43b4:	9b03      	ldr	r3, [sp, #12]
    43b6:	2205      	movs	r2, #5
    43b8:	7819      	ldrb	r1, [r3, #0]
    43ba:	485d      	ldr	r0, [pc, #372]	; (4530 <_vfiprintf_r+0x260>)
    43bc:	f000 faee 	bl	499c <memchr>
    43c0:	9b03      	ldr	r3, [sp, #12]
    43c2:	1c5f      	adds	r7, r3, #1
    43c4:	2800      	cmp	r0, #0
    43c6:	d120      	bne.n	440a <_vfiprintf_r+0x13a>
    43c8:	682a      	ldr	r2, [r5, #0]
    43ca:	06d3      	lsls	r3, r2, #27
    43cc:	d504      	bpl.n	43d8 <_vfiprintf_r+0x108>
    43ce:	2353      	movs	r3, #83	; 0x53
    43d0:	a904      	add	r1, sp, #16
    43d2:	185b      	adds	r3, r3, r1
    43d4:	2120      	movs	r1, #32
    43d6:	7019      	strb	r1, [r3, #0]
    43d8:	0713      	lsls	r3, r2, #28
    43da:	d504      	bpl.n	43e6 <_vfiprintf_r+0x116>
    43dc:	2353      	movs	r3, #83	; 0x53
    43de:	a904      	add	r1, sp, #16
    43e0:	185b      	adds	r3, r3, r1
    43e2:	212b      	movs	r1, #43	; 0x2b
    43e4:	7019      	strb	r1, [r3, #0]
    43e6:	9b03      	ldr	r3, [sp, #12]
    43e8:	781b      	ldrb	r3, [r3, #0]
    43ea:	2b2a      	cmp	r3, #42	; 0x2a
    43ec:	d016      	beq.n	441c <_vfiprintf_r+0x14c>
    43ee:	2100      	movs	r1, #0
    43f0:	68eb      	ldr	r3, [r5, #12]
    43f2:	9f03      	ldr	r7, [sp, #12]
    43f4:	783a      	ldrb	r2, [r7, #0]
    43f6:	1c78      	adds	r0, r7, #1
    43f8:	3a30      	subs	r2, #48	; 0x30
    43fa:	4684      	mov	ip, r0
    43fc:	2a09      	cmp	r2, #9
    43fe:	d94f      	bls.n	44a0 <_vfiprintf_r+0x1d0>
    4400:	2900      	cmp	r1, #0
    4402:	d111      	bne.n	4428 <_vfiprintf_r+0x158>
    4404:	e017      	b.n	4436 <_vfiprintf_r+0x166>
    4406:	3701      	adds	r7, #1
    4408:	e7a9      	b.n	435e <_vfiprintf_r+0x8e>
    440a:	4b49      	ldr	r3, [pc, #292]	; (4530 <_vfiprintf_r+0x260>)
    440c:	682a      	ldr	r2, [r5, #0]
    440e:	1ac0      	subs	r0, r0, r3
    4410:	2301      	movs	r3, #1
    4412:	4083      	lsls	r3, r0
    4414:	4313      	orrs	r3, r2
    4416:	602b      	str	r3, [r5, #0]
    4418:	9703      	str	r7, [sp, #12]
    441a:	e7cb      	b.n	43b4 <_vfiprintf_r+0xe4>
    441c:	9b07      	ldr	r3, [sp, #28]
    441e:	1d19      	adds	r1, r3, #4
    4420:	681b      	ldr	r3, [r3, #0]
    4422:	9107      	str	r1, [sp, #28]
    4424:	2b00      	cmp	r3, #0
    4426:	db01      	blt.n	442c <_vfiprintf_r+0x15c>
    4428:	930b      	str	r3, [sp, #44]	; 0x2c
    442a:	e004      	b.n	4436 <_vfiprintf_r+0x166>
    442c:	425b      	negs	r3, r3
    442e:	60eb      	str	r3, [r5, #12]
    4430:	2302      	movs	r3, #2
    4432:	4313      	orrs	r3, r2
    4434:	602b      	str	r3, [r5, #0]
    4436:	783b      	ldrb	r3, [r7, #0]
    4438:	2b2e      	cmp	r3, #46	; 0x2e
    443a:	d10a      	bne.n	4452 <_vfiprintf_r+0x182>
    443c:	787b      	ldrb	r3, [r7, #1]
    443e:	2b2a      	cmp	r3, #42	; 0x2a
    4440:	d137      	bne.n	44b2 <_vfiprintf_r+0x1e2>
    4442:	9b07      	ldr	r3, [sp, #28]
    4444:	3702      	adds	r7, #2
    4446:	1d1a      	adds	r2, r3, #4
    4448:	681b      	ldr	r3, [r3, #0]
    444a:	9207      	str	r2, [sp, #28]
    444c:	2b00      	cmp	r3, #0
    444e:	db2d      	blt.n	44ac <_vfiprintf_r+0x1dc>
    4450:	9309      	str	r3, [sp, #36]	; 0x24
    4452:	2203      	movs	r2, #3
    4454:	7839      	ldrb	r1, [r7, #0]
    4456:	4837      	ldr	r0, [pc, #220]	; (4534 <_vfiprintf_r+0x264>)
    4458:	f000 faa0 	bl	499c <memchr>
    445c:	2800      	cmp	r0, #0
    445e:	d007      	beq.n	4470 <_vfiprintf_r+0x1a0>
    4460:	4b34      	ldr	r3, [pc, #208]	; (4534 <_vfiprintf_r+0x264>)
    4462:	682a      	ldr	r2, [r5, #0]
    4464:	1ac0      	subs	r0, r0, r3
    4466:	2340      	movs	r3, #64	; 0x40
    4468:	4083      	lsls	r3, r0
    446a:	4313      	orrs	r3, r2
    446c:	3701      	adds	r7, #1
    446e:	602b      	str	r3, [r5, #0]
    4470:	7839      	ldrb	r1, [r7, #0]
    4472:	1c7b      	adds	r3, r7, #1
    4474:	2206      	movs	r2, #6
    4476:	4830      	ldr	r0, [pc, #192]	; (4538 <_vfiprintf_r+0x268>)
    4478:	9303      	str	r3, [sp, #12]
    447a:	7629      	strb	r1, [r5, #24]
    447c:	f000 fa8e 	bl	499c <memchr>
    4480:	2800      	cmp	r0, #0
    4482:	d045      	beq.n	4510 <_vfiprintf_r+0x240>
    4484:	4b2d      	ldr	r3, [pc, #180]	; (453c <_vfiprintf_r+0x26c>)
    4486:	2b00      	cmp	r3, #0
    4488:	d127      	bne.n	44da <_vfiprintf_r+0x20a>
    448a:	2207      	movs	r2, #7
    448c:	9b07      	ldr	r3, [sp, #28]
    448e:	3307      	adds	r3, #7
    4490:	4393      	bics	r3, r2
    4492:	3308      	adds	r3, #8
    4494:	9307      	str	r3, [sp, #28]
    4496:	696b      	ldr	r3, [r5, #20]
    4498:	9a04      	ldr	r2, [sp, #16]
    449a:	189b      	adds	r3, r3, r2
    449c:	616b      	str	r3, [r5, #20]
    449e:	e75d      	b.n	435c <_vfiprintf_r+0x8c>
    44a0:	210a      	movs	r1, #10
    44a2:	434b      	muls	r3, r1
    44a4:	4667      	mov	r7, ip
    44a6:	189b      	adds	r3, r3, r2
    44a8:	3909      	subs	r1, #9
    44aa:	e7a3      	b.n	43f4 <_vfiprintf_r+0x124>
    44ac:	2301      	movs	r3, #1
    44ae:	425b      	negs	r3, r3
    44b0:	e7ce      	b.n	4450 <_vfiprintf_r+0x180>
    44b2:	2300      	movs	r3, #0
    44b4:	001a      	movs	r2, r3
    44b6:	3701      	adds	r7, #1
    44b8:	606b      	str	r3, [r5, #4]
    44ba:	7839      	ldrb	r1, [r7, #0]
    44bc:	1c78      	adds	r0, r7, #1
    44be:	3930      	subs	r1, #48	; 0x30
    44c0:	4684      	mov	ip, r0
    44c2:	2909      	cmp	r1, #9
    44c4:	d903      	bls.n	44ce <_vfiprintf_r+0x1fe>
    44c6:	2b00      	cmp	r3, #0
    44c8:	d0c3      	beq.n	4452 <_vfiprintf_r+0x182>
    44ca:	9209      	str	r2, [sp, #36]	; 0x24
    44cc:	e7c1      	b.n	4452 <_vfiprintf_r+0x182>
    44ce:	230a      	movs	r3, #10
    44d0:	435a      	muls	r2, r3
    44d2:	4667      	mov	r7, ip
    44d4:	1852      	adds	r2, r2, r1
    44d6:	3b09      	subs	r3, #9
    44d8:	e7ef      	b.n	44ba <_vfiprintf_r+0x1ea>
    44da:	ab07      	add	r3, sp, #28
    44dc:	9300      	str	r3, [sp, #0]
    44de:	0022      	movs	r2, r4
    44e0:	0029      	movs	r1, r5
    44e2:	0030      	movs	r0, r6
    44e4:	4b16      	ldr	r3, [pc, #88]	; (4540 <_vfiprintf_r+0x270>)
    44e6:	e000      	b.n	44ea <_vfiprintf_r+0x21a>
    44e8:	bf00      	nop
    44ea:	9004      	str	r0, [sp, #16]
    44ec:	9b04      	ldr	r3, [sp, #16]
    44ee:	3301      	adds	r3, #1
    44f0:	d1d1      	bne.n	4496 <_vfiprintf_r+0x1c6>
    44f2:	6e63      	ldr	r3, [r4, #100]	; 0x64
    44f4:	07db      	lsls	r3, r3, #31
    44f6:	d405      	bmi.n	4504 <_vfiprintf_r+0x234>
    44f8:	89a3      	ldrh	r3, [r4, #12]
    44fa:	059b      	lsls	r3, r3, #22
    44fc:	d402      	bmi.n	4504 <_vfiprintf_r+0x234>
    44fe:	6da0      	ldr	r0, [r4, #88]	; 0x58
    4500:	f7ff fe38 	bl	4174 <__retarget_lock_release_recursive>
    4504:	89a3      	ldrh	r3, [r4, #12]
    4506:	065b      	lsls	r3, r3, #25
    4508:	d500      	bpl.n	450c <_vfiprintf_r+0x23c>
    450a:	e70a      	b.n	4322 <_vfiprintf_r+0x52>
    450c:	980d      	ldr	r0, [sp, #52]	; 0x34
    450e:	e70a      	b.n	4326 <_vfiprintf_r+0x56>
    4510:	ab07      	add	r3, sp, #28
    4512:	9300      	str	r3, [sp, #0]
    4514:	0022      	movs	r2, r4
    4516:	0029      	movs	r1, r5
    4518:	0030      	movs	r0, r6
    451a:	4b09      	ldr	r3, [pc, #36]	; (4540 <_vfiprintf_r+0x270>)
    451c:	f000 f882 	bl	4624 <_printf_i>
    4520:	e7e3      	b.n	44ea <_vfiprintf_r+0x21a>
    4522:	46c0      	nop			; (mov r8, r8)
    4524:	000053fc 	.word	0x000053fc
    4528:	0000541c 	.word	0x0000541c
    452c:	000053dc 	.word	0x000053dc
    4530:	00005440 	.word	0x00005440
    4534:	00005446 	.word	0x00005446
    4538:	0000544a 	.word	0x0000544a
    453c:	00000000 	.word	0x00000000
    4540:	000042ab 	.word	0x000042ab

00004544 <_printf_common>:
_printf_common():
    4544:	b5f7      	push	{r0, r1, r2, r4, r5, r6, r7, lr}
    4546:	0015      	movs	r5, r2
    4548:	9301      	str	r3, [sp, #4]
    454a:	688a      	ldr	r2, [r1, #8]
    454c:	690b      	ldr	r3, [r1, #16]
    454e:	000c      	movs	r4, r1
    4550:	9000      	str	r0, [sp, #0]
    4552:	4293      	cmp	r3, r2
    4554:	da00      	bge.n	4558 <_printf_common+0x14>
    4556:	0013      	movs	r3, r2
    4558:	0022      	movs	r2, r4
    455a:	602b      	str	r3, [r5, #0]
    455c:	3243      	adds	r2, #67	; 0x43
    455e:	7812      	ldrb	r2, [r2, #0]
    4560:	2a00      	cmp	r2, #0
    4562:	d001      	beq.n	4568 <_printf_common+0x24>
    4564:	3301      	adds	r3, #1
    4566:	602b      	str	r3, [r5, #0]
    4568:	6823      	ldr	r3, [r4, #0]
    456a:	069b      	lsls	r3, r3, #26
    456c:	d502      	bpl.n	4574 <_printf_common+0x30>
    456e:	682b      	ldr	r3, [r5, #0]
    4570:	3302      	adds	r3, #2
    4572:	602b      	str	r3, [r5, #0]
    4574:	6822      	ldr	r2, [r4, #0]
    4576:	2306      	movs	r3, #6
    4578:	0017      	movs	r7, r2
    457a:	401f      	ands	r7, r3
    457c:	421a      	tst	r2, r3
    457e:	d027      	beq.n	45d0 <_printf_common+0x8c>
    4580:	0023      	movs	r3, r4
    4582:	3343      	adds	r3, #67	; 0x43
    4584:	781b      	ldrb	r3, [r3, #0]
    4586:	1e5a      	subs	r2, r3, #1
    4588:	4193      	sbcs	r3, r2
    458a:	6822      	ldr	r2, [r4, #0]
    458c:	0692      	lsls	r2, r2, #26
    458e:	d430      	bmi.n	45f2 <_printf_common+0xae>
    4590:	0022      	movs	r2, r4
    4592:	9901      	ldr	r1, [sp, #4]
    4594:	9800      	ldr	r0, [sp, #0]
    4596:	9e08      	ldr	r6, [sp, #32]
    4598:	3243      	adds	r2, #67	; 0x43
    459a:	47b0      	blx	r6
    459c:	1c43      	adds	r3, r0, #1
    459e:	d025      	beq.n	45ec <_printf_common+0xa8>
    45a0:	2306      	movs	r3, #6
    45a2:	6820      	ldr	r0, [r4, #0]
    45a4:	682a      	ldr	r2, [r5, #0]
    45a6:	68e1      	ldr	r1, [r4, #12]
    45a8:	2500      	movs	r5, #0
    45aa:	4003      	ands	r3, r0
    45ac:	2b04      	cmp	r3, #4
    45ae:	d103      	bne.n	45b8 <_printf_common+0x74>
    45b0:	1a8d      	subs	r5, r1, r2
    45b2:	43eb      	mvns	r3, r5
    45b4:	17db      	asrs	r3, r3, #31
    45b6:	401d      	ands	r5, r3
    45b8:	68a3      	ldr	r3, [r4, #8]
    45ba:	6922      	ldr	r2, [r4, #16]
    45bc:	4293      	cmp	r3, r2
    45be:	dd01      	ble.n	45c4 <_printf_common+0x80>
    45c0:	1a9b      	subs	r3, r3, r2
    45c2:	18ed      	adds	r5, r5, r3
    45c4:	2700      	movs	r7, #0
    45c6:	42bd      	cmp	r5, r7
    45c8:	d120      	bne.n	460c <_printf_common+0xc8>
    45ca:	2000      	movs	r0, #0
    45cc:	e010      	b.n	45f0 <_printf_common+0xac>
    45ce:	3701      	adds	r7, #1
    45d0:	68e3      	ldr	r3, [r4, #12]
    45d2:	682a      	ldr	r2, [r5, #0]
    45d4:	1a9b      	subs	r3, r3, r2
    45d6:	42bb      	cmp	r3, r7
    45d8:	ddd2      	ble.n	4580 <_printf_common+0x3c>
    45da:	0022      	movs	r2, r4
    45dc:	2301      	movs	r3, #1
    45de:	9901      	ldr	r1, [sp, #4]
    45e0:	9800      	ldr	r0, [sp, #0]
    45e2:	9e08      	ldr	r6, [sp, #32]
    45e4:	3219      	adds	r2, #25
    45e6:	47b0      	blx	r6
    45e8:	1c43      	adds	r3, r0, #1
    45ea:	d1f0      	bne.n	45ce <_printf_common+0x8a>
    45ec:	2001      	movs	r0, #1
    45ee:	4240      	negs	r0, r0
    45f0:	bdfe      	pop	{r1, r2, r3, r4, r5, r6, r7, pc}
    45f2:	2030      	movs	r0, #48	; 0x30
    45f4:	18e1      	adds	r1, r4, r3
    45f6:	3143      	adds	r1, #67	; 0x43
    45f8:	7008      	strb	r0, [r1, #0]
    45fa:	0021      	movs	r1, r4
    45fc:	1c5a      	adds	r2, r3, #1
    45fe:	3145      	adds	r1, #69	; 0x45
    4600:	7809      	ldrb	r1, [r1, #0]
    4602:	18a2      	adds	r2, r4, r2
    4604:	3243      	adds	r2, #67	; 0x43
    4606:	3302      	adds	r3, #2
    4608:	7011      	strb	r1, [r2, #0]
    460a:	e7c1      	b.n	4590 <_printf_common+0x4c>
    460c:	0022      	movs	r2, r4
    460e:	2301      	movs	r3, #1
    4610:	9901      	ldr	r1, [sp, #4]
    4612:	9800      	ldr	r0, [sp, #0]
    4614:	9e08      	ldr	r6, [sp, #32]
    4616:	321a      	adds	r2, #26
    4618:	47b0      	blx	r6
    461a:	1c43      	adds	r3, r0, #1
    461c:	d0e6      	beq.n	45ec <_printf_common+0xa8>
    461e:	3701      	adds	r7, #1
    4620:	e7d1      	b.n	45c6 <_printf_common+0x82>
	...

00004624 <_printf_i>:
_printf_i():
    4624:	b5f0      	push	{r4, r5, r6, r7, lr}
    4626:	b08b      	sub	sp, #44	; 0x2c
    4628:	9206      	str	r2, [sp, #24]
    462a:	000a      	movs	r2, r1
    462c:	3243      	adds	r2, #67	; 0x43
    462e:	9307      	str	r3, [sp, #28]
    4630:	9005      	str	r0, [sp, #20]
    4632:	9204      	str	r2, [sp, #16]
    4634:	7e0a      	ldrb	r2, [r1, #24]
    4636:	000c      	movs	r4, r1
    4638:	9b10      	ldr	r3, [sp, #64]	; 0x40
    463a:	2a78      	cmp	r2, #120	; 0x78
    463c:	d806      	bhi.n	464c <_printf_i+0x28>
    463e:	2a62      	cmp	r2, #98	; 0x62
    4640:	d808      	bhi.n	4654 <_printf_i+0x30>
    4642:	2a00      	cmp	r2, #0
    4644:	d100      	bne.n	4648 <_printf_i+0x24>
    4646:	e0c0      	b.n	47ca <_printf_i+0x1a6>
    4648:	2a58      	cmp	r2, #88	; 0x58
    464a:	d052      	beq.n	46f2 <_printf_i+0xce>
    464c:	0026      	movs	r6, r4
    464e:	3642      	adds	r6, #66	; 0x42
    4650:	7032      	strb	r2, [r6, #0]
    4652:	e022      	b.n	469a <_printf_i+0x76>
    4654:	0010      	movs	r0, r2
    4656:	3863      	subs	r0, #99	; 0x63
    4658:	2815      	cmp	r0, #21
    465a:	d8f7      	bhi.n	464c <_printf_i+0x28>
    465c:	f7fb fd2c 	bl	b8 <__gnu_thumb1_case_shi>
    4660:	001f0016 	.word	0x001f0016
    4664:	fff6fff6 	.word	0xfff6fff6
    4668:	fff6fff6 	.word	0xfff6fff6
    466c:	fff6001f 	.word	0xfff6001f
    4670:	fff6fff6 	.word	0xfff6fff6
    4674:	00a8fff6 	.word	0x00a8fff6
    4678:	009a0036 	.word	0x009a0036
    467c:	fff6fff6 	.word	0xfff6fff6
    4680:	fff600b9 	.word	0xfff600b9
    4684:	fff60036 	.word	0xfff60036
    4688:	009efff6 	.word	0x009efff6
    468c:	0026      	movs	r6, r4
    468e:	681a      	ldr	r2, [r3, #0]
    4690:	3642      	adds	r6, #66	; 0x42
    4692:	1d11      	adds	r1, r2, #4
    4694:	6019      	str	r1, [r3, #0]
    4696:	6813      	ldr	r3, [r2, #0]
    4698:	7033      	strb	r3, [r6, #0]
    469a:	2301      	movs	r3, #1
    469c:	e0a7      	b.n	47ee <_printf_i+0x1ca>
    469e:	6808      	ldr	r0, [r1, #0]
    46a0:	6819      	ldr	r1, [r3, #0]
    46a2:	1d0a      	adds	r2, r1, #4
    46a4:	0605      	lsls	r5, r0, #24
    46a6:	d50b      	bpl.n	46c0 <_printf_i+0x9c>
    46a8:	680d      	ldr	r5, [r1, #0]
    46aa:	601a      	str	r2, [r3, #0]
    46ac:	2d00      	cmp	r5, #0
    46ae:	da03      	bge.n	46b8 <_printf_i+0x94>
    46b0:	232d      	movs	r3, #45	; 0x2d
    46b2:	9a04      	ldr	r2, [sp, #16]
    46b4:	426d      	negs	r5, r5
    46b6:	7013      	strb	r3, [r2, #0]
    46b8:	4b61      	ldr	r3, [pc, #388]	; (4840 <_printf_i+0x21c>)
    46ba:	270a      	movs	r7, #10
    46bc:	9303      	str	r3, [sp, #12]
    46be:	e032      	b.n	4726 <_printf_i+0x102>
    46c0:	680d      	ldr	r5, [r1, #0]
    46c2:	601a      	str	r2, [r3, #0]
    46c4:	0641      	lsls	r1, r0, #25
    46c6:	d5f1      	bpl.n	46ac <_printf_i+0x88>
    46c8:	b22d      	sxth	r5, r5
    46ca:	e7ef      	b.n	46ac <_printf_i+0x88>
    46cc:	680d      	ldr	r5, [r1, #0]
    46ce:	6819      	ldr	r1, [r3, #0]
    46d0:	1d08      	adds	r0, r1, #4
    46d2:	6018      	str	r0, [r3, #0]
    46d4:	062e      	lsls	r6, r5, #24
    46d6:	d501      	bpl.n	46dc <_printf_i+0xb8>
    46d8:	680d      	ldr	r5, [r1, #0]
    46da:	e003      	b.n	46e4 <_printf_i+0xc0>
    46dc:	066d      	lsls	r5, r5, #25
    46de:	d5fb      	bpl.n	46d8 <_printf_i+0xb4>
    46e0:	680d      	ldr	r5, [r1, #0]
    46e2:	b2ad      	uxth	r5, r5
    46e4:	4b56      	ldr	r3, [pc, #344]	; (4840 <_printf_i+0x21c>)
    46e6:	270a      	movs	r7, #10
    46e8:	9303      	str	r3, [sp, #12]
    46ea:	2a6f      	cmp	r2, #111	; 0x6f
    46ec:	d117      	bne.n	471e <_printf_i+0xfa>
    46ee:	2708      	movs	r7, #8
    46f0:	e015      	b.n	471e <_printf_i+0xfa>
    46f2:	3145      	adds	r1, #69	; 0x45
    46f4:	700a      	strb	r2, [r1, #0]
    46f6:	4a52      	ldr	r2, [pc, #328]	; (4840 <_printf_i+0x21c>)
    46f8:	9203      	str	r2, [sp, #12]
    46fa:	681a      	ldr	r2, [r3, #0]
    46fc:	6821      	ldr	r1, [r4, #0]
    46fe:	ca20      	ldmia	r2!, {r5}
    4700:	601a      	str	r2, [r3, #0]
    4702:	0608      	lsls	r0, r1, #24
    4704:	d550      	bpl.n	47a8 <_printf_i+0x184>
    4706:	07cb      	lsls	r3, r1, #31
    4708:	d502      	bpl.n	4710 <_printf_i+0xec>
    470a:	2320      	movs	r3, #32
    470c:	4319      	orrs	r1, r3
    470e:	6021      	str	r1, [r4, #0]
    4710:	2710      	movs	r7, #16
    4712:	2d00      	cmp	r5, #0
    4714:	d103      	bne.n	471e <_printf_i+0xfa>
    4716:	2320      	movs	r3, #32
    4718:	6822      	ldr	r2, [r4, #0]
    471a:	439a      	bics	r2, r3
    471c:	6022      	str	r2, [r4, #0]
    471e:	0023      	movs	r3, r4
    4720:	2200      	movs	r2, #0
    4722:	3343      	adds	r3, #67	; 0x43
    4724:	701a      	strb	r2, [r3, #0]
    4726:	6863      	ldr	r3, [r4, #4]
    4728:	60a3      	str	r3, [r4, #8]
    472a:	2b00      	cmp	r3, #0
    472c:	db03      	blt.n	4736 <_printf_i+0x112>
    472e:	2204      	movs	r2, #4
    4730:	6821      	ldr	r1, [r4, #0]
    4732:	4391      	bics	r1, r2
    4734:	6021      	str	r1, [r4, #0]
    4736:	2d00      	cmp	r5, #0
    4738:	d102      	bne.n	4740 <_printf_i+0x11c>
    473a:	9e04      	ldr	r6, [sp, #16]
    473c:	2b00      	cmp	r3, #0
    473e:	d00c      	beq.n	475a <_printf_i+0x136>
    4740:	9e04      	ldr	r6, [sp, #16]
    4742:	0028      	movs	r0, r5
    4744:	0039      	movs	r1, r7
    4746:	f7fb fd47 	bl	1d8 <__aeabi_uidivmod>
    474a:	9b03      	ldr	r3, [sp, #12]
    474c:	3e01      	subs	r6, #1
    474e:	5c5b      	ldrb	r3, [r3, r1]
    4750:	7033      	strb	r3, [r6, #0]
    4752:	002b      	movs	r3, r5
    4754:	0005      	movs	r5, r0
    4756:	429f      	cmp	r7, r3
    4758:	d9f3      	bls.n	4742 <_printf_i+0x11e>
    475a:	2f08      	cmp	r7, #8
    475c:	d109      	bne.n	4772 <_printf_i+0x14e>
    475e:	6823      	ldr	r3, [r4, #0]
    4760:	07db      	lsls	r3, r3, #31
    4762:	d506      	bpl.n	4772 <_printf_i+0x14e>
    4764:	6863      	ldr	r3, [r4, #4]
    4766:	6922      	ldr	r2, [r4, #16]
    4768:	4293      	cmp	r3, r2
    476a:	dc02      	bgt.n	4772 <_printf_i+0x14e>
    476c:	2330      	movs	r3, #48	; 0x30
    476e:	3e01      	subs	r6, #1
    4770:	7033      	strb	r3, [r6, #0]
    4772:	9b04      	ldr	r3, [sp, #16]
    4774:	1b9b      	subs	r3, r3, r6
    4776:	6123      	str	r3, [r4, #16]
    4778:	9b07      	ldr	r3, [sp, #28]
    477a:	0021      	movs	r1, r4
    477c:	9300      	str	r3, [sp, #0]
    477e:	9805      	ldr	r0, [sp, #20]
    4780:	9b06      	ldr	r3, [sp, #24]
    4782:	aa09      	add	r2, sp, #36	; 0x24
    4784:	f7ff fede 	bl	4544 <_printf_common>
    4788:	1c43      	adds	r3, r0, #1
    478a:	d135      	bne.n	47f8 <_printf_i+0x1d4>
    478c:	2001      	movs	r0, #1
    478e:	4240      	negs	r0, r0
    4790:	b00b      	add	sp, #44	; 0x2c
    4792:	bdf0      	pop	{r4, r5, r6, r7, pc}
    4794:	2220      	movs	r2, #32
    4796:	6809      	ldr	r1, [r1, #0]
    4798:	430a      	orrs	r2, r1
    479a:	6022      	str	r2, [r4, #0]
    479c:	0022      	movs	r2, r4
    479e:	2178      	movs	r1, #120	; 0x78
    47a0:	3245      	adds	r2, #69	; 0x45
    47a2:	7011      	strb	r1, [r2, #0]
    47a4:	4a27      	ldr	r2, [pc, #156]	; (4844 <_printf_i+0x220>)
    47a6:	e7a7      	b.n	46f8 <_printf_i+0xd4>
    47a8:	0648      	lsls	r0, r1, #25
    47aa:	d5ac      	bpl.n	4706 <_printf_i+0xe2>
    47ac:	b2ad      	uxth	r5, r5
    47ae:	e7aa      	b.n	4706 <_printf_i+0xe2>
    47b0:	681a      	ldr	r2, [r3, #0]
    47b2:	680d      	ldr	r5, [r1, #0]
    47b4:	1d10      	adds	r0, r2, #4
    47b6:	6949      	ldr	r1, [r1, #20]
    47b8:	6018      	str	r0, [r3, #0]
    47ba:	6813      	ldr	r3, [r2, #0]
    47bc:	062e      	lsls	r6, r5, #24
    47be:	d501      	bpl.n	47c4 <_printf_i+0x1a0>
    47c0:	6019      	str	r1, [r3, #0]
    47c2:	e002      	b.n	47ca <_printf_i+0x1a6>
    47c4:	066d      	lsls	r5, r5, #25
    47c6:	d5fb      	bpl.n	47c0 <_printf_i+0x19c>
    47c8:	8019      	strh	r1, [r3, #0]
    47ca:	2300      	movs	r3, #0
    47cc:	9e04      	ldr	r6, [sp, #16]
    47ce:	6123      	str	r3, [r4, #16]
    47d0:	e7d2      	b.n	4778 <_printf_i+0x154>
    47d2:	681a      	ldr	r2, [r3, #0]
    47d4:	1d11      	adds	r1, r2, #4
    47d6:	6019      	str	r1, [r3, #0]
    47d8:	6816      	ldr	r6, [r2, #0]
    47da:	2100      	movs	r1, #0
    47dc:	0030      	movs	r0, r6
    47de:	6862      	ldr	r2, [r4, #4]
    47e0:	f000 f8dc 	bl	499c <memchr>
    47e4:	2800      	cmp	r0, #0
    47e6:	d001      	beq.n	47ec <_printf_i+0x1c8>
    47e8:	1b80      	subs	r0, r0, r6
    47ea:	6060      	str	r0, [r4, #4]
    47ec:	6863      	ldr	r3, [r4, #4]
    47ee:	6123      	str	r3, [r4, #16]
    47f0:	2300      	movs	r3, #0
    47f2:	9a04      	ldr	r2, [sp, #16]
    47f4:	7013      	strb	r3, [r2, #0]
    47f6:	e7bf      	b.n	4778 <_printf_i+0x154>
    47f8:	6923      	ldr	r3, [r4, #16]
    47fa:	0032      	movs	r2, r6
    47fc:	9906      	ldr	r1, [sp, #24]
    47fe:	9805      	ldr	r0, [sp, #20]
    4800:	9d07      	ldr	r5, [sp, #28]
    4802:	47a8      	blx	r5
    4804:	1c43      	adds	r3, r0, #1
    4806:	d0c1      	beq.n	478c <_printf_i+0x168>
    4808:	6823      	ldr	r3, [r4, #0]
    480a:	079b      	lsls	r3, r3, #30
    480c:	d415      	bmi.n	483a <_printf_i+0x216>
    480e:	9b09      	ldr	r3, [sp, #36]	; 0x24
    4810:	68e0      	ldr	r0, [r4, #12]
    4812:	4298      	cmp	r0, r3
    4814:	dabc      	bge.n	4790 <_printf_i+0x16c>
    4816:	0018      	movs	r0, r3
    4818:	e7ba      	b.n	4790 <_printf_i+0x16c>
    481a:	0022      	movs	r2, r4
    481c:	2301      	movs	r3, #1
    481e:	9906      	ldr	r1, [sp, #24]
    4820:	9805      	ldr	r0, [sp, #20]
    4822:	9e07      	ldr	r6, [sp, #28]
    4824:	3219      	adds	r2, #25
    4826:	47b0      	blx	r6
    4828:	1c43      	adds	r3, r0, #1
    482a:	d0af      	beq.n	478c <_printf_i+0x168>
    482c:	3501      	adds	r5, #1
    482e:	68e3      	ldr	r3, [r4, #12]
    4830:	9a09      	ldr	r2, [sp, #36]	; 0x24
    4832:	1a9b      	subs	r3, r3, r2
    4834:	42ab      	cmp	r3, r5
    4836:	dcf0      	bgt.n	481a <_printf_i+0x1f6>
    4838:	e7e9      	b.n	480e <_printf_i+0x1ea>
    483a:	2500      	movs	r5, #0
    483c:	e7f7      	b.n	482e <_printf_i+0x20a>
    483e:	46c0      	nop			; (mov r8, r8)
    4840:	00005451 	.word	0x00005451
    4844:	00005462 	.word	0x00005462

00004848 <__sread>:
__sread():
    4848:	b570      	push	{r4, r5, r6, lr}
    484a:	000c      	movs	r4, r1
    484c:	250e      	movs	r5, #14
    484e:	5f49      	ldrsh	r1, [r1, r5]
    4850:	f000 f8b0 	bl	49b4 <_read_r>
    4854:	2800      	cmp	r0, #0
    4856:	db03      	blt.n	4860 <__sread+0x18>
    4858:	6d63      	ldr	r3, [r4, #84]	; 0x54
    485a:	181b      	adds	r3, r3, r0
    485c:	6563      	str	r3, [r4, #84]	; 0x54
    485e:	bd70      	pop	{r4, r5, r6, pc}
    4860:	89a3      	ldrh	r3, [r4, #12]
    4862:	4a02      	ldr	r2, [pc, #8]	; (486c <__sread+0x24>)
    4864:	4013      	ands	r3, r2
    4866:	81a3      	strh	r3, [r4, #12]
    4868:	e7f9      	b.n	485e <__sread+0x16>
    486a:	46c0      	nop			; (mov r8, r8)
    486c:	ffffefff 	.word	0xffffefff

00004870 <__swrite>:
__swrite():
    4870:	b5f8      	push	{r3, r4, r5, r6, r7, lr}
    4872:	001f      	movs	r7, r3
    4874:	898b      	ldrh	r3, [r1, #12]
    4876:	0005      	movs	r5, r0
    4878:	000c      	movs	r4, r1
    487a:	0016      	movs	r6, r2
    487c:	05db      	lsls	r3, r3, #23
    487e:	d505      	bpl.n	488c <__swrite+0x1c>
    4880:	230e      	movs	r3, #14
    4882:	5ec9      	ldrsh	r1, [r1, r3]
    4884:	2200      	movs	r2, #0
    4886:	2302      	movs	r3, #2
    4888:	f000 f874 	bl	4974 <_lseek_r>
    488c:	89a3      	ldrh	r3, [r4, #12]
    488e:	4a05      	ldr	r2, [pc, #20]	; (48a4 <__swrite+0x34>)
    4890:	0028      	movs	r0, r5
    4892:	4013      	ands	r3, r2
    4894:	81a3      	strh	r3, [r4, #12]
    4896:	0032      	movs	r2, r6
    4898:	230e      	movs	r3, #14
    489a:	5ee1      	ldrsh	r1, [r4, r3]
    489c:	003b      	movs	r3, r7
    489e:	f000 f81f 	bl	48e0 <_write_r>
    48a2:	bdf8      	pop	{r3, r4, r5, r6, r7, pc}
    48a4:	ffffefff 	.word	0xffffefff

000048a8 <__sseek>:
__sseek():
    48a8:	b570      	push	{r4, r5, r6, lr}
    48aa:	000c      	movs	r4, r1
    48ac:	250e      	movs	r5, #14
    48ae:	5f49      	ldrsh	r1, [r1, r5]
    48b0:	f000 f860 	bl	4974 <_lseek_r>
    48b4:	89a3      	ldrh	r3, [r4, #12]
    48b6:	1c42      	adds	r2, r0, #1
    48b8:	d103      	bne.n	48c2 <__sseek+0x1a>
    48ba:	4a05      	ldr	r2, [pc, #20]	; (48d0 <__sseek+0x28>)
    48bc:	4013      	ands	r3, r2
    48be:	81a3      	strh	r3, [r4, #12]
    48c0:	bd70      	pop	{r4, r5, r6, pc}
    48c2:	2280      	movs	r2, #128	; 0x80
    48c4:	0152      	lsls	r2, r2, #5
    48c6:	4313      	orrs	r3, r2
    48c8:	81a3      	strh	r3, [r4, #12]
    48ca:	6560      	str	r0, [r4, #84]	; 0x54
    48cc:	e7f8      	b.n	48c0 <__sseek+0x18>
    48ce:	46c0      	nop			; (mov r8, r8)
    48d0:	ffffefff 	.word	0xffffefff

000048d4 <__sclose>:
__sclose():
    48d4:	b510      	push	{r4, lr}
    48d6:	230e      	movs	r3, #14
    48d8:	5ec9      	ldrsh	r1, [r1, r3]
    48da:	f000 f815 	bl	4908 <_close_r>
    48de:	bd10      	pop	{r4, pc}

000048e0 <_write_r>:
_write_r():
    48e0:	b570      	push	{r4, r5, r6, lr}
    48e2:	0004      	movs	r4, r0
    48e4:	0008      	movs	r0, r1
    48e6:	0011      	movs	r1, r2
    48e8:	001a      	movs	r2, r3
    48ea:	2300      	movs	r3, #0
    48ec:	4d05      	ldr	r5, [pc, #20]	; (4904 <_write_r+0x24>)
    48ee:	602b      	str	r3, [r5, #0]
    48f0:	f7fe ffb2 	bl	3858 <_write>
    48f4:	1c43      	adds	r3, r0, #1
    48f6:	d103      	bne.n	4900 <_write_r+0x20>
    48f8:	682b      	ldr	r3, [r5, #0]
    48fa:	2b00      	cmp	r3, #0
    48fc:	d000      	beq.n	4900 <_write_r+0x20>
    48fe:	6023      	str	r3, [r4, #0]
    4900:	bd70      	pop	{r4, r5, r6, pc}
    4902:	46c0      	nop			; (mov r8, r8)
    4904:	20005674 	.word	0x20005674

00004908 <_close_r>:
_close_r():
    4908:	2300      	movs	r3, #0
    490a:	b570      	push	{r4, r5, r6, lr}
    490c:	4d06      	ldr	r5, [pc, #24]	; (4928 <_close_r+0x20>)
    490e:	0004      	movs	r4, r0
    4910:	0008      	movs	r0, r1
    4912:	602b      	str	r3, [r5, #0]
    4914:	f000 f862 	bl	49dc <_close>
    4918:	1c43      	adds	r3, r0, #1
    491a:	d103      	bne.n	4924 <_close_r+0x1c>
    491c:	682b      	ldr	r3, [r5, #0]
    491e:	2b00      	cmp	r3, #0
    4920:	d000      	beq.n	4924 <_close_r+0x1c>
    4922:	6023      	str	r3, [r4, #0]
    4924:	bd70      	pop	{r4, r5, r6, pc}
    4926:	46c0      	nop			; (mov r8, r8)
    4928:	20005674 	.word	0x20005674

0000492c <_fstat_r>:
_fstat_r():
    492c:	2300      	movs	r3, #0
    492e:	b570      	push	{r4, r5, r6, lr}
    4930:	4d06      	ldr	r5, [pc, #24]	; (494c <_fstat_r+0x20>)
    4932:	0004      	movs	r4, r0
    4934:	0008      	movs	r0, r1
    4936:	0011      	movs	r1, r2
    4938:	602b      	str	r3, [r5, #0]
    493a:	f000 f857 	bl	49ec <_fstat>
    493e:	1c43      	adds	r3, r0, #1
    4940:	d103      	bne.n	494a <_fstat_r+0x1e>
    4942:	682b      	ldr	r3, [r5, #0]
    4944:	2b00      	cmp	r3, #0
    4946:	d000      	beq.n	494a <_fstat_r+0x1e>
    4948:	6023      	str	r3, [r4, #0]
    494a:	bd70      	pop	{r4, r5, r6, pc}
    494c:	20005674 	.word	0x20005674

00004950 <_isatty_r>:
_isatty_r():
    4950:	2300      	movs	r3, #0
    4952:	b570      	push	{r4, r5, r6, lr}
    4954:	4d06      	ldr	r5, [pc, #24]	; (4970 <_isatty_r+0x20>)
    4956:	0004      	movs	r4, r0
    4958:	0008      	movs	r0, r1
    495a:	602b      	str	r3, [r5, #0]
    495c:	f000 f84e 	bl	49fc <_isatty>
    4960:	1c43      	adds	r3, r0, #1
    4962:	d103      	bne.n	496c <_isatty_r+0x1c>
    4964:	682b      	ldr	r3, [r5, #0]
    4966:	2b00      	cmp	r3, #0
    4968:	d000      	beq.n	496c <_isatty_r+0x1c>
    496a:	6023      	str	r3, [r4, #0]
    496c:	bd70      	pop	{r4, r5, r6, pc}
    496e:	46c0      	nop			; (mov r8, r8)
    4970:	20005674 	.word	0x20005674

00004974 <_lseek_r>:
_lseek_r():
    4974:	b570      	push	{r4, r5, r6, lr}
    4976:	0004      	movs	r4, r0
    4978:	0008      	movs	r0, r1
    497a:	0011      	movs	r1, r2
    497c:	001a      	movs	r2, r3
    497e:	2300      	movs	r3, #0
    4980:	4d05      	ldr	r5, [pc, #20]	; (4998 <_lseek_r+0x24>)
    4982:	602b      	str	r3, [r5, #0]
    4984:	f000 f842 	bl	4a0c <_lseek>
    4988:	1c43      	adds	r3, r0, #1
    498a:	d103      	bne.n	4994 <_lseek_r+0x20>
    498c:	682b      	ldr	r3, [r5, #0]
    498e:	2b00      	cmp	r3, #0
    4990:	d000      	beq.n	4994 <_lseek_r+0x20>
    4992:	6023      	str	r3, [r4, #0]
    4994:	bd70      	pop	{r4, r5, r6, pc}
    4996:	46c0      	nop			; (mov r8, r8)
    4998:	20005674 	.word	0x20005674

0000499c <memchr>:
memchr():
    499c:	b2c9      	uxtb	r1, r1
    499e:	1882      	adds	r2, r0, r2
    49a0:	4290      	cmp	r0, r2
    49a2:	d101      	bne.n	49a8 <memchr+0xc>
    49a4:	2000      	movs	r0, #0
    49a6:	4770      	bx	lr
    49a8:	7803      	ldrb	r3, [r0, #0]
    49aa:	428b      	cmp	r3, r1
    49ac:	d0fb      	beq.n	49a6 <memchr+0xa>
    49ae:	3001      	adds	r0, #1
    49b0:	e7f6      	b.n	49a0 <memchr+0x4>
	...

000049b4 <_read_r>:
_read_r():
    49b4:	b570      	push	{r4, r5, r6, lr}
    49b6:	0004      	movs	r4, r0
    49b8:	0008      	movs	r0, r1
    49ba:	0011      	movs	r1, r2
    49bc:	001a      	movs	r2, r3
    49be:	2300      	movs	r3, #0
    49c0:	4d05      	ldr	r5, [pc, #20]	; (49d8 <_read_r+0x24>)
    49c2:	602b      	str	r3, [r5, #0]
    49c4:	f000 f82a 	bl	4a1c <_read>
    49c8:	1c43      	adds	r3, r0, #1
    49ca:	d103      	bne.n	49d4 <_read_r+0x20>
    49cc:	682b      	ldr	r3, [r5, #0]
    49ce:	2b00      	cmp	r3, #0
    49d0:	d000      	beq.n	49d4 <_read_r+0x20>
    49d2:	6023      	str	r3, [r4, #0]
    49d4:	bd70      	pop	{r4, r5, r6, pc}
    49d6:	46c0      	nop			; (mov r8, r8)
    49d8:	20005674 	.word	0x20005674

000049dc <_close>:
_close():
    49dc:	2258      	movs	r2, #88	; 0x58
    49de:	2001      	movs	r0, #1
    49e0:	4b01      	ldr	r3, [pc, #4]	; (49e8 <_close+0xc>)
    49e2:	4240      	negs	r0, r0
    49e4:	601a      	str	r2, [r3, #0]
    49e6:	4770      	bx	lr
    49e8:	20005674 	.word	0x20005674

000049ec <_fstat>:
_fstat():
    49ec:	2258      	movs	r2, #88	; 0x58
    49ee:	2001      	movs	r0, #1
    49f0:	4b01      	ldr	r3, [pc, #4]	; (49f8 <_fstat+0xc>)
    49f2:	4240      	negs	r0, r0
    49f4:	601a      	str	r2, [r3, #0]
    49f6:	4770      	bx	lr
    49f8:	20005674 	.word	0x20005674

000049fc <_isatty>:
_isatty():
    49fc:	2258      	movs	r2, #88	; 0x58
    49fe:	4b02      	ldr	r3, [pc, #8]	; (4a08 <_isatty+0xc>)
    4a00:	2000      	movs	r0, #0
    4a02:	601a      	str	r2, [r3, #0]
    4a04:	4770      	bx	lr
    4a06:	46c0      	nop			; (mov r8, r8)
    4a08:	20005674 	.word	0x20005674

00004a0c <_lseek>:
_lseek():
    4a0c:	2258      	movs	r2, #88	; 0x58
    4a0e:	2001      	movs	r0, #1
    4a10:	4b01      	ldr	r3, [pc, #4]	; (4a18 <_lseek+0xc>)
    4a12:	4240      	negs	r0, r0
    4a14:	601a      	str	r2, [r3, #0]
    4a16:	4770      	bx	lr
    4a18:	20005674 	.word	0x20005674

00004a1c <_read>:
_read():
    4a1c:	2258      	movs	r2, #88	; 0x58
    4a1e:	2001      	movs	r0, #1
    4a20:	4b01      	ldr	r3, [pc, #4]	; (4a28 <_read+0xc>)
    4a22:	4240      	negs	r0, r0
    4a24:	601a      	str	r2, [r3, #0]
    4a26:	4770      	bx	lr
    4a28:	20005674 	.word	0x20005674

00004a2c <_sbrk>:
_sbrk():
    4a2c:	4a04      	ldr	r2, [pc, #16]	; (4a40 <_sbrk+0x14>)
    4a2e:	0003      	movs	r3, r0
    4a30:	6810      	ldr	r0, [r2, #0]
    4a32:	2800      	cmp	r0, #0
    4a34:	d002      	beq.n	4a3c <_sbrk+0x10>
    4a36:	18c3      	adds	r3, r0, r3
    4a38:	6013      	str	r3, [r2, #0]
    4a3a:	4770      	bx	lr
    4a3c:	4801      	ldr	r0, [pc, #4]	; (4a44 <_sbrk+0x18>)
    4a3e:	e7fa      	b.n	4a36 <_sbrk+0xa>
    4a40:	20005664 	.word	0x20005664
    4a44:	20005678 	.word	0x20005678
